ARM GAS  C:\Users\eric\AppData\Local\Temp\ccyeDnt3.s 			page 1


   1              		.syntax unified
   2              		.cpu cortex-m4
   3              		.eabi_attribute 27, 1
   4              		.eabi_attribute 28, 1
   5              		.fpu fpv4-sp-d16
   6              		.eabi_attribute 20, 1
   7              		.eabi_attribute 21, 1
   8              		.eabi_attribute 23, 3
   9              		.eabi_attribute 24, 1
  10              		.eabi_attribute 25, 1
  11              		.eabi_attribute 26, 1
  12              		.eabi_attribute 30, 4
  13              		.eabi_attribute 34, 1
  14              		.eabi_attribute 18, 4
  15              		.thumb
  16              		.syntax unified
  17              		.file	"supersaw.cpp"
  18              		.text
  19              	.Ltext0:
  20              		.cfi_sections	.debug_frame
  21              		.align	1
  22              		.global	_hook_init
  23              		.thumb
  24              		.thumb_func
  25              		.type	_hook_init, %function
  26              	_hook_init:
  27              	.LFB239:
  28              		.file 1 "supersaw.cpp"
  29              		.loc 1 71 0
  30              		.cfi_startproc
  31              		@ args = 0, pretend = 0, frame = 0
  32              		@ frame_needed = 0, uses_anonymous_args = 0
  33              		@ link register save eliminated.
  34              	.LVL0:
  35              		.loc 1 72 0
  36 0000 074B     		ldr	r3, .L2
  37 0002 4FF07E52 		mov	r2, #1065353216
  38              		.loc 1 75 0
  39 0006 0220     		movs	r0, #2
  40              	.LVL1:
  41              		.loc 1 74 0
  42 0008 0021     		movs	r1, #0
  43              	.LVL2:
  44              		.loc 1 72 0
  45 000a 1A60     		str	r2, [r3]	@ float
  46              		.loc 1 75 0
  47 000c 1861     		str	r0, [r3, #16]
  48              		.loc 1 73 0
  49 000e 0022     		movs	r2, #0
  50              		.loc 1 76 0
  51 0010 0A20     		movs	r0, #10
  52              		.loc 1 73 0
  53 0012 9A60     		str	r2, [r3, #8]	@ float
  54 0014 5A60     		str	r2, [r3, #4]	@ float
  55              		.loc 1 74 0
  56 0016 1973     		strb	r1, [r3, #12]
  57              		.loc 1 76 0
ARM GAS  C:\Users\eric\AppData\Local\Temp\ccyeDnt3.s 			page 2


  58 0018 5861     		str	r0, [r3, #20]
  59              		.loc 1 77 0
  60 001a 9A61     		str	r2, [r3, #24]	@ float
  61              		.loc 1 78 0
  62 001c 1977     		strb	r1, [r3, #28]
  63 001e 7047     		bx	lr
  64              	.L3:
  65              		.align	2
  66              	.L2:
  67 0020 00000000 		.word	.LANCHOR0
  68              		.cfi_endproc
  69              	.LFE239:
  70              		.size	_hook_init, .-_hook_init
  71              		.align	1
  72              		.global	_hook_cycle
  73              		.thumb
  74              		.thumb_func
  75              		.type	_hook_cycle, %function
  76              	_hook_cycle:
  77              	.LFB243:
  78              		.loc 1 124 0
  79              		.cfi_startproc
  80              		@ args = 0, pretend = 0, frame = 16
  81              		@ frame_needed = 0, uses_anonymous_args = 0
  82              	.LVL3:
  83 0024 2DE9F04F 		push	{r4, r5, r6, r7, r8, r9, r10, fp, lr}
  84              		.cfi_def_cfa_offset 36
  85              		.cfi_offset 4, -36
  86              		.cfi_offset 5, -32
  87              		.cfi_offset 6, -28
  88              		.cfi_offset 7, -24
  89              		.cfi_offset 8, -20
  90              		.cfi_offset 9, -16
  91              		.cfi_offset 10, -12
  92              		.cfi_offset 11, -8
  93              		.cfi_offset 14, -4
  94              		.loc 1 125 0
  95 0028 9B4C     		ldr	r4, .L52
  96              		.loc 1 130 0
  97 002a D0ED007A 		vldr.32	s15, [r0]	@ int
  98              		.loc 1 125 0
  99 002e 94F80C80 		ldrb	r8, [r4, #12]	@ zero_extendqisi2
 100              	.LVL4:
 101              		.loc 1 137 0
 102 0032 D4F81090 		ldr	r9, [r4, #16]
 103              	.LBB84:
 104              	.LBB85:
 105              	.LBB86:
 106              	.LBB87:
 107              	.LBB88:
 108              	.LBB89:
 109              		.file 2 "../inc/osc_api.h"
 110              		.loc 2 115 0
 111 0036 DFF884B2 		ldr	fp, .L52+36
 112              	.LBE89:
 113              	.LBE88:
 114              	.LBE87:
ARM GAS  C:\Users\eric\AppData\Local\Temp\ccyeDnt3.s 			page 3


 115              	.LBE86:
 116              	.LBE85:
 117              	.LBE84:
 118              		.loc 1 138 0
 119 003a 984F     		ldr	r7, .L52+4
 120              		.loc 1 126 0
 121 003c 0023     		movs	r3, #0
 122              		.loc 1 130 0
 123 003e FAEEE07A 		vcvt.f32.s32	s15, s15, #31
 124              		.loc 1 126 0
 125 0042 2373     		strb	r3, [r4, #12]
 126              		.loc 1 131 0
 127 0044 18F00103 		ands	r3, r8, #1
 128              		.loc 1 124 0
 129 0048 2DED088B 		vpush.64	{d8, d9, d10, d11}
 130              		.cfi_def_cfa_offset 68
 131              		.cfi_offset 80, -68
 132              		.cfi_offset 81, -64
 133              		.cfi_offset 82, -60
 134              		.cfi_offset 83, -56
 135              		.cfi_offset 84, -52
 136              		.cfi_offset 85, -48
 137              		.cfi_offset 86, -44
 138              		.cfi_offset 87, -40
 139              		.loc 1 132 0
 140 004c 07EE102A 		vmov	s14, r2	@ int
 141              		.loc 1 131 0
 142 0050 08BF     		it	eq
 143 0052 94ED02AA 		vldreq.32	s20, [r4, #8]
 144              		.loc 1 130 0
 145 0056 C4ED017A 		vstr.32	s15, [r4, #4]
 146              		.loc 1 131 0
 147 005a 18BF     		it	ne
 148 005c B0EE67AA 		vmovne.f32	s20, s15
 149              		.loc 1 132 0
 150 0060 77EECA7A 		vsub.f32	s15, s15, s20
 151 0064 B8EE477A 		vcvt.f32.u32	s14, s14
 152              		.loc 1 124 0
 153 0068 85B0     		sub	sp, sp, #20
 154              		.cfi_def_cfa_offset 88
 155              		.loc 1 132 0
 156 006a 87EE878A 		vdiv.f32	s16, s15, s14
 157              		.loc 1 131 0
 158 006e 0193     		str	r3, [sp, #4]
 159              		.loc 1 137 0
 160 0070 5FFA89F3 		uxtb	r3, r9
 161              		.loc 1 135 0
 162 0074 01EB8208 		add	r8, r1, r2, lsl #2
 163              	.LVL5:
 164              	.LBB133:
 165              		.loc 1 142 0
 166 0078 894A     		ldr	r2, .L52+8
 167              	.LVL6:
 168              	.LBE133:
 169              		.loc 1 124 0
 170 007a 0E46     		mov	r6, r1
 171 007c 8246     		mov	r10, r0
ARM GAS  C:\Users\eric\AppData\Local\Temp\ccyeDnt3.s 			page 4


 172              	.LBB134:
 173              		.loc 1 142 0
 174 007e 0025     		movs	r5, #0
 175 0080 5946     		mov	r1, fp
 176              	.LVL7:
 177              	.LBE134:
 178              		.loc 1 137 0
 179 0082 09EE103A 		vmov	s18, r3	@ int
 180              		.loc 1 128 0
 181 0086 D4ED008A 		vldr.32	s17, [r4]
 182              	.LVL8:
 183              		.loc 1 138 0
 184 008a 6369     		ldr	r3, [r4, #20]
 185 008c 0093     		str	r3, [sp]
 186              	.LVL9:
 187              	.L16:
 188 008e 5FFA89F0 		uxtb	r0, r9
 189              	.LBB135:
 190              		.loc 1 142 0 discriminator 1
 191 0092 8542     		cmp	r5, r0
 192 0094 05DB     		blt	.L6
 193              	.L8:
 194 0096 F7EE009A 		vmov.f32	s19, #1.0e+0
 195              	.LBE135:
 196              	.LBB136:
 197              	.LBB137:
 198              	.LBB138:
 199              		.loc 1 154 0
 200 009a 814D     		ldr	r5, .L52+8
 201              	.LVL10:
 202 009c F0EE69BA 		vmov.f32	s23, s19
 203 00a0 CBE0     		b	.L7
 204              	.LVL11:
 205              	.L6:
 206              	.LBE138:
 207              	.LBE137:
 208              	.LBE136:
 209              	.LBB170:
 210              		.loc 1 142 0 discriminator 2
 211 00a2 1368     		ldr	r3, [r2]
 212 00a4 9D42     		cmp	r5, r3
 213 00a6 F6DA     		bge	.L8
 214              	.LVL12:
 215              	.LBB132:
 216              		.loc 1 144 0
 217 00a8 BAF804C0 		ldrh	ip, [r10, #4]
 218              	.LVL13:
 219              	.LBB122:
 220              	.LBB123:
 221              		.loc 1 89 0
 222 00ac 9DF80030 		ldrb	r3, [sp]	@ zero_extendqisi2
 223              	.LBE123:
 224              	.LBE122:
 225              	.LBB125:
 226              	.LBB118:
 227              	.LBB94:
 228              	.LBB95:
ARM GAS  C:\Users\eric\AppData\Local\Temp\ccyeDnt3.s 			page 5


 229              		.file 3 "../inc/utils/float_math.h"
 230              		.loc 3 825 0
 231 00b0 DFED7C6A 		vldr.32	s13, .L52+12
 232              	.LBE95:
 233              	.LBE94:
 234              	.LBE118:
 235              	.LBE125:
 236              	.LBB126:
 237              	.LBB124:
 238              		.loc 1 89 0
 239 00b4 281A     		subs	r0, r5, r0
 240              	.LVL14:
 241              		.loc 1 84 0
 242 00b6 4FEA1C2E 		lsr	lr, ip, #8
 243              	.LVL15:
 244              		.loc 1 89 0
 245 00ba 4010     		asrs	r0, r0, #1
 246 00bc 5FFA8CFC 		uxtb	ip, ip
 247              	.LVL16:
 248 00c0 03FB00C0 		mla	r0, r3, r0, ip
 249 00c4 FF23     		movs	r3, #255
 250 00c6 90FBF3F3 		sdiv	r3, r0, r3
 251              	.LVL17:
 252              		.loc 1 90 0
 253 00ca C3EB032C 		rsb	ip, r3, r3, lsl #8
 254              	.LVL18:
 255              		.loc 1 91 0
 256 00ce B0EB0C00 		subs	r0, r0, ip
 257              	.LVL19:
 258              		.loc 1 92 0
 259 00d2 48BF     		it	mi
 260 00d4 03F1FF33 		addmi	r3, r3, #-1
 261              	.LVL20:
 262              		.loc 1 98 0
 263 00d8 7344     		add	r3, r3, lr
 264              	.LVL21:
 265              		.loc 1 93 0
 266 00da 48BF     		it	mi
 267 00dc FF30     		addmi	r0, r0, #255
 268              	.LVL22:
 269              		.loc 1 100 0
 270 00de 40EA0320 		orr	r0, r0, r3, lsl #8
 271              	.LVL23:
 272 00e2 80B2     		uxth	r0, r0
 273              	.LVL24:
 274              	.LBE124:
 275              	.LBE126:
 276              		.loc 1 145 0
 277 00e4 0312     		asrs	r3, r0, #8
 278              	.LBB127:
 279              	.LBB119:
 280              	.LBB101:
 281              	.LBB90:
 282              		.loc 2 115 0
 283 00e6 962B     		cmp	r3, #150
 284 00e8 D8BF     		it	le
 285 00ea 9E46     		movle	lr, r3
ARM GAS  C:\Users\eric\AppData\Local\Temp\ccyeDnt3.s 			page 6


 286              	.LBE90:
 287              	.LBE101:
 288              	.LBE119:
 289              	.LBE127:
 290              		.loc 1 145 0
 291 00ec C0B2     		uxtb	r0, r0
 292              	.LVL25:
 293              	.LBB128:
 294              	.LBB120:
 295              		.loc 2 126 0
 296 00ee 03F10103 		add	r3, r3, #1
 297              	.LVL26:
 298 00f2 DBB2     		uxtb	r3, r3
 299              	.LVL27:
 300              	.LBB102:
 301              	.LBB96:
 302              		.loc 3 825 0
 303 00f4 07EE900A 		vmov	s15, r0	@ int
 304              	.LBE96:
 305              	.LBE102:
 306              	.LBB103:
 307              	.LBB91:
 308              		.loc 2 115 0
 309 00f8 C8BF     		it	gt
 310 00fa 4FF0970E 		movgt	lr, #151
 311              	.LVL28:
 312              	.LBE91:
 313              	.LBE103:
 314              	.LBB104:
 315              	.LBB105:
 316 00fe 962B     		cmp	r3, #150
 317 0100 88BF     		it	hi
 318 0102 9723     		movhi	r3, #151
 319              	.LBE105:
 320              	.LBE104:
 321              	.LBB107:
 322              	.LBB97:
 323              		.loc 3 825 0
 324 0104 F8EEE77A 		vcvt.f32.s32	s15, s15
 325              	.LBE97:
 326              	.LBE107:
 327              	.LBB108:
 328              	.LBB106:
 329              		.loc 2 115 0
 330 0108 01EB8303 		add	r3, r1, r3, lsl #2
 331              	.LBE106:
 332              	.LBE108:
 333              	.LBB109:
 334              	.LBB92:
 335 010c 0BEB8E0E 		add	lr, fp, lr, lsl #2
 336              	.LBE92:
 337              	.LBE109:
 338              	.LBB110:
 339              	.LBB98:
 340              		.loc 3 825 0
 341 0110 67EEA67A 		vmul.f32	s15, s15, s13
 342              	.LBE98:
ARM GAS  C:\Users\eric\AppData\Local\Temp\ccyeDnt3.s 			page 7


 343              	.LBE110:
 344              	.LBB111:
 345              	.LBB93:
 346              		.loc 2 115 0
 347 0114 9EED007A 		vldr.32	s14, [lr]
 348              	.LVL29:
 349              	.LBE93:
 350              	.LBE111:
 351              	.LBB112:
 352              	.LBB99:
 353              		.loc 3 825 0
 354 0118 D3ED006A 		vldr.32	s13, [r3]
 355              	.LBE99:
 356              	.LBE112:
 357              	.LBE120:
 358              	.LBE128:
 359              		.loc 1 146 0
 360 011c 019B     		ldr	r3, [sp, #4]
 361              	.LBB129:
 362              	.LBB121:
 363              	.LBB113:
 364              	.LBB100:
 365              		.loc 3 825 0
 366 011e 76EEC76A 		vsub.f32	s13, s13, s14
 367 0122 A7EEA67A 		vfma.f32	s14, s15, s13
 368              	.LVL30:
 369              	.LBE100:
 370              	.LBE113:
 371              	.LBB114:
 372              	.LBB115:
 373              	.LBB116:
 374              	.LBB117:
 375              		.loc 3 193 0
 376 0126 DFED607A 		vldr.32	s15, .L52+16
 377 012a B4EEE77A 		vcmpe.f32	s14, s15
 378 012e F1EE10FA 		vmrs	APSR_nzcv, FPSCR
 379 0132 B8BF     		it	lt
 380 0134 F0EE477A 		vmovlt.f32	s15, s14
 381              	.LVL31:
 382              	.LBE117:
 383              	.LBE116:
 384              	.LBE115:
 385              	.LBE114:
 386              	.LBE121:
 387              	.LBE129:
 388              		.loc 1 145 0
 389 0138 9FED5C7A 		vldr.32	s14, .L52+20
 390 013c 67EE877A 		vmul.f32	s15, s15, s14
 391 0140 C7ED007A 		vstr.32	s15, [r7]
 392              		.loc 1 146 0
 393 0144 6BB1     		cbz	r3, .L14
 394              		.loc 1 147 0
 395 0146 94F91D30 		ldrsb	r3, [r4, #29]
 396 014a 33B9     		cbnz	r3, .L34
 397 014c 0391     		str	r1, [sp, #12]
 398 014e 0292     		str	r2, [sp, #8]
 399              	.LBB130:
ARM GAS  C:\Users\eric\AppData\Local\Temp\ccyeDnt3.s 			page 8


 400              	.LBB131:
 401              		.loc 2 780 0
 402 0150 FFF7FEFF 		bl	_osc_white
 403              	.LVL32:
 404              	.LBE131:
 405              	.LBE130:
 406 0154 029A     		ldr	r2, [sp, #8]
 407 0156 0399     		ldr	r1, [sp, #12]
 408 0158 01E0     		b	.L15
 409              	.L34:
 410              		.loc 1 147 0
 411 015a 9FED550A 		vldr.32	s0, .L52+24
 412              	.L15:
 413              		.loc 1 147 0 is_stmt 0 discriminator 4
 414 015e 07ED010A 		vstr.32	s0, [r7, #-4]
 415              	.L14:
 416              	.LBE132:
 417              		.loc 1 142 0 is_stmt 1 discriminator 3
 418 0162 0135     		adds	r5, r5, #1
 419              	.LVL33:
 420 0164 0837     		adds	r7, r7, #8
 421 0166 92E7     		b	.L16
 422              	.LVL34:
 423              	.L51:
 424              	.LBE170:
 425              	.LBB171:
 426              	.LBB168:
 427              	.LBB146:
 428              		.loc 1 154 0 discriminator 2
 429 0168 8A42     		cmp	r2, r1
 430 016a 21DA     		bge	.L18
 431              	.LBB139:
 432              		.loc 1 155 0 discriminator 3
 433 016c 53ED017A 		vldr.32	s15, [r3, #-4]
 434              	.LVL35:
 435              	.LBB140:
 436              	.LBB141:
 437              		.loc 1 105 0 discriminator 3
 438 0170 002F     		cmp	r7, #0
 439 0172 72D1     		bne	.L19
 440              		.loc 1 106 0
 441 0174 39EEE77A 		vsub.f32	s14, s19, s15
 442 0178 B0EE666A 		vmov.f32	s12, s13
 443 017c A7EE246A 		vfma.f32	s12, s14, s9
 444 0180 B0EE467A 		vmov.f32	s14, s12
 445              	.L20:
 446              	.LVL36:
 447              	.LBE141:
 448              	.LBE140:
 449              		.loc 1 156 0
 450 0184 F8EE495A 		vcvt.f32.u32	s11, s18
 451              	.LBE139:
 452              		.loc 1 154 0
 453 0188 0132     		adds	r2, r2, #1
 454              	.LVL37:
 455              	.LBB144:
 456              		.loc 1 156 0
ARM GAS  C:\Users\eric\AppData\Local\Temp\ccyeDnt3.s 			page 9


 457 018a 89EEA56A 		vdiv.f32	s12, s19, s11
 458 018e 0833     		adds	r3, r3, #8
 459 0190 A6EE07BA 		vfma.f32	s22, s12, s14
 460              	.LVL38:
 461              		.loc 1 157 0
 462 0194 13ED027A 		vldr.32	s14, [r3, #-8]
 463 0198 77EE877A 		vadd.f32	s15, s15, s14
 464              	.LVL39:
 465              		.loc 1 158 0
 466 019c BCEEE77A 		vcvt.u32.f32	s14, s15
 467 01a0 B8EE477A 		vcvt.f32.u32	s14, s14
 468              	.LVL40:
 469              		.loc 1 159 0
 470 01a4 77EEC77A 		vsub.f32	s15, s15, s14
 471              	.LVL41:
 472 01a8 43ED037A 		vstr.32	s15, [r3, #-12]
 473              	.LVL42:
 474              	.L22:
 475              	.LBE144:
 476              		.loc 1 154 0 discriminator 4
 477 01ac 8242     		cmp	r2, r0
 478 01ae DBD1     		bne	.L51
 479              	.L18:
 480 01b0 0090     		str	r0, [sp]
 481              	.LBE146:
 482              		.loc 1 162 0
 483 01b2 D4ED06AA 		vldr.32	s21, [r4, #24]
 484              	.LBB147:
 485              	.LBB148:
 486              		.loc 2 780 0
 487 01b6 FFF7FEFF 		bl	_osc_white
 488              	.LVL43:
 489              	.LBE148:
 490              	.LBE147:
 491              		.loc 1 162 0
 492 01ba D4ED067A 		vldr.32	s15, [r4, #24]
 493 01be 9FED3D7A 		vldr.32	s14, .L52+28
 494              	.LBB149:
 495              	.LBB150:
 496              		.loc 1 113 0
 497 01c2 0098     		ldr	r0, [sp]
 498              	.LBE150:
 499              	.LBE149:
 500              		.loc 1 162 0
 501 01c4 20EE270A 		vmul.f32	s0, s0, s15
 502 01c8 7BEEEAAA 		vsub.f32	s21, s23, s21
 503              		.loc 1 163 0
 504 01cc D4ED087A 		vldr.32	s15, [r4, #32]
 505              		.loc 1 162 0
 506 01d0 ABEE2A0A 		vfma.f32	s0, s22, s21
 507              	.LVL44:
 508              	.LBB153:
 509              	.LBB151:
 510              		.loc 1 113 0
 511 01d4 B4EEE70A 		vcmpe.f32	s0, s15
 512 01d8 F1EE10FA 		vmrs	APSR_nzcv, FPSCR
 513 01dc 47DD     		ble	.L48
ARM GAS  C:\Users\eric\AppData\Local\Temp\ccyeDnt3.s 			page 10


 514              		.loc 1 114 0
 515 01de 30EE670A 		vsub.f32	s0, s0, s15
 516              	.LVL45:
 517 01e2 F0EE676A 		vmov.f32	s13, s15
 518 01e6 E0EE076A 		vfma.f32	s13, s0, s14
 519 01ea B0EE660A 		vmov.f32	s0, s13
 520              	.LVL46:
 521              	.L25:
 522              	.LBE151:
 523              	.LBE153:
 524              		.loc 1 164 0
 525 01ee 7BEEE76A 		vsub.f32	s13, s23, s15
 526 01f2 E6EE877A 		vfma.f32	s15, s13, s14
 527 01f6 80EE277A 		vdiv.f32	s14, s0, s15
 528              	.LBB154:
 529              	.LBB155:
 530              	.LBB156:
 531              	.LBB157:
 532              	.LBB158:
 533              	.LBB159:
 534              		.loc 3 193 0
 535 01fa FFEE007A 		vmov.f32	s15, #-1.0e+0
 536              	.LBE159:
 537              	.LBE158:
 538              	.LBE157:
 539              	.LBE156:
 540              	.LBE155:
 541              	.LBE154:
 542              		.loc 1 164 0
 543 01fe 27EE287A 		vmul.f32	s14, s14, s17
 544              	.LVL47:
 545              	.LBB165:
 546              	.LBB164:
 547              	.LBB163:
 548              	.LBB162:
 549              	.LBB161:
 550              	.LBB160:
 551              		.loc 3 193 0
 552 0202 B4EEE77A 		vcmpe.f32	s14, s15
 553 0206 F1EE10FA 		vmrs	APSR_nzcv, FPSCR
 554 020a 08DB     		blt	.L27
 555              	.LVL48:
 556 020c B4EEE97A 		vcmpe.f32	s14, s19
 557 0210 F1EE10FA 		vmrs	APSR_nzcv, FPSCR
 558 0214 B4BF     		ite	lt
 559 0216 F0EE477A 		vmovlt.f32	s15, s14
 560 021a F0EE697A 		vmovge.f32	s15, s19
 561              	.LVL49:
 562              	.L27:
 563              	.LBE160:
 564              	.LBE161:
 565              	.LBE162:
 566              	.LBE163:
 567              	.LBE164:
 568              	.LBE165:
 569              		.loc 1 165 0
 570 021e 27EEA77A 		vmul.f32	s14, s15, s15
ARM GAS  C:\Users\eric\AppData\Local\Temp\ccyeDnt3.s 			page 11


 571 0222 DFED256A 		vldr.32	s13, .L52+32
 572 0226 27EEC77A 		vnmul.f32	s14, s15, s14
 573              		.loc 1 166 0
 574 022a 3AEE08AA 		vadd.f32	s20, s20, s16
 575              	.LVL50:
 576              		.loc 1 165 0
 577 022e E7EE267A 		vfma.f32	s15, s14, s13
 578 0232 FEEEE07A 		vcvt.s32.f32	s15, s15, #31
 579 0236 E6EC017A 		vstmia.32	r6!, {s15}	@ int
 580              	.LVL51:
 581              	.L7:
 582              	.LBE168:
 583              		.loc 1 152 0
 584 023a 4645     		cmp	r6, r8
 585 023c 25D0     		beq	.L17
 586              	.LBB169:
 587              	.LBB166:
 588              		.loc 1 154 0 discriminator 4
 589 023e 2968     		ldr	r1, [r5]
 590              	.LBB145:
 591              		.loc 1 156 0 discriminator 4
 592 0240 94F91C70 		ldrsb	r7, [r4, #28]
 593 0244 154B     		ldr	r3, .L52+4
 594 0246 9FED1ABA 		vldr.32	s22, .L52+24
 595 024a 0022     		movs	r2, #0
 596              	.LBB143:
 597              	.LBB142:
 598              		.loc 1 108 0 discriminator 4
 599 024c B6EE005A 		vmov.f32	s10, #5.0e-1
 600 0250 FFEE006A 		vmov.f32	s13, #-1.0e+0
 601              		.loc 1 106 0 discriminator 4
 602 0254 F0EE004A 		vmov.f32	s9, #2.0e+0
 603 0258 A8E7     		b	.L22
 604              	.LVL52:
 605              	.L19:
 606              		.loc 1 108 0
 607 025a F4EEC57A 		vcmpe.f32	s15, s10
 608 025e F1EE10FA 		vmrs	APSR_nzcv, FPSCR
 609 0262 D4BF     		ite	le
 610 0264 B0EE697A 		vmovle.f32	s14, s19
 611 0268 B0EE667A 		vmovgt.f32	s14, s13
 612 026c 8AE7     		b	.L20
 613              	.LVL53:
 614              	.L48:
 615              	.LBE142:
 616              	.LBE143:
 617              	.LBE145:
 618              	.LBE166:
 619              	.LBB167:
 620              	.LBB152:
 621              		.loc 1 115 0
 622 026e F1EE676A 		vneg.f32	s13, s15
 623 0272 B4EEE60A 		vcmpe.f32	s0, s13
 624 0276 F1EE10FA 		vmrs	APSR_nzcv, FPSCR
 625              		.loc 1 116 0
 626 027a 42BF     		ittt	mi
 627 027c 30EE270A 		vaddmi.f32	s0, s0, s15
ARM GAS  C:\Users\eric\AppData\Local\Temp\ccyeDnt3.s 			page 12


 628              	.LVL54:
 629 0280 E0EE076A 		vfmami.f32	s13, s0, s14
 630 0284 B0EE660A 		vmovmi.f32	s0, s13
 631              	.LVL55:
 632 0288 B1E7     		b	.L25
 633              	.LVL56:
 634              	.L17:
 635              	.LBE152:
 636              	.LBE167:
 637              	.LBE169:
 638              	.LBE171:
 639              		.loc 1 169 0
 640 028a 84ED02AA 		vstr.32	s20, [r4, #8]
 641              		.loc 1 170 0
 642 028e 05B0     		add	sp, sp, #20
 643              		.cfi_def_cfa_offset 68
 644              		@ sp needed
 645 0290 BDEC088B 		vldm	sp!, {d8-d11}
 646              		.cfi_restore 86
 647              		.cfi_restore 87
 648              		.cfi_restore 84
 649              		.cfi_restore 85
 650              		.cfi_restore 82
 651              		.cfi_restore 83
 652              		.cfi_restore 80
 653              		.cfi_restore 81
 654              		.cfi_def_cfa_offset 36
 655              	.LVL57:
 656 0294 BDE8F08F 		pop	{r4, r5, r6, r7, r8, r9, r10, fp, pc}
 657              	.LVL58:
 658              	.L53:
 659              		.align	2
 660              	.L52:
 661 0298 00000000 		.word	.LANCHOR0
 662 029c 28000000 		.word	.LANCHOR0+40
 663 02a0 00000000 		.word	.LANCHOR1
 664 02a4 8180803B 		.word	998277249
 665 02a8 49FFB846 		.word	1186529097
 666 02ac 3EC3AE37 		.word	934200126
 667 02b0 00000000 		.word	0
 668 02b4 CDCC4C3E 		.word	1045220557
 669 02b8 CDCC4C3D 		.word	1028443341
 670 02bc 00000000 		.word	midi_to_hz_lut_f
 671              		.cfi_endproc
 672              	.LFE243:
 673              		.size	_hook_cycle, .-_hook_cycle
 674              		.align	1
 675              		.global	_hook_on
 676              		.thumb
 677              		.thumb_func
 678              		.type	_hook_on, %function
 679              	_hook_on:
 680              	.LFB244:
 681              		.loc 1 173 0
 682              		.cfi_startproc
 683              		@ args = 0, pretend = 0, frame = 0
 684              		@ frame_needed = 0, uses_anonymous_args = 0
ARM GAS  C:\Users\eric\AppData\Local\Temp\ccyeDnt3.s 			page 13


 685              		@ link register save eliminated.
 686              	.LVL59:
 687              		.loc 1 174 0
 688 02c0 024A     		ldr	r2, .L55
 689 02c2 137B     		ldrb	r3, [r2, #12]	@ zero_extendqisi2
 690 02c4 43F00103 		orr	r3, r3, #1
 691 02c8 1373     		strb	r3, [r2, #12]
 692 02ca 7047     		bx	lr
 693              	.L56:
 694              		.align	2
 695              	.L55:
 696 02cc 00000000 		.word	.LANCHOR0
 697              		.cfi_endproc
 698              	.LFE244:
 699              		.size	_hook_on, .-_hook_on
 700              		.align	1
 701              		.global	_hook_off
 702              		.thumb
 703              		.thumb_func
 704              		.type	_hook_off, %function
 705              	_hook_off:
 706              	.LFB245:
 707              		.loc 1 178 0
 708              		.cfi_startproc
 709              		@ args = 0, pretend = 0, frame = 0
 710              		@ frame_needed = 0, uses_anonymous_args = 0
 711              		@ link register save eliminated.
 712              	.LVL60:
 713 02d0 7047     		bx	lr
 714              		.cfi_endproc
 715              	.LFE245:
 716              		.size	_hook_off, .-_hook_off
 717              		.align	1
 718              		.global	_hook_param
 719              		.thumb
 720              		.thumb_func
 721              		.type	_hook_param, %function
 722              	_hook_param:
 723              	.LFB246:
 724              		.loc 1 183 0
 725              		.cfi_startproc
 726              		@ args = 0, pretend = 0, frame = 0
 727              		@ frame_needed = 0, uses_anonymous_args = 0
 728              		@ link register save eliminated.
 729              	.LVL61:
 730              		.loc 1 184 0
 731 02d2 07EE901A 		vmov	s15, r1	@ int
 732 02d6 F8EEE77A 		vcvt.f32.s32	s15, s15
 733              	.LVL62:
 734              		.loc 1 186 0
 735 02da 0528     		cmp	r0, #5
 736 02dc 21D8     		bhi	.L58
 737 02de DFE800F0 		tbb	[pc, r0]
 738              	.L61:
 739 02e2 03       		.byte	(.L60-.L61)/2
 740 02e3 07       		.byte	(.L62-.L61)/2
 741 02e4 0B       		.byte	(.L63-.L61)/2
ARM GAS  C:\Users\eric\AppData\Local\Temp\ccyeDnt3.s 			page 14


 742 02e5 13       		.byte	(.L64-.L61)/2
 743 02e6 16       		.byte	(.L65-.L61)/2
 744 02e7 19       		.byte	(.L66-.L61)/2
 745              		.p2align 1
 746              	.L60:
 747              		.loc 1 188 0
 748 02e8 0E4B     		ldr	r3, .L67
 749 02ea 0131     		adds	r1, r1, #1
 750              	.LVL63:
 751 02ec 1961     		str	r1, [r3, #16]
 752              		.loc 1 189 0
 753 02ee 7047     		bx	lr
 754              	.LVL64:
 755              	.L62:
 756              		.loc 1 191 0
 757 02f0 0C4B     		ldr	r3, .L67
 758 02f2 0131     		adds	r1, r1, #1
 759              	.LVL65:
 760 02f4 5961     		str	r1, [r3, #20]
 761              		.loc 1 192 0
 762 02f6 7047     		bx	lr
 763              	.LVL66:
 764              	.L63:
 765              		.loc 1 194 0
 766 02f8 DFED0B6A 		vldr.32	s13, .L67+4
 767 02fc 094B     		ldr	r3, .L67
 768 02fe 87EEA67A 		vdiv.f32	s14, s15, s13
 769 0302 83ED067A 		vstr.32	s14, [r3, #24]
 770              		.loc 1 195 0
 771 0306 7047     		bx	lr
 772              	.L64:
 773              		.loc 1 197 0
 774 0308 064B     		ldr	r3, .L67
 775 030a 1977     		strb	r1, [r3, #28]
 776              		.loc 1 198 0
 777 030c 7047     		bx	lr
 778              	.L65:
 779              		.loc 1 200 0
 780 030e 054B     		ldr	r3, .L67
 781 0310 5977     		strb	r1, [r3, #29]
 782              		.loc 1 201 0
 783 0312 7047     		bx	lr
 784              	.L66:
 785              		.loc 1 203 0
 786 0314 DFED046A 		vldr.32	s13, .L67+4
 787 0318 024B     		ldr	r3, .L67
 788 031a 87EEA67A 		vdiv.f32	s14, s15, s13
 789 031e 83ED087A 		vstr.32	s14, [r3, #32]
 790              	.L58:
 791 0322 7047     		bx	lr
 792              	.L68:
 793              		.align	2
 794              	.L67:
 795 0324 00000000 		.word	.LANCHOR0
 796 0328 0000C842 		.word	1120403456
 797              		.cfi_endproc
 798              	.LFE246:
ARM GAS  C:\Users\eric\AppData\Local\Temp\ccyeDnt3.s 			page 15


 799              		.size	_hook_param, .-_hook_param
 800              		.global	instances
 801              		.global	maxVoice
 802              		.data
 803              		.align	2
 804              		.set	.LANCHOR1,. + 0
 805              		.type	maxVoice, %object
 806              		.size	maxVoice, 4
 807              	maxVoice:
 808 0000 0C000000 		.word	12
 809              		.bss
 810              		.align	2
 811              		.set	.LANCHOR0,. + 0
 812              		.type	_ZL7s_state, %object
 813              		.size	_ZL7s_state, 36
 814              	_ZL7s_state:
 815 0000 00000000 		.space	36
 815      00000000 
 815      00000000 
 815      00000000 
 815      00000000 
 816              		.type	instances, %object
 817              		.size	instances, 96
 818              	instances:
 819 0024 00000000 		.space	96
 819      00000000 
 819      00000000 
 819      00000000 
 819      00000000 
 820              		.text
 821              	.Letext0:
 822              		.file 4 "c:\\users\\eric\\logue-sdk\\tools\\gcc\\gcc-arm-none-eabi-5_4-2016q3\\arm-none-eabi\\incl
 823              		.file 5 "c:\\users\\eric\\logue-sdk\\tools\\gcc\\gcc-arm-none-eabi-5_4-2016q3\\arm-none-eabi\\incl
 824              		.file 6 "../../ext/CMSIS/CMSIS/Include/arm_math.h"
 825              		.file 7 "../inc/userosc.h"
 826              		.file 8 "../inc/userprg.h"
 827              		.file 9 "../inc/utils/int_math.h"
 828              		.section	.debug_info,"",%progbits
 829              	.Ldebug_info0:
 830 0000 260B0000 		.4byte	0xb26
 831 0004 0400     		.2byte	0x4
 832 0006 00000000 		.4byte	.Ldebug_abbrev0
 833 000a 04       		.byte	0x4
 834 000b 01       		.uleb128 0x1
 835 000c 3C000000 		.4byte	.LASF111
 836 0010 04       		.byte	0x4
 837 0011 95050000 		.4byte	.LASF112
 838 0015 36020000 		.4byte	.LASF113
 839 0019 00000000 		.4byte	.Ltext0
 840 001d 2C030000 		.4byte	.Letext0-.Ltext0
 841 0021 00000000 		.4byte	.Ldebug_line0
 842 0025 02       		.uleb128 0x2
 843 0026 04       		.byte	0x4
 844 0027 04       		.byte	0x4
 845 0028 D7020000 		.4byte	.LASF0
 846 002c 03       		.uleb128 0x3
 847 002d 04       		.byte	0x4
ARM GAS  C:\Users\eric\AppData\Local\Temp\ccyeDnt3.s 			page 16


 848 002e 05       		.byte	0x5
 849 002f 696E7400 		.ascii	"int\000"
 850 0033 04       		.uleb128 0x4
 851 0034 68040000 		.4byte	.LASF2
 852 0038 04       		.byte	0x4
 853 0039 1B       		.byte	0x1b
 854 003a 3E000000 		.4byte	0x3e
 855 003e 02       		.uleb128 0x2
 856 003f 01       		.byte	0x1
 857 0040 06       		.byte	0x6
 858 0041 41060000 		.4byte	.LASF1
 859 0045 04       		.uleb128 0x4
 860 0046 62050000 		.4byte	.LASF3
 861 004a 04       		.byte	0x4
 862 004b 1D       		.byte	0x1d
 863 004c 50000000 		.4byte	0x50
 864 0050 02       		.uleb128 0x2
 865 0051 01       		.byte	0x1
 866 0052 08       		.byte	0x8
 867 0053 E1050000 		.4byte	.LASF4
 868 0057 02       		.uleb128 0x2
 869 0058 02       		.byte	0x2
 870 0059 05       		.byte	0x5
 871 005a C9040000 		.4byte	.LASF5
 872 005e 04       		.uleb128 0x4
 873 005f 18030000 		.4byte	.LASF6
 874 0063 04       		.byte	0x4
 875 0064 2B       		.byte	0x2b
 876 0065 69000000 		.4byte	0x69
 877 0069 02       		.uleb128 0x2
 878 006a 02       		.byte	0x2
 879 006b 07       		.byte	0x7
 880 006c 4D060000 		.4byte	.LASF7
 881 0070 04       		.uleb128 0x4
 882 0071 74010000 		.4byte	.LASF8
 883 0075 04       		.byte	0x4
 884 0076 3F       		.byte	0x3f
 885 0077 7B000000 		.4byte	0x7b
 886 007b 02       		.uleb128 0x2
 887 007c 04       		.byte	0x4
 888 007d 05       		.byte	0x5
 889 007e FF040000 		.4byte	.LASF9
 890 0082 04       		.uleb128 0x4
 891 0083 EF050000 		.4byte	.LASF10
 892 0087 04       		.byte	0x4
 893 0088 41       		.byte	0x41
 894 0089 8D000000 		.4byte	0x8d
 895 008d 02       		.uleb128 0x2
 896 008e 04       		.byte	0x4
 897 008f 07       		.byte	0x7
 898 0090 B1050000 		.4byte	.LASF11
 899 0094 02       		.uleb128 0x2
 900 0095 08       		.byte	0x8
 901 0096 05       		.byte	0x5
 902 0097 0B040000 		.4byte	.LASF12
 903 009b 02       		.uleb128 0x2
 904 009c 08       		.byte	0x8
ARM GAS  C:\Users\eric\AppData\Local\Temp\ccyeDnt3.s 			page 17


 905 009d 07       		.byte	0x7
 906 009e F7020000 		.4byte	.LASF13
 907 00a2 02       		.uleb128 0x2
 908 00a3 04       		.byte	0x4
 909 00a4 07       		.byte	0x7
 910 00a5 54010000 		.4byte	.LASF14
 911 00a9 04       		.uleb128 0x4
 912 00aa BA020000 		.4byte	.LASF15
 913 00ae 05       		.byte	0x5
 914 00af 14       		.byte	0x14
 915 00b0 33000000 		.4byte	0x33
 916 00b4 04       		.uleb128 0x4
 917 00b5 D2030000 		.4byte	.LASF16
 918 00b9 05       		.byte	0x5
 919 00ba 18       		.byte	0x18
 920 00bb 45000000 		.4byte	0x45
 921 00bf 04       		.uleb128 0x4
 922 00c0 8F040000 		.4byte	.LASF17
 923 00c4 05       		.byte	0x5
 924 00c5 24       		.byte	0x24
 925 00c6 5E000000 		.4byte	0x5e
 926 00ca 04       		.uleb128 0x4
 927 00cb D1050000 		.4byte	.LASF18
 928 00cf 05       		.byte	0x5
 929 00d0 2C       		.byte	0x2c
 930 00d1 70000000 		.4byte	0x70
 931 00d5 04       		.uleb128 0x4
 932 00d6 B1020000 		.4byte	.LASF19
 933 00da 05       		.byte	0x5
 934 00db 30       		.byte	0x30
 935 00dc 82000000 		.4byte	0x82
 936 00e0 02       		.uleb128 0x2
 937 00e1 08       		.byte	0x8
 938 00e2 04       		.byte	0x4
 939 00e3 83040000 		.4byte	.LASF20
 940 00e7 05       		.uleb128 0x5
 941 00e8 0F060000 		.4byte	.LASF114
 942 00ec 02       		.uleb128 0x2
 943 00ed 04       		.byte	0x4
 944 00ee 07       		.byte	0x7
 945 00ef A8050000 		.4byte	.LASF21
 946 00f3 02       		.uleb128 0x2
 947 00f4 01       		.byte	0x1
 948 00f5 08       		.byte	0x8
 949 00f6 8B030000 		.4byte	.LASF22
 950 00fa 02       		.uleb128 0x2
 951 00fb 08       		.byte	0x8
 952 00fc 04       		.byte	0x4
 953 00fd 82060000 		.4byte	.LASF23
 954 0101 06       		.uleb128 0x6
 955 0102 A2050000 		.4byte	.LASF24
 956 0106 06       		.byte	0x6
 957 0107 8D01     		.2byte	0x18d
 958 0109 CA000000 		.4byte	0xca
 959 010d 07       		.uleb128 0x7
 960 010e 04       		.byte	0x4
 961 010f 01010000 		.4byte	0x101
ARM GAS  C:\Users\eric\AppData\Local\Temp\ccyeDnt3.s 			page 18


 962 0113 07       		.uleb128 0x7
 963 0114 04       		.byte	0x4
 964 0115 19010000 		.4byte	0x119
 965 0119 08       		.uleb128 0x8
 966 011a 01010000 		.4byte	0x101
 967 011e 07       		.uleb128 0x7
 968 011f 04       		.byte	0x4
 969 0120 CA000000 		.4byte	0xca
 970 0124 09       		.uleb128 0x9
 971 0125 01       		.byte	0x1
 972 0126 50000000 		.4byte	0x50
 973 012a 08       		.byte	0x8
 974 012b 35       		.byte	0x35
 975 012c 55010000 		.4byte	0x155
 976 0130 0A       		.uleb128 0xa
 977 0131 FA050000 		.4byte	.LASF25
 978 0135 00       		.byte	0
 979 0136 0A       		.uleb128 0xa
 980 0137 08050000 		.4byte	.LASF26
 981 013b 01       		.byte	0x1
 982 013c 0A       		.uleb128 0xa
 983 013d E3020000 		.4byte	.LASF27
 984 0141 02       		.byte	0x2
 985 0142 0A       		.uleb128 0xa
 986 0143 4D030000 		.4byte	.LASF28
 987 0147 03       		.byte	0x3
 988 0148 0A       		.uleb128 0xa
 989 0149 71040000 		.4byte	.LASF29
 990 014d 04       		.byte	0x4
 991 014e 0A       		.uleb128 0xa
 992 014f 3F040000 		.4byte	.LASF30
 993 0153 05       		.byte	0x5
 994 0154 00       		.byte	0
 995 0155 0B       		.uleb128 0xb
 996 0156 2C030000 		.4byte	.LASF47
 997 015a 10       		.byte	0x10
 998 015b 07       		.byte	0x7
 999 015c 3C       		.byte	0x3c
 1000 015d 9E010000 		.4byte	0x19e
 1001 0161 0C       		.uleb128 0xc
 1002 0162 89060000 		.4byte	.LASF31
 1003 0166 07       		.byte	0x7
 1004 0167 3E       		.byte	0x3e
 1005 0168 CA000000 		.4byte	0xca
 1006 016c 00       		.byte	0
 1007 016d 0C       		.uleb128 0xc
 1008 016e 90010000 		.4byte	.LASF32
 1009 0172 07       		.byte	0x7
 1010 0173 40       		.byte	0x40
 1011 0174 BF000000 		.4byte	0xbf
 1012 0178 04       		.byte	0x4
 1013 0179 0C       		.uleb128 0xc
 1014 017a 84030000 		.4byte	.LASF33
 1015 017e 07       		.byte	0x7
 1016 017f 42       		.byte	0x42
 1017 0180 BF000000 		.4byte	0xbf
 1018 0184 06       		.byte	0x6
ARM GAS  C:\Users\eric\AppData\Local\Temp\ccyeDnt3.s 			page 19


 1019 0185 0C       		.uleb128 0xc
 1020 0186 35040000 		.4byte	.LASF34
 1021 018a 07       		.byte	0x7
 1022 018b 44       		.byte	0x44
 1023 018c BF000000 		.4byte	0xbf
 1024 0190 08       		.byte	0x8
 1025 0191 0C       		.uleb128 0xc
 1026 0192 58050000 		.4byte	.LASF35
 1027 0196 07       		.byte	0x7
 1028 0197 45       		.byte	0x45
 1029 0198 9E010000 		.4byte	0x19e
 1030 019c 0A       		.byte	0xa
 1031 019d 00       		.byte	0
 1032 019e 0D       		.uleb128 0xd
 1033 019f BF000000 		.4byte	0xbf
 1034 01a3 AE010000 		.4byte	0x1ae
 1035 01a7 0E       		.uleb128 0xe
 1036 01a8 EC000000 		.4byte	0xec
 1037 01ac 02       		.byte	0x2
 1038 01ad 00       		.byte	0
 1039 01ae 04       		.uleb128 0x4
 1040 01af 71060000 		.4byte	.LASF36
 1041 01b3 07       		.byte	0x7
 1042 01b4 46       		.byte	0x46
 1043 01b5 55010000 		.4byte	0x155
 1044 01b9 0F       		.uleb128 0xf
 1045 01ba 01       		.byte	0x1
 1046 01bb 50000000 		.4byte	0x50
 1047 01bf 07       		.byte	0x7
 1048 01c0 4B       		.byte	0x4b
 1049 01c1 33050000 		.4byte	.LASF115
 1050 01c5 00020000 		.4byte	0x200
 1051 01c9 0A       		.uleb128 0xa
 1052 01ca B0010000 		.4byte	.LASF37
 1053 01ce 00       		.byte	0
 1054 01cf 0A       		.uleb128 0xa
 1055 01d0 C5010000 		.4byte	.LASF38
 1056 01d4 01       		.byte	0x1
 1057 01d5 0A       		.uleb128 0xa
 1058 01d6 DA010000 		.4byte	.LASF39
 1059 01da 02       		.byte	0x2
 1060 01db 0A       		.uleb128 0xa
 1061 01dc EF010000 		.4byte	.LASF40
 1062 01e0 03       		.byte	0x3
 1063 01e1 0A       		.uleb128 0xa
 1064 01e2 04020000 		.4byte	.LASF41
 1065 01e6 04       		.byte	0x4
 1066 01e7 0A       		.uleb128 0xa
 1067 01e8 19020000 		.4byte	.LASF42
 1068 01ec 05       		.byte	0x5
 1069 01ed 0A       		.uleb128 0xa
 1070 01ee 1C050000 		.4byte	.LASF43
 1071 01f2 06       		.byte	0x6
 1072 01f3 0A       		.uleb128 0xa
 1073 01f4 A2040000 		.4byte	.LASF44
 1074 01f8 07       		.byte	0x7
 1075 01f9 0A       		.uleb128 0xa
ARM GAS  C:\Users\eric\AppData\Local\Temp\ccyeDnt3.s 			page 20


 1076 01fa 69020000 		.4byte	.LASF45
 1077 01fe 08       		.byte	0x8
 1078 01ff 00       		.byte	0
 1079 0200 04       		.uleb128 0x4
 1080 0201 96010000 		.4byte	.LASF46
 1081 0205 07       		.byte	0x7
 1082 0206 5D       		.byte	0x5d
 1083 0207 B9010000 		.4byte	0x1b9
 1084 020b 07       		.uleb128 0x7
 1085 020c 04       		.byte	0x4
 1086 020d 11020000 		.4byte	0x211
 1087 0211 08       		.uleb128 0x8
 1088 0212 AE010000 		.4byte	0x1ae
 1089 0216 0B       		.uleb128 0xb
 1090 0217 AA010000 		.4byte	.LASF48
 1091 021b 24       		.byte	0x24
 1092 021c 01       		.byte	0x1
 1093 021d 2B       		.byte	0x2b
 1094 021e 9B020000 		.4byte	0x29b
 1095 0222 0C       		.uleb128 0xc
 1096 0223 75030000 		.4byte	.LASF49
 1097 0227 01       		.byte	0x1
 1098 0228 2C       		.byte	0x2c
 1099 0229 25000000 		.4byte	0x25
 1100 022d 00       		.byte	0
 1101 022e 10       		.uleb128 0x10
 1102 022f 6C666F00 		.ascii	"lfo\000"
 1103 0233 01       		.byte	0x1
 1104 0234 2D       		.byte	0x2d
 1105 0235 25000000 		.4byte	0x25
 1106 0239 04       		.byte	0x4
 1107 023a 0C       		.uleb128 0xc
 1108 023b 49050000 		.4byte	.LASF50
 1109 023f 01       		.byte	0x1
 1110 0240 2D       		.byte	0x2d
 1111 0241 25000000 		.4byte	0x25
 1112 0245 08       		.byte	0x8
 1113 0246 0C       		.uleb128 0xc
 1114 0247 2D000000 		.4byte	.LASF51
 1115 024b 01       		.byte	0x1
 1116 024c 2E       		.byte	0x2e
 1117 024d B4000000 		.4byte	0xb4
 1118 0251 0C       		.byte	0xc
 1119 0252 0C       		.uleb128 0xc
 1120 0253 26000000 		.4byte	.LASF52
 1121 0257 01       		.byte	0x1
 1122 0258 2F       		.byte	0x2f
 1123 0259 CA000000 		.4byte	0xca
 1124 025d 10       		.byte	0x10
 1125 025e 0C       		.uleb128 0xc
 1126 025f 2E040000 		.4byte	.LASF53
 1127 0263 01       		.byte	0x1
 1128 0264 30       		.byte	0x30
 1129 0265 CA000000 		.4byte	0xca
 1130 0269 14       		.byte	0x14
 1131 026a 0C       		.uleb128 0xc
 1132 026b 36060000 		.4byte	.LASF54
ARM GAS  C:\Users\eric\AppData\Local\Temp\ccyeDnt3.s 			page 21


 1133 026f 01       		.byte	0x1
 1134 0270 31       		.byte	0x31
 1135 0271 25000000 		.4byte	0x25
 1136 0275 18       		.byte	0x18
 1137 0276 0C       		.uleb128 0xc
 1138 0277 9C030000 		.4byte	.LASF55
 1139 027b 01       		.byte	0x1
 1140 027c 32       		.byte	0x32
 1141 027d A9000000 		.4byte	0xa9
 1142 0281 1C       		.byte	0x1c
 1143 0282 0C       		.uleb128 0xc
 1144 0283 98040000 		.4byte	.LASF56
 1145 0287 01       		.byte	0x1
 1146 0288 33       		.byte	0x33
 1147 0289 A9000000 		.4byte	0xa9
 1148 028d 1D       		.byte	0x1d
 1149 028e 0C       		.uleb128 0xc
 1150 028f E6030000 		.4byte	.LASF57
 1151 0293 01       		.byte	0x1
 1152 0294 34       		.byte	0x34
 1153 0295 25000000 		.4byte	0x25
 1154 0299 20       		.byte	0x20
 1155 029a 00       		.byte	0
 1156 029b 04       		.uleb128 0x4
 1157 029c AA010000 		.4byte	.LASF48
 1158 02a0 01       		.byte	0x1
 1159 02a1 35       		.byte	0x35
 1160 02a2 16020000 		.4byte	0x216
 1161 02a6 0B       		.uleb128 0xb
 1162 02a7 7B030000 		.4byte	.LASF58
 1163 02ab 08       		.byte	0x8
 1164 02ac 01       		.byte	0x1
 1165 02ad 39       		.byte	0x39
 1166 02ae CA020000 		.4byte	0x2ca
 1167 02b2 0C       		.uleb128 0xc
 1168 02b3 20000000 		.4byte	.LASF59
 1169 02b7 01       		.byte	0x1
 1170 02b8 3A       		.byte	0x3a
 1171 02b9 25000000 		.4byte	0x25
 1172 02bd 00       		.byte	0
 1173 02be 10       		.uleb128 0x10
 1174 02bf 773000   		.ascii	"w0\000"
 1175 02c2 01       		.byte	0x1
 1176 02c3 3B       		.byte	0x3b
 1177 02c4 25000000 		.4byte	0x25
 1178 02c8 04       		.byte	0x4
 1179 02c9 00       		.byte	0
 1180 02ca 09       		.uleb128 0x9
 1181 02cb 01       		.byte	0x1
 1182 02cc 50000000 		.4byte	0x50
 1183 02d0 01       		.byte	0x1
 1184 02d1 41       		.byte	0x41
 1185 02d2 E3020000 		.4byte	0x2e3
 1186 02d6 0A       		.uleb128 0xa
 1187 02d7 A5030000 		.4byte	.LASF60
 1188 02db 00       		.byte	0
 1189 02dc 0A       		.uleb128 0xa
ARM GAS  C:\Users\eric\AppData\Local\Temp\ccyeDnt3.s 			page 22


 1190 02dd 19040000 		.4byte	.LASF61
 1191 02e1 01       		.byte	0x1
 1192 02e2 00       		.byte	0
 1193 02e3 11       		.uleb128 0x11
 1194 02e4 7E050000 		.4byte	.LASF62
 1195 02e8 03       		.byte	0x3
 1196 02e9 C0       		.byte	0xc0
 1197 02ea 25000000 		.4byte	0x25
 1198 02ee 03       		.byte	0x3
 1199 02ef 0F030000 		.4byte	0x30f
 1200 02f3 12       		.uleb128 0x12
 1201 02f4 6100     		.ascii	"a\000"
 1202 02f6 03       		.byte	0x3
 1203 02f7 C0       		.byte	0xc0
 1204 02f8 0F030000 		.4byte	0x30f
 1205 02fc 12       		.uleb128 0x12
 1206 02fd 6200     		.ascii	"b\000"
 1207 02ff 03       		.byte	0x3
 1208 0300 C0       		.byte	0xc0
 1209 0301 0F030000 		.4byte	0x30f
 1210 0305 12       		.uleb128 0x12
 1211 0306 6300     		.ascii	"c\000"
 1212 0308 03       		.byte	0x3
 1213 0309 C0       		.byte	0xc0
 1214 030a 0F030000 		.4byte	0x30f
 1215 030e 00       		.byte	0
 1216 030f 08       		.uleb128 0x8
 1217 0310 25000000 		.4byte	0x25
 1218 0314 13       		.uleb128 0x13
 1219 0315 A7060000 		.4byte	.LASF63
 1220 0319 03       		.byte	0x3
 1221 031a 4901     		.2byte	0x149
 1222 031c 25000000 		.4byte	0x25
 1223 0320 03       		.byte	0x3
 1224 0321 3C030000 		.4byte	0x33c
 1225 0325 14       		.uleb128 0x14
 1226 0326 7800     		.ascii	"x\000"
 1227 0328 03       		.byte	0x3
 1228 0329 4901     		.2byte	0x149
 1229 032b 0F030000 		.4byte	0x30f
 1230 032f 14       		.uleb128 0x14
 1231 0330 6D617800 		.ascii	"max\000"
 1232 0334 03       		.byte	0x3
 1233 0335 4901     		.2byte	0x149
 1234 0337 0F030000 		.4byte	0x30f
 1235 033b 00       		.byte	0
 1236 033c 13       		.uleb128 0x13
 1237 033d A7020000 		.4byte	.LASF64
 1238 0341 03       		.byte	0x3
 1239 0342 3C01     		.2byte	0x13c
 1240 0344 25000000 		.4byte	0x25
 1241 0348 03       		.byte	0x3
 1242 0349 70030000 		.4byte	0x370
 1243 034d 14       		.uleb128 0x14
 1244 034e 6D696E00 		.ascii	"min\000"
 1245 0352 03       		.byte	0x3
 1246 0353 3C01     		.2byte	0x13c
ARM GAS  C:\Users\eric\AppData\Local\Temp\ccyeDnt3.s 			page 23


 1247 0355 0F030000 		.4byte	0x30f
 1248 0359 14       		.uleb128 0x14
 1249 035a 7800     		.ascii	"x\000"
 1250 035c 03       		.byte	0x3
 1251 035d 3C01     		.2byte	0x13c
 1252 035f 25000000 		.4byte	0x25
 1253 0363 14       		.uleb128 0x14
 1254 0364 6D617800 		.ascii	"max\000"
 1255 0368 03       		.byte	0x3
 1256 0369 3C01     		.2byte	0x13c
 1257 036b 0F030000 		.4byte	0x30f
 1258 036f 00       		.byte	0
 1259 0370 11       		.uleb128 0x11
 1260 0371 52040000 		.4byte	.LASF65
 1261 0375 09       		.byte	0x9
 1262 0376 54       		.byte	0x54
 1263 0377 D5000000 		.4byte	0xd5
 1264 037b 03       		.byte	0x3
 1265 037c 93030000 		.4byte	0x393
 1266 0380 12       		.uleb128 0x12
 1267 0381 7800     		.ascii	"x\000"
 1268 0383 09       		.byte	0x9
 1269 0384 54       		.byte	0x54
 1270 0385 93030000 		.4byte	0x393
 1271 0389 12       		.uleb128 0x12
 1272 038a 6D00     		.ascii	"m\000"
 1273 038c 09       		.byte	0x9
 1274 038d 54       		.byte	0x54
 1275 038e 93030000 		.4byte	0x393
 1276 0392 00       		.byte	0
 1277 0393 08       		.uleb128 0x8
 1278 0394 D5000000 		.4byte	0xd5
 1279 0398 13       		.uleb128 0x13
 1280 0399 02040000 		.4byte	.LASF66
 1281 039d 03       		.byte	0x3
 1282 039e 8501     		.2byte	0x185
 1283 03a0 25000000 		.4byte	0x25
 1284 03a4 03       		.byte	0x3
 1285 03a5 BE030000 		.4byte	0x3be
 1286 03a9 14       		.uleb128 0x14
 1287 03aa 7800     		.ascii	"x\000"
 1288 03ac 03       		.byte	0x3
 1289 03ad 8501     		.2byte	0x185
 1290 03af 0F030000 		.4byte	0x30f
 1291 03b3 14       		.uleb128 0x14
 1292 03b4 6D00     		.ascii	"m\000"
 1293 03b6 03       		.byte	0x3
 1294 03b7 8501     		.2byte	0x185
 1295 03b9 0F030000 		.4byte	0x30f
 1296 03bd 00       		.byte	0
 1297 03be 13       		.uleb128 0x13
 1298 03bf D9050000 		.4byte	.LASF67
 1299 03c3 03       		.byte	0x3
 1300 03c4 3803     		.2byte	0x338
 1301 03c6 25000000 		.4byte	0x25
 1302 03ca 03       		.byte	0x3
 1303 03cb F1030000 		.4byte	0x3f1
ARM GAS  C:\Users\eric\AppData\Local\Temp\ccyeDnt3.s 			page 24


 1304 03cf 14       		.uleb128 0x14
 1305 03d0 667200   		.ascii	"fr\000"
 1306 03d3 03       		.byte	0x3
 1307 03d4 3803     		.2byte	0x338
 1308 03d6 0F030000 		.4byte	0x30f
 1309 03da 14       		.uleb128 0x14
 1310 03db 783000   		.ascii	"x0\000"
 1311 03de 03       		.byte	0x3
 1312 03df 3803     		.2byte	0x338
 1313 03e1 0F030000 		.4byte	0x30f
 1314 03e5 14       		.uleb128 0x14
 1315 03e6 783100   		.ascii	"x1\000"
 1316 03e9 03       		.byte	0x3
 1317 03ea 3803     		.2byte	0x338
 1318 03ec 0F030000 		.4byte	0x30f
 1319 03f0 00       		.byte	0
 1320 03f1 11       		.uleb128 0x11
 1321 03f2 DA030000 		.4byte	.LASF68
 1322 03f6 02       		.byte	0x2
 1323 03f7 72       		.byte	0x72
 1324 03f8 25000000 		.4byte	0x25
 1325 03fc 03       		.byte	0x3
 1326 03fd 0D040000 		.4byte	0x40d
 1327 0401 15       		.uleb128 0x15
 1328 0402 90050000 		.4byte	.LASF69
 1329 0406 02       		.byte	0x2
 1330 0407 72       		.byte	0x72
 1331 0408 B4000000 		.4byte	0xb4
 1332 040c 00       		.byte	0
 1333 040d 13       		.uleb128 0x13
 1334 040e 9E060000 		.4byte	.LASF70
 1335 0412 03       		.byte	0x3
 1336 0413 AF01     		.2byte	0x1af
 1337 0415 25000000 		.4byte	0x25
 1338 0419 03       		.byte	0x3
 1339 041a 29040000 		.4byte	0x429
 1340 041e 14       		.uleb128 0x14
 1341 041f 7800     		.ascii	"x\000"
 1342 0421 03       		.byte	0x3
 1343 0422 AF01     		.2byte	0x1af
 1344 0424 0F030000 		.4byte	0x30f
 1345 0428 00       		.byte	0
 1346 0429 11       		.uleb128 0x11
 1347 042a 60060000 		.4byte	.LASF71
 1348 042e 02       		.byte	0x2
 1349 042f 7C       		.byte	0x7c
 1350 0430 25000000 		.4byte	0x25
 1351 0434 03       		.byte	0x3
 1352 0435 6D040000 		.4byte	0x46d
 1353 0439 15       		.uleb128 0x15
 1354 043a 90050000 		.4byte	.LASF69
 1355 043e 02       		.byte	0x2
 1356 043f 7C       		.byte	0x7c
 1357 0440 B4000000 		.4byte	0xb4
 1358 0444 12       		.uleb128 0x12
 1359 0445 6D6F6400 		.ascii	"mod\000"
 1360 0449 02       		.byte	0x2
ARM GAS  C:\Users\eric\AppData\Local\Temp\ccyeDnt3.s 			page 25


 1361 044a 7C       		.byte	0x7c
 1362 044b B4000000 		.4byte	0xb4
 1363 044f 16       		.uleb128 0x16
 1364 0450 663000   		.ascii	"f0\000"
 1365 0453 02       		.byte	0x2
 1366 0454 7D       		.byte	0x7d
 1367 0455 0F030000 		.4byte	0x30f
 1368 0459 16       		.uleb128 0x16
 1369 045a 663100   		.ascii	"f1\000"
 1370 045d 02       		.byte	0x2
 1371 045e 7E       		.byte	0x7e
 1372 045f 0F030000 		.4byte	0x30f
 1373 0463 16       		.uleb128 0x16
 1374 0464 6600     		.ascii	"f\000"
 1375 0466 02       		.byte	0x2
 1376 0467 80       		.byte	0x80
 1377 0468 0F030000 		.4byte	0x30f
 1378 046c 00       		.byte	0
 1379 046d 11       		.uleb128 0x11
 1380 046e 41030000 		.4byte	.LASF72
 1381 0472 01       		.byte	0x1
 1382 0473 51       		.byte	0x51
 1383 0474 BF000000 		.4byte	0xbf
 1384 0478 03       		.byte	0x3
 1385 0479 CB040000 		.4byte	0x4cb
 1386 047d 15       		.uleb128 0x15
 1387 047e 90050000 		.4byte	.LASF69
 1388 0482 01       		.byte	0x1
 1389 0483 51       		.byte	0x51
 1390 0484 BF000000 		.4byte	0xbf
 1391 0488 15       		.uleb128 0x15
 1392 0489 5D040000 		.4byte	.LASF73
 1393 048d 01       		.byte	0x1
 1394 048e 51       		.byte	0x51
 1395 048f CA000000 		.4byte	0xca
 1396 0493 17       		.uleb128 0x17
 1397 0494 90010000 		.4byte	.LASF32
 1398 0498 01       		.byte	0x1
 1399 0499 54       		.byte	0x54
 1400 049a B4000000 		.4byte	0xb4
 1401 049e 16       		.uleb128 0x16
 1402 049f 6D6F6400 		.ascii	"mod\000"
 1403 04a3 01       		.byte	0x1
 1404 04a4 55       		.byte	0x55
 1405 04a5 B4000000 		.4byte	0xb4
 1406 04a9 16       		.uleb128 0x16
 1407 04aa 72657300 		.ascii	"res\000"
 1408 04ae 01       		.byte	0x1
 1409 04af 56       		.byte	0x56
 1410 04b0 BF000000 		.4byte	0xbf
 1411 04b4 17       		.uleb128 0x17
 1412 04b5 61030000 		.4byte	.LASF74
 1413 04b9 01       		.byte	0x1
 1414 04ba 59       		.byte	0x59
 1415 04bb CA000000 		.4byte	0xca
 1416 04bf 17       		.uleb128 0x17
 1417 04c0 90030000 		.4byte	.LASF75
ARM GAS  C:\Users\eric\AppData\Local\Temp\ccyeDnt3.s 			page 26


 1418 04c4 01       		.byte	0x1
 1419 04c5 5A       		.byte	0x5a
 1420 04c6 CA000000 		.4byte	0xca
 1421 04ca 00       		.byte	0
 1422 04cb 18       		.uleb128 0x18
 1423 04cc 0E030000 		.4byte	.LASF116
 1424 04d0 02       		.byte	0x2
 1425 04d1 0B03     		.2byte	0x30b
 1426 04d3 25000000 		.4byte	0x25
 1427 04d7 03       		.byte	0x3
 1428 04d8 11       		.uleb128 0x11
 1429 04d9 F9030000 		.4byte	.LASF76
 1430 04dd 01       		.byte	0x1
 1431 04de 68       		.byte	0x68
 1432 04df 25000000 		.4byte	0x25
 1433 04e3 03       		.byte	0x3
 1434 04e4 FF040000 		.4byte	0x4ff
 1435 04e8 15       		.uleb128 0x15
 1436 04e9 9C030000 		.4byte	.LASF55
 1437 04ed 01       		.byte	0x1
 1438 04ee 68       		.byte	0x68
 1439 04ef A9000000 		.4byte	0xa9
 1440 04f3 15       		.uleb128 0x15
 1441 04f4 20000000 		.4byte	.LASF59
 1442 04f8 01       		.byte	0x1
 1443 04f9 68       		.byte	0x68
 1444 04fa 25000000 		.4byte	0x25
 1445 04fe 00       		.byte	0
 1446 04ff 13       		.uleb128 0x13
 1447 0500 99020000 		.4byte	.LASF77
 1448 0504 02       		.byte	0x2
 1449 0505 9F02     		.2byte	0x29f
 1450 0507 25000000 		.4byte	0x25
 1451 050b 03       		.byte	0x3
 1452 050c 25050000 		.4byte	0x525
 1453 0510 14       		.uleb128 0x14
 1454 0511 6300     		.ascii	"c\000"
 1455 0513 02       		.byte	0x2
 1456 0514 9F02     		.2byte	0x29f
 1457 0516 0F030000 		.4byte	0x30f
 1458 051a 14       		.uleb128 0x14
 1459 051b 7800     		.ascii	"x\000"
 1460 051d 02       		.byte	0x2
 1461 051e 9F02     		.2byte	0x29f
 1462 0520 25000000 		.4byte	0x25
 1463 0524 00       		.byte	0
 1464 0525 11       		.uleb128 0x11
 1465 0526 E6030000 		.4byte	.LASF57
 1466 052a 01       		.byte	0x1
 1467 052b 6F       		.byte	0x6f
 1468 052c 25000000 		.4byte	0x25
 1469 0530 03       		.byte	0x3
 1470 0531 57050000 		.4byte	0x557
 1471 0535 15       		.uleb128 0x15
 1472 0536 21060000 		.4byte	.LASF78
 1473 053a 01       		.byte	0x1
 1474 053b 6F       		.byte	0x6f
ARM GAS  C:\Users\eric\AppData\Local\Temp\ccyeDnt3.s 			page 27


 1475 053c 25000000 		.4byte	0x25
 1476 0540 12       		.uleb128 0x12
 1477 0541 73696700 		.ascii	"sig\000"
 1478 0545 01       		.byte	0x1
 1479 0546 6F       		.byte	0x6f
 1480 0547 25000000 		.4byte	0x25
 1481 054b 17       		.uleb128 0x17
 1482 054c 6E010000 		.4byte	.LASF79
 1483 0550 01       		.byte	0x1
 1484 0551 70       		.byte	0x70
 1485 0552 25000000 		.4byte	0x25
 1486 0556 00       		.byte	0
 1487 0557 19       		.uleb128 0x19
 1488 0558 BE040000 		.4byte	.LASF81
 1489 055c 01       		.byte	0x1
 1490 055d 46       		.byte	0x46
 1491 055e 00000000 		.4byte	.LFB239
 1492 0562 24000000 		.4byte	.LFE239-.LFB239
 1493 0566 01       		.uleb128 0x1
 1494 0567 9C       		.byte	0x9c
 1495 0568 8B050000 		.4byte	0x58b
 1496 056c 1A       		.uleb128 0x1a
 1497 056d 7E010000 		.4byte	.LASF80
 1498 0571 01       		.byte	0x1
 1499 0572 46       		.byte	0x46
 1500 0573 D5000000 		.4byte	0xd5
 1501 0577 00000000 		.4byte	.LLST0
 1502 057b 1B       		.uleb128 0x1b
 1503 057c 61706900 		.ascii	"api\000"
 1504 0580 01       		.byte	0x1
 1505 0581 46       		.byte	0x46
 1506 0582 D5000000 		.4byte	0xd5
 1507 0586 21000000 		.4byte	.LLST1
 1508 058a 00       		.byte	0
 1509 058b 19       		.uleb128 0x19
 1510 058c 81020000 		.4byte	.LASF82
 1511 0590 01       		.byte	0x1
 1512 0591 79       		.byte	0x79
 1513 0592 24000000 		.4byte	.LFB243
 1514 0596 9C020000 		.4byte	.LFE243-.LFB243
 1515 059a 01       		.uleb128 0x1
 1516 059b 9C       		.byte	0x9c
 1517 059c 30090000 		.4byte	0x930
 1518 05a0 1A       		.uleb128 0x1a
 1519 05a1 00000000 		.4byte	.LASF83
 1520 05a5 01       		.byte	0x1
 1521 05a6 79       		.byte	0x79
 1522 05a7 30090000 		.4byte	0x930
 1523 05ab 42000000 		.4byte	.LLST2
 1524 05af 1B       		.uleb128 0x1b
 1525 05b0 796E00   		.ascii	"yn\000"
 1526 05b3 01       		.byte	0x1
 1527 05b4 7A       		.byte	0x7a
 1528 05b5 1E010000 		.4byte	0x11e
 1529 05b9 6E000000 		.4byte	.LLST3
 1530 05bd 1A       		.uleb128 0x1a
 1531 05be BC030000 		.4byte	.LASF84
ARM GAS  C:\Users\eric\AppData\Local\Temp\ccyeDnt3.s 			page 28


 1532 05c2 01       		.byte	0x1
 1533 05c3 7B       		.byte	0x7b
 1534 05c4 93030000 		.4byte	0x393
 1535 05c8 9A000000 		.4byte	.LLST4
 1536 05cc 1C       		.uleb128 0x1c
 1537 05cd 2D000000 		.4byte	.LASF51
 1538 05d1 01       		.byte	0x1
 1539 05d2 7D       		.byte	0x7d
 1540 05d3 35090000 		.4byte	0x935
 1541 05d7 BB000000 		.4byte	.LLST5
 1542 05db 1D       		.uleb128 0x1d
 1543 05dc 75030000 		.4byte	.LASF49
 1544 05e0 01       		.byte	0x1
 1545 05e1 80       		.byte	0x80
 1546 05e2 0F030000 		.4byte	0x30f
 1547 05e6 02       		.uleb128 0x2
 1548 05e7 90       		.byte	0x90
 1549 05e8 51       		.uleb128 0x51
 1550 05e9 16       		.uleb128 0x16
 1551 05ea 6C666F00 		.ascii	"lfo\000"
 1552 05ee 01       		.byte	0x1
 1553 05ef 82       		.byte	0x82
 1554 05f0 0F030000 		.4byte	0x30f
 1555 05f4 1C       		.uleb128 0x1c
 1556 05f5 49050000 		.4byte	.LASF50
 1557 05f9 01       		.byte	0x1
 1558 05fa 83       		.byte	0x83
 1559 05fb 25000000 		.4byte	0x25
 1560 05ff DD000000 		.4byte	.LLST6
 1561 0603 1C       		.uleb128 0x1c
 1562 0604 26040000 		.4byte	.LASF85
 1563 0608 01       		.byte	0x1
 1564 0609 84       		.byte	0x84
 1565 060a 0F030000 		.4byte	0x30f
 1566 060e 00010000 		.4byte	.LLST7
 1567 0612 1E       		.uleb128 0x1e
 1568 0613 7900     		.ascii	"y\000"
 1569 0615 01       		.byte	0x1
 1570 0616 86       		.byte	0x86
 1571 0617 0D010000 		.4byte	0x10d
 1572 061b 14010000 		.4byte	.LLST8
 1573 061f 1E       		.uleb128 0x1e
 1574 0620 795F6500 		.ascii	"y_e\000"
 1575 0624 01       		.byte	0x1
 1576 0625 87       		.byte	0x87
 1577 0626 13010000 		.4byte	0x113
 1578 062a 27010000 		.4byte	.LLST9
 1579 062e 1C       		.uleb128 0x1c
 1580 062f 26000000 		.4byte	.LASF52
 1581 0633 01       		.byte	0x1
 1582 0634 89       		.byte	0x89
 1583 0635 B4000000 		.4byte	0xb4
 1584 0639 4E010000 		.4byte	.LLST10
 1585 063d 1C       		.uleb128 0x1c
 1586 063e 2E040000 		.4byte	.LASF53
 1587 0642 01       		.byte	0x1
 1588 0643 8A       		.byte	0x8a
ARM GAS  C:\Users\eric\AppData\Local\Temp\ccyeDnt3.s 			page 29


 1589 0644 B4000000 		.4byte	0xb4
 1590 0648 61010000 		.4byte	.LLST11
 1591 064c 1E       		.uleb128 0x1e
 1592 064d 6900     		.ascii	"i\000"
 1593 064f 01       		.byte	0x1
 1594 0650 8D       		.byte	0x8d
 1595 0651 2C000000 		.4byte	0x2c
 1596 0655 75010000 		.4byte	.LLST12
 1597 0659 1F       		.uleb128 0x1f
 1598 065a 00000000 		.4byte	.Ldebug_ranges0+0
 1599 065e EE070000 		.4byte	0x7ee
 1600 0662 1C       		.uleb128 0x1c
 1601 0663 6D030000 		.4byte	.LASF86
 1602 0667 01       		.byte	0x1
 1603 0668 8F       		.byte	0x8f
 1604 0669 CA000000 		.4byte	0xca
 1605 066d C1010000 		.4byte	.LLST13
 1606 0671 1D       		.uleb128 0x1d
 1607 0672 2B060000 		.4byte	.LASF87
 1608 0676 01       		.byte	0x1
 1609 0677 90       		.byte	0x90
 1610 0678 BF000000 		.4byte	0xbf
 1611 067c 01       		.uleb128 0x1
 1612 067d 50       		.byte	0x50
 1613 067e 20       		.uleb128 0x20
 1614 067f 29040000 		.4byte	0x429
 1615 0683 36000000 		.4byte	.LBB86
 1616 0687 18000000 		.4byte	.Ldebug_ranges0+0x18
 1617 068b 01       		.byte	0x1
 1618 068c 91       		.byte	0x91
 1619 068d 7B070000 		.4byte	0x77b
 1620 0691 21       		.uleb128 0x21
 1621 0692 44040000 		.4byte	0x444
 1622 0696 1B020000 		.4byte	.LLST14
 1623 069a 21       		.uleb128 0x21
 1624 069b 39040000 		.4byte	0x439
 1625 069f 2E020000 		.4byte	.LLST15
 1626 06a3 22       		.uleb128 0x22
 1627 06a4 18000000 		.4byte	.Ldebug_ranges0+0x18
 1628 06a8 23       		.uleb128 0x23
 1629 06a9 4F040000 		.4byte	0x44f
 1630 06ad 23       		.uleb128 0x23
 1631 06ae 59040000 		.4byte	0x459
 1632 06b2 23       		.uleb128 0x23
 1633 06b3 63040000 		.4byte	0x463
 1634 06b7 20       		.uleb128 0x20
 1635 06b8 F1030000 		.4byte	0x3f1
 1636 06bc 36000000 		.4byte	.LBB88
 1637 06c0 48000000 		.4byte	.Ldebug_ranges0+0x48
 1638 06c4 02       		.byte	0x2
 1639 06c5 7D       		.byte	0x7d
 1640 06c6 D4060000 		.4byte	0x6d4
 1641 06ca 21       		.uleb128 0x21
 1642 06cb 01040000 		.4byte	0x401
 1643 06cf 2E030000 		.4byte	.LLST16
 1644 06d3 00       		.byte	0
 1645 06d4 20       		.uleb128 0x20
ARM GAS  C:\Users\eric\AppData\Local\Temp\ccyeDnt3.s 			page 30


 1646 06d5 BE030000 		.4byte	0x3be
 1647 06d9 B0000000 		.4byte	.LBB94
 1648 06dd 78000000 		.4byte	.Ldebug_ranges0+0x78
 1649 06e1 02       		.byte	0x2
 1650 06e2 80       		.byte	0x80
 1651 06e3 FB060000 		.4byte	0x6fb
 1652 06e7 24       		.uleb128 0x24
 1653 06e8 E5030000 		.4byte	0x3e5
 1654 06ec 24       		.uleb128 0x24
 1655 06ed DA030000 		.4byte	0x3da
 1656 06f1 21       		.uleb128 0x21
 1657 06f2 CF030000 		.4byte	0x3cf
 1658 06f6 2E040000 		.4byte	.LLST17
 1659 06fa 00       		.byte	0
 1660 06fb 20       		.uleb128 0x20
 1661 06fc F1030000 		.4byte	0x3f1
 1662 0700 FE000000 		.4byte	.LBB104
 1663 0704 B0000000 		.4byte	.Ldebug_ranges0+0xb0
 1664 0708 02       		.byte	0x2
 1665 0709 7E       		.byte	0x7e
 1666 070a 14070000 		.4byte	0x714
 1667 070e 24       		.uleb128 0x24
 1668 070f 01040000 		.4byte	0x401
 1669 0713 00       		.byte	0
 1670 0714 25       		.uleb128 0x25
 1671 0715 98030000 		.4byte	0x398
 1672 0719 26010000 		.4byte	.LBB114
 1673 071d 12000000 		.4byte	.LBE114-.LBB114
 1674 0721 02       		.byte	0x2
 1675 0722 80       		.byte	0x80
 1676 0723 21       		.uleb128 0x21
 1677 0724 B3030000 		.4byte	0x3b3
 1678 0728 52040000 		.4byte	.LLST18
 1679 072c 24       		.uleb128 0x24
 1680 072d A9030000 		.4byte	0x3a9
 1681 0731 26       		.uleb128 0x26
 1682 0732 14030000 		.4byte	0x314
 1683 0736 26010000 		.4byte	.LBB115
 1684 073a 12000000 		.4byte	.LBE115-.LBB115
 1685 073e 03       		.byte	0x3
 1686 073f 8601     		.2byte	0x186
 1687 0741 21       		.uleb128 0x21
 1688 0742 2F030000 		.4byte	0x32f
 1689 0746 52040000 		.4byte	.LLST18
 1690 074a 24       		.uleb128 0x24
 1691 074b 25030000 		.4byte	0x325
 1692 074f 26       		.uleb128 0x26
 1693 0750 E3020000 		.4byte	0x2e3
 1694 0754 26010000 		.4byte	.LBB116
 1695 0758 12000000 		.4byte	.LBE116-.LBB116
 1696 075c 03       		.byte	0x3
 1697 075d 4B01     		.2byte	0x14b
 1698 075f 24       		.uleb128 0x24
 1699 0760 05030000 		.4byte	0x305
 1700 0764 21       		.uleb128 0x21
 1701 0765 FC020000 		.4byte	0x2fc
 1702 0769 52040000 		.4byte	.LLST18
ARM GAS  C:\Users\eric\AppData\Local\Temp\ccyeDnt3.s 			page 31


 1703 076d 21       		.uleb128 0x21
 1704 076e F3020000 		.4byte	0x2f3
 1705 0772 6A040000 		.4byte	.LLST21
 1706 0776 00       		.byte	0
 1707 0777 00       		.byte	0
 1708 0778 00       		.byte	0
 1709 0779 00       		.byte	0
 1710 077a 00       		.byte	0
 1711 077b 20       		.uleb128 0x20
 1712 077c 6D040000 		.4byte	0x46d
 1713 0780 AC000000 		.4byte	.LBB122
 1714 0784 C8000000 		.4byte	.Ldebug_ranges0+0xc8
 1715 0788 01       		.byte	0x1
 1716 0789 90       		.byte	0x90
 1717 078a D4070000 		.4byte	0x7d4
 1718 078e 21       		.uleb128 0x21
 1719 078f 88040000 		.4byte	0x488
 1720 0793 88040000 		.4byte	.LLST22
 1721 0797 21       		.uleb128 0x21
 1722 0798 7D040000 		.4byte	0x47d
 1723 079c C5040000 		.4byte	.LLST23
 1724 07a0 22       		.uleb128 0x22
 1725 07a1 C8000000 		.4byte	.Ldebug_ranges0+0xc8
 1726 07a5 27       		.uleb128 0x27
 1727 07a6 93040000 		.4byte	0x493
 1728 07aa E4040000 		.4byte	.LLST24
 1729 07ae 27       		.uleb128 0x27
 1730 07af 9E040000 		.4byte	0x49e
 1731 07b3 F7040000 		.4byte	.LLST25
 1732 07b7 27       		.uleb128 0x27
 1733 07b8 A9040000 		.4byte	0x4a9
 1734 07bc 21050000 		.4byte	.LLST26
 1735 07c0 27       		.uleb128 0x27
 1736 07c1 B4040000 		.4byte	0x4b4
 1737 07c5 47050000 		.4byte	.LLST27
 1738 07c9 27       		.uleb128 0x27
 1739 07ca BF040000 		.4byte	0x4bf
 1740 07ce 5A050000 		.4byte	.LLST28
 1741 07d2 00       		.byte	0
 1742 07d3 00       		.byte	0
 1743 07d4 25       		.uleb128 0x25
 1744 07d5 CB040000 		.4byte	0x4cb
 1745 07d9 50010000 		.4byte	.LBB130
 1746 07dd 04000000 		.4byte	.LBE130-.LBB130
 1747 07e1 01       		.byte	0x1
 1748 07e2 93       		.byte	0x93
 1749 07e3 28       		.uleb128 0x28
 1750 07e4 54010000 		.4byte	.LVL32
 1751 07e8 1D0B0000 		.4byte	0xb1d
 1752 07ec 00       		.byte	0
 1753 07ed 00       		.byte	0
 1754 07ee 22       		.uleb128 0x22
 1755 07ef E0000000 		.4byte	.Ldebug_ranges0+0xe0
 1756 07f3 1C       		.uleb128 0x1c
 1757 07f4 33000000 		.4byte	.LASF88
 1758 07f8 01       		.byte	0x1
 1759 07f9 99       		.byte	0x99
ARM GAS  C:\Users\eric\AppData\Local\Temp\ccyeDnt3.s 			page 32


 1760 07fa 25000000 		.4byte	0x25
 1761 07fe 7D050000 		.4byte	.LLST29
 1762 0802 16       		.uleb128 0x16
 1763 0803 73696700 		.ascii	"sig\000"
 1764 0807 01       		.byte	0x1
 1765 0808 A4       		.byte	0xa4
 1766 0809 0F030000 		.4byte	0x30f
 1767 080d 1F       		.uleb128 0x1f
 1768 080e 00010000 		.4byte	.Ldebug_ranges0+0x100
 1769 0812 48080000 		.4byte	0x848
 1770 0816 1C       		.uleb128 0x1c
 1771 0817 20000000 		.4byte	.LASF59
 1772 081b 01       		.byte	0x1
 1773 081c 9B       		.byte	0x9b
 1774 081d 25000000 		.4byte	0x25
 1775 0821 B5050000 		.4byte	.LLST30
 1776 0825 29       		.uleb128 0x29
 1777 0826 D8040000 		.4byte	0x4d8
 1778 082a 70010000 		.4byte	.LBB140
 1779 082e 20010000 		.4byte	.Ldebug_ranges0+0x120
 1780 0832 01       		.byte	0x1
 1781 0833 9C       		.byte	0x9c
 1782 0834 21       		.uleb128 0x21
 1783 0835 F3040000 		.4byte	0x4f3
 1784 0839 F3050000 		.4byte	.LLST31
 1785 083d 21       		.uleb128 0x21
 1786 083e E8040000 		.4byte	0x4e8
 1787 0842 13060000 		.4byte	.LLST32
 1788 0846 00       		.byte	0
 1789 0847 00       		.byte	0
 1790 0848 2A       		.uleb128 0x2a
 1791 0849 CB040000 		.4byte	0x4cb
 1792 084d B6010000 		.4byte	.LBB147
 1793 0851 04000000 		.4byte	.LBE147-.LBB147
 1794 0855 01       		.byte	0x1
 1795 0856 A2       		.byte	0xa2
 1796 0857 65080000 		.4byte	0x865
 1797 085b 28       		.uleb128 0x28
 1798 085c BA010000 		.4byte	.LVL43
 1799 0860 1D0B0000 		.4byte	0xb1d
 1800 0864 00       		.byte	0
 1801 0865 20       		.uleb128 0x20
 1802 0866 25050000 		.4byte	0x525
 1803 086a C2010000 		.4byte	.LBB149
 1804 086e 38010000 		.4byte	.Ldebug_ranges0+0x138
 1805 0872 01       		.byte	0x1
 1806 0873 A3       		.byte	0xa3
 1807 0874 9A080000 		.4byte	0x89a
 1808 0878 21       		.uleb128 0x21
 1809 0879 40050000 		.4byte	0x540
 1810 087d 39060000 		.4byte	.LLST33
 1811 0881 21       		.uleb128 0x21
 1812 0882 35050000 		.4byte	0x535
 1813 0886 65060000 		.4byte	.LLST34
 1814 088a 22       		.uleb128 0x22
 1815 088b 38010000 		.4byte	.Ldebug_ranges0+0x138
 1816 088f 27       		.uleb128 0x27
ARM GAS  C:\Users\eric\AppData\Local\Temp\ccyeDnt3.s 			page 33


 1817 0890 4B050000 		.4byte	0x54b
 1818 0894 85060000 		.4byte	.LLST35
 1819 0898 00       		.byte	0
 1820 0899 00       		.byte	0
 1821 089a 29       		.uleb128 0x29
 1822 089b FF040000 		.4byte	0x4ff
 1823 089f FA010000 		.4byte	.LBB154
 1824 08a3 58010000 		.4byte	.Ldebug_ranges0+0x158
 1825 08a7 01       		.byte	0x1
 1826 08a8 A4       		.byte	0xa4
 1827 08a9 21       		.uleb128 0x21
 1828 08aa 1A050000 		.4byte	0x51a
 1829 08ae AD060000 		.4byte	.LLST36
 1830 08b2 21       		.uleb128 0x21
 1831 08b3 10050000 		.4byte	0x510
 1832 08b7 C1060000 		.4byte	.LLST37
 1833 08bb 2B       		.uleb128 0x2b
 1834 08bc 0D040000 		.4byte	0x40d
 1835 08c0 FA010000 		.4byte	.LBB156
 1836 08c4 70010000 		.4byte	.Ldebug_ranges0+0x170
 1837 08c8 02       		.byte	0x2
 1838 08c9 A102     		.2byte	0x2a1
 1839 08cb 21       		.uleb128 0x21
 1840 08cc 1E040000 		.4byte	0x41e
 1841 08d0 AD060000 		.4byte	.LLST36
 1842 08d4 2B       		.uleb128 0x2b
 1843 08d5 3C030000 		.4byte	0x33c
 1844 08d9 FA010000 		.4byte	.LBB157
 1845 08dd 88010000 		.4byte	.Ldebug_ranges0+0x188
 1846 08e1 03       		.byte	0x3
 1847 08e2 B001     		.2byte	0x1b0
 1848 08e4 21       		.uleb128 0x21
 1849 08e5 63030000 		.4byte	0x363
 1850 08e9 D9060000 		.4byte	.LLST39
 1851 08ed 21       		.uleb128 0x21
 1852 08ee 59030000 		.4byte	0x359
 1853 08f2 F1060000 		.4byte	.LLST40
 1854 08f6 21       		.uleb128 0x21
 1855 08f7 4D030000 		.4byte	0x34d
 1856 08fb 05070000 		.4byte	.LLST41
 1857 08ff 2B       		.uleb128 0x2b
 1858 0900 E3020000 		.4byte	0x2e3
 1859 0904 FA010000 		.4byte	.LBB158
 1860 0908 A0010000 		.4byte	.Ldebug_ranges0+0x1a0
 1861 090c 03       		.byte	0x3
 1862 090d 3E01     		.2byte	0x13e
 1863 090f 21       		.uleb128 0x21
 1864 0910 05030000 		.4byte	0x305
 1865 0914 1D070000 		.4byte	.LLST42
 1866 0918 21       		.uleb128 0x21
 1867 0919 FC020000 		.4byte	0x2fc
 1868 091d F1060000 		.4byte	.LLST40
 1869 0921 21       		.uleb128 0x21
 1870 0922 F3020000 		.4byte	0x2f3
 1871 0926 35070000 		.4byte	.LLST44
 1872 092a 00       		.byte	0
 1873 092b 00       		.byte	0
ARM GAS  C:\Users\eric\AppData\Local\Temp\ccyeDnt3.s 			page 34


 1874 092c 00       		.byte	0
 1875 092d 00       		.byte	0
 1876 092e 00       		.byte	0
 1877 092f 00       		.byte	0
 1878 0930 08       		.uleb128 0x8
 1879 0931 0B020000 		.4byte	0x20b
 1880 0935 08       		.uleb128 0x8
 1881 0936 B4000000 		.4byte	0xb4
 1882 093a 19       		.uleb128 0x19
 1883 093b 23030000 		.4byte	.LASF89
 1884 093f 01       		.byte	0x1
 1885 0940 AC       		.byte	0xac
 1886 0941 C0020000 		.4byte	.LFB244
 1887 0945 10000000 		.4byte	.LFE244-.LFB244
 1888 0949 01       		.uleb128 0x1
 1889 094a 9C       		.byte	0x9c
 1890 094b 5D090000 		.4byte	0x95d
 1891 094f 2C       		.uleb128 0x2c
 1892 0950 00000000 		.4byte	.LASF83
 1893 0954 01       		.byte	0x1
 1894 0955 AC       		.byte	0xac
 1895 0956 30090000 		.4byte	0x930
 1896 095a 01       		.uleb128 0x1
 1897 095b 50       		.byte	0x50
 1898 095c 00       		.byte	0
 1899 095d 19       		.uleb128 0x19
 1900 095e B2030000 		.4byte	.LASF90
 1901 0962 01       		.byte	0x1
 1902 0963 B1       		.byte	0xb1
 1903 0964 D0020000 		.4byte	.LFB245
 1904 0968 02000000 		.4byte	.LFE245-.LFB245
 1905 096c 01       		.uleb128 0x1
 1906 096d 9C       		.byte	0x9c
 1907 096e 80090000 		.4byte	0x980
 1908 0972 2C       		.uleb128 0x2c
 1909 0973 00000000 		.4byte	.LASF83
 1910 0977 01       		.byte	0x1
 1911 0978 B1       		.byte	0xb1
 1912 0979 30090000 		.4byte	0x930
 1913 097d 01       		.uleb128 0x1
 1914 097e 50       		.byte	0x50
 1915 097f 00       		.byte	0
 1916 0980 19       		.uleb128 0x19
 1917 0981 07000000 		.4byte	.LASF91
 1918 0985 01       		.byte	0x1
 1919 0986 B6       		.byte	0xb6
 1920 0987 D2020000 		.4byte	.LFB246
 1921 098b 5A000000 		.4byte	.LFE246-.LFB246
 1922 098f 01       		.uleb128 0x1
 1923 0990 9C       		.byte	0x9c
 1924 0991 CA090000 		.4byte	0x9ca
 1925 0995 2C       		.uleb128 0x2c
 1926 0996 DD020000 		.4byte	.LASF92
 1927 099a 01       		.byte	0x1
 1928 099b B6       		.byte	0xb6
 1929 099c BF000000 		.4byte	0xbf
 1930 09a0 01       		.uleb128 0x1
ARM GAS  C:\Users\eric\AppData\Local\Temp\ccyeDnt3.s 			page 35


 1931 09a1 50       		.byte	0x50
 1932 09a2 1A       		.uleb128 0x1a
 1933 09a3 3B030000 		.4byte	.LASF93
 1934 09a7 01       		.byte	0x1
 1935 09a8 B6       		.byte	0xb6
 1936 09a9 BF000000 		.4byte	0xbf
 1937 09ad 53070000 		.4byte	.LLST45
 1938 09b1 1D       		.uleb128 0x1d
 1939 09b2 C1020000 		.4byte	.LASF94
 1940 09b6 01       		.byte	0x1
 1941 09b7 B8       		.byte	0xb8
 1942 09b8 0F030000 		.4byte	0x30f
 1943 09bc 0C       		.uleb128 0xc
 1944 09bd F5       		.byte	0xf5
 1945 09be 4F       		.uleb128 0x4f
 1946 09bf 25       		.uleb128 0x25
 1947 09c0 F4       		.byte	0xf4
 1948 09c1 25       		.uleb128 0x25
 1949 09c2 04       		.byte	0x4
 1950 09c3 0820803A 		.4byte	0x3a802008
 1951 09c7 1E       		.byte	0x1e
 1952 09c8 9F       		.byte	0x9f
 1953 09c9 00       		.byte	0
 1954 09ca 2D       		.uleb128 0x2d
 1955 09cb B4060000 		.4byte	.LASF95
 1956 09cf 02       		.byte	0x2
 1957 09d0 45       		.byte	0x45
 1958 09d1 93030000 		.4byte	0x393
 1959 09d5 2D       		.uleb128 0x2d
 1960 09d6 6C050000 		.4byte	.LASF96
 1961 09da 02       		.byte	0x2
 1962 09db 4A       		.byte	0x4a
 1963 09dc 93030000 		.4byte	0x393
 1964 09e0 0D       		.uleb128 0xd
 1965 09e1 0F030000 		.4byte	0x30f
 1966 09e5 F0090000 		.4byte	0x9f0
 1967 09e9 0E       		.uleb128 0xe
 1968 09ea EC000000 		.4byte	0xec
 1969 09ee 97       		.byte	0x97
 1970 09ef 00       		.byte	0
 1971 09f0 2D       		.uleb128 0x2d
 1972 09f1 C6020000 		.4byte	.LASF97
 1973 09f5 02       		.byte	0x2
 1974 09f6 67       		.byte	0x67
 1975 09f7 FB090000 		.4byte	0x9fb
 1976 09fb 08       		.uleb128 0x8
 1977 09fc E0090000 		.4byte	0x9e0
 1978 0a00 0D       		.uleb128 0xd
 1979 0a01 0F030000 		.4byte	0x30f
 1980 0a05 100A0000 		.4byte	0xa10
 1981 0a09 0E       		.uleb128 0xe
 1982 0a0a EC000000 		.4byte	0xec
 1983 0a0e 80       		.byte	0x80
 1984 0a0f 00       		.byte	0
 1985 0a10 2D       		.uleb128 0x2d
 1986 0a11 C3050000 		.4byte	.LASF98
 1987 0a15 02       		.byte	0x2
ARM GAS  C:\Users\eric\AppData\Local\Temp\ccyeDnt3.s 			page 36


 1988 0a16 94       		.byte	0x94
 1989 0a17 1B0A0000 		.4byte	0xa1b
 1990 0a1b 08       		.uleb128 0x8
 1991 0a1c 000A0000 		.4byte	0xa00
 1992 0a20 0D       		.uleb128 0xd
 1993 0a21 0F030000 		.4byte	0x30f
 1994 0a25 310A0000 		.4byte	0xa31
 1995 0a29 2E       		.uleb128 0x2e
 1996 0a2a EC000000 		.4byte	0xec
 1997 0a2e 8603     		.2byte	0x386
 1998 0a30 00       		.byte	0
 1999 0a31 2D       		.uleb128 0x2d
 2000 0a32 83050000 		.4byte	.LASF99
 2001 0a36 02       		.byte	0x2
 2002 0a37 C6       		.byte	0xc6
 2003 0a38 3C0A0000 		.4byte	0xa3c
 2004 0a3c 08       		.uleb128 0x8
 2005 0a3d 200A0000 		.4byte	0xa20
 2006 0a41 2F       		.uleb128 0x2f
 2007 0a42 F2040000 		.4byte	.LASF100
 2008 0a46 02       		.byte	0x2
 2009 0a47 3801     		.2byte	0x138
 2010 0a49 4D0A0000 		.4byte	0xa4d
 2011 0a4d 08       		.uleb128 0x8
 2012 0a4e 200A0000 		.4byte	0xa20
 2013 0a52 2F       		.uleb128 0x2f
 2014 0a53 13000000 		.4byte	.LASF101
 2015 0a57 02       		.byte	0x2
 2016 0a58 AB01     		.2byte	0x1ab
 2017 0a5a 5E0A0000 		.4byte	0xa5e
 2018 0a5e 08       		.uleb128 0x8
 2019 0a5f 200A0000 		.4byte	0xa20
 2020 0a63 0D       		.uleb128 0xd
 2021 0a64 0F030000 		.4byte	0x30f
 2022 0a68 740A0000 		.4byte	0xa74
 2023 0a6c 2E       		.uleb128 0x2e
 2024 0a6d EC000000 		.4byte	0xec
 2025 0a71 0001     		.2byte	0x100
 2026 0a73 00       		.byte	0
 2027 0a74 2F       		.uleb128 0x2f
 2028 0a75 EF030000 		.4byte	.LASF102
 2029 0a79 02       		.byte	0x2
 2030 0a7a 4C02     		.2byte	0x24c
 2031 0a7c 800A0000 		.4byte	0xa80
 2032 0a80 08       		.uleb128 0x8
 2033 0a81 630A0000 		.4byte	0xa63
 2034 0a85 2F       		.uleb128 0x2f
 2035 0a86 8D020000 		.4byte	.LASF103
 2036 0a8a 02       		.byte	0x2
 2037 0a8b 6302     		.2byte	0x263
 2038 0a8d 910A0000 		.4byte	0xa91
 2039 0a91 08       		.uleb128 0x8
 2040 0a92 630A0000 		.4byte	0xa63
 2041 0a96 2F       		.uleb128 0x2f
 2042 0a97 D3040000 		.4byte	.LASF104
 2043 0a9b 02       		.byte	0x2
 2044 0a9c 7B02     		.2byte	0x27b
ARM GAS  C:\Users\eric\AppData\Local\Temp\ccyeDnt3.s 			page 37


 2045 0a9e A20A0000 		.4byte	0xaa2
 2046 0aa2 08       		.uleb128 0x8
 2047 0aa3 630A0000 		.4byte	0xa63
 2048 0aa7 2F       		.uleb128 0x2f
 2049 0aa8 E3040000 		.4byte	.LASF105
 2050 0aac 02       		.byte	0x2
 2051 0aad AA02     		.2byte	0x2aa
 2052 0aaf B30A0000 		.4byte	0xab3
 2053 0ab3 08       		.uleb128 0x8
 2054 0ab4 000A0000 		.4byte	0xa00
 2055 0ab8 2F       		.uleb128 0x2f
 2056 0ab9 C3030000 		.4byte	.LASF106
 2057 0abd 02       		.byte	0x2
 2058 0abe BF02     		.2byte	0x2bf
 2059 0ac0 C40A0000 		.4byte	0xac4
 2060 0ac4 08       		.uleb128 0x8
 2061 0ac5 000A0000 		.4byte	0xa00
 2062 0ac9 2F       		.uleb128 0x2f
 2063 0aca 61010000 		.4byte	.LASF107
 2064 0ace 02       		.byte	0x2
 2065 0acf DC02     		.2byte	0x2dc
 2066 0ad1 D50A0000 		.4byte	0xad5
 2067 0ad5 08       		.uleb128 0x8
 2068 0ad6 000A0000 		.4byte	0xa00
 2069 0ada 1D       		.uleb128 0x1d
 2070 0adb 2E020000 		.4byte	.LASF108
 2071 0adf 01       		.byte	0x1
 2072 0ae0 37       		.byte	0x37
 2073 0ae1 9B020000 		.4byte	0x29b
 2074 0ae5 05       		.uleb128 0x5
 2075 0ae6 03       		.byte	0x3
 2076 0ae7 00000000 		.4byte	_ZL7s_state
 2077 0aeb 30       		.uleb128 0x30
 2078 0aec 87010000 		.4byte	.LASF109
 2079 0af0 01       		.byte	0x1
 2080 0af1 3E       		.byte	0x3e
 2081 0af2 2C000000 		.4byte	0x2c
 2082 0af6 05       		.uleb128 0x5
 2083 0af7 03       		.byte	0x3
 2084 0af8 00000000 		.4byte	maxVoice
 2085 0afc 0D       		.uleb128 0xd
 2086 0afd A6020000 		.4byte	0x2a6
 2087 0b01 0C0B0000 		.4byte	0xb0c
 2088 0b05 0E       		.uleb128 0xe
 2089 0b06 EC000000 		.4byte	0xec
 2090 0b0a 0B       		.byte	0xb
 2091 0b0b 00       		.byte	0
 2092 0b0c 30       		.uleb128 0x30
 2093 0b0d 4E050000 		.4byte	.LASF110
 2094 0b11 01       		.byte	0x1
 2095 0b12 3F       		.byte	0x3f
 2096 0b13 FC0A0000 		.4byte	0xafc
 2097 0b17 05       		.uleb128 0x5
 2098 0b18 03       		.byte	0x3
 2099 0b19 00000000 		.4byte	instances
 2100 0b1d 31       		.uleb128 0x31
 2101 0b1e 93060000 		.4byte	.LASF117
ARM GAS  C:\Users\eric\AppData\Local\Temp\ccyeDnt3.s 			page 38


 2102 0b22 93060000 		.4byte	.LASF117
 2103 0b26 02       		.byte	0x2
 2104 0b27 0903     		.2byte	0x309
 2105 0b29 00       		.byte	0
 2106              		.section	.debug_abbrev,"",%progbits
 2107              	.Ldebug_abbrev0:
 2108 0000 01       		.uleb128 0x1
 2109 0001 11       		.uleb128 0x11
 2110 0002 01       		.byte	0x1
 2111 0003 25       		.uleb128 0x25
 2112 0004 0E       		.uleb128 0xe
 2113 0005 13       		.uleb128 0x13
 2114 0006 0B       		.uleb128 0xb
 2115 0007 03       		.uleb128 0x3
 2116 0008 0E       		.uleb128 0xe
 2117 0009 1B       		.uleb128 0x1b
 2118 000a 0E       		.uleb128 0xe
 2119 000b 11       		.uleb128 0x11
 2120 000c 01       		.uleb128 0x1
 2121 000d 12       		.uleb128 0x12
 2122 000e 06       		.uleb128 0x6
 2123 000f 10       		.uleb128 0x10
 2124 0010 17       		.uleb128 0x17
 2125 0011 00       		.byte	0
 2126 0012 00       		.byte	0
 2127 0013 02       		.uleb128 0x2
 2128 0014 24       		.uleb128 0x24
 2129 0015 00       		.byte	0
 2130 0016 0B       		.uleb128 0xb
 2131 0017 0B       		.uleb128 0xb
 2132 0018 3E       		.uleb128 0x3e
 2133 0019 0B       		.uleb128 0xb
 2134 001a 03       		.uleb128 0x3
 2135 001b 0E       		.uleb128 0xe
 2136 001c 00       		.byte	0
 2137 001d 00       		.byte	0
 2138 001e 03       		.uleb128 0x3
 2139 001f 24       		.uleb128 0x24
 2140 0020 00       		.byte	0
 2141 0021 0B       		.uleb128 0xb
 2142 0022 0B       		.uleb128 0xb
 2143 0023 3E       		.uleb128 0x3e
 2144 0024 0B       		.uleb128 0xb
 2145 0025 03       		.uleb128 0x3
 2146 0026 08       		.uleb128 0x8
 2147 0027 00       		.byte	0
 2148 0028 00       		.byte	0
 2149 0029 04       		.uleb128 0x4
 2150 002a 16       		.uleb128 0x16
 2151 002b 00       		.byte	0
 2152 002c 03       		.uleb128 0x3
 2153 002d 0E       		.uleb128 0xe
 2154 002e 3A       		.uleb128 0x3a
 2155 002f 0B       		.uleb128 0xb
 2156 0030 3B       		.uleb128 0x3b
 2157 0031 0B       		.uleb128 0xb
 2158 0032 49       		.uleb128 0x49
ARM GAS  C:\Users\eric\AppData\Local\Temp\ccyeDnt3.s 			page 39


 2159 0033 13       		.uleb128 0x13
 2160 0034 00       		.byte	0
 2161 0035 00       		.byte	0
 2162 0036 05       		.uleb128 0x5
 2163 0037 3B       		.uleb128 0x3b
 2164 0038 00       		.byte	0
 2165 0039 03       		.uleb128 0x3
 2166 003a 0E       		.uleb128 0xe
 2167 003b 00       		.byte	0
 2168 003c 00       		.byte	0
 2169 003d 06       		.uleb128 0x6
 2170 003e 16       		.uleb128 0x16
 2171 003f 00       		.byte	0
 2172 0040 03       		.uleb128 0x3
 2173 0041 0E       		.uleb128 0xe
 2174 0042 3A       		.uleb128 0x3a
 2175 0043 0B       		.uleb128 0xb
 2176 0044 3B       		.uleb128 0x3b
 2177 0045 05       		.uleb128 0x5
 2178 0046 49       		.uleb128 0x49
 2179 0047 13       		.uleb128 0x13
 2180 0048 00       		.byte	0
 2181 0049 00       		.byte	0
 2182 004a 07       		.uleb128 0x7
 2183 004b 0F       		.uleb128 0xf
 2184 004c 00       		.byte	0
 2185 004d 0B       		.uleb128 0xb
 2186 004e 0B       		.uleb128 0xb
 2187 004f 49       		.uleb128 0x49
 2188 0050 13       		.uleb128 0x13
 2189 0051 00       		.byte	0
 2190 0052 00       		.byte	0
 2191 0053 08       		.uleb128 0x8
 2192 0054 26       		.uleb128 0x26
 2193 0055 00       		.byte	0
 2194 0056 49       		.uleb128 0x49
 2195 0057 13       		.uleb128 0x13
 2196 0058 00       		.byte	0
 2197 0059 00       		.byte	0
 2198 005a 09       		.uleb128 0x9
 2199 005b 04       		.uleb128 0x4
 2200 005c 01       		.byte	0x1
 2201 005d 0B       		.uleb128 0xb
 2202 005e 0B       		.uleb128 0xb
 2203 005f 49       		.uleb128 0x49
 2204 0060 13       		.uleb128 0x13
 2205 0061 3A       		.uleb128 0x3a
 2206 0062 0B       		.uleb128 0xb
 2207 0063 3B       		.uleb128 0x3b
 2208 0064 0B       		.uleb128 0xb
 2209 0065 01       		.uleb128 0x1
 2210 0066 13       		.uleb128 0x13
 2211 0067 00       		.byte	0
 2212 0068 00       		.byte	0
 2213 0069 0A       		.uleb128 0xa
 2214 006a 28       		.uleb128 0x28
 2215 006b 00       		.byte	0
ARM GAS  C:\Users\eric\AppData\Local\Temp\ccyeDnt3.s 			page 40


 2216 006c 03       		.uleb128 0x3
 2217 006d 0E       		.uleb128 0xe
 2218 006e 1C       		.uleb128 0x1c
 2219 006f 0B       		.uleb128 0xb
 2220 0070 00       		.byte	0
 2221 0071 00       		.byte	0
 2222 0072 0B       		.uleb128 0xb
 2223 0073 13       		.uleb128 0x13
 2224 0074 01       		.byte	0x1
 2225 0075 03       		.uleb128 0x3
 2226 0076 0E       		.uleb128 0xe
 2227 0077 0B       		.uleb128 0xb
 2228 0078 0B       		.uleb128 0xb
 2229 0079 3A       		.uleb128 0x3a
 2230 007a 0B       		.uleb128 0xb
 2231 007b 3B       		.uleb128 0x3b
 2232 007c 0B       		.uleb128 0xb
 2233 007d 01       		.uleb128 0x1
 2234 007e 13       		.uleb128 0x13
 2235 007f 00       		.byte	0
 2236 0080 00       		.byte	0
 2237 0081 0C       		.uleb128 0xc
 2238 0082 0D       		.uleb128 0xd
 2239 0083 00       		.byte	0
 2240 0084 03       		.uleb128 0x3
 2241 0085 0E       		.uleb128 0xe
 2242 0086 3A       		.uleb128 0x3a
 2243 0087 0B       		.uleb128 0xb
 2244 0088 3B       		.uleb128 0x3b
 2245 0089 0B       		.uleb128 0xb
 2246 008a 49       		.uleb128 0x49
 2247 008b 13       		.uleb128 0x13
 2248 008c 38       		.uleb128 0x38
 2249 008d 0B       		.uleb128 0xb
 2250 008e 00       		.byte	0
 2251 008f 00       		.byte	0
 2252 0090 0D       		.uleb128 0xd
 2253 0091 01       		.uleb128 0x1
 2254 0092 01       		.byte	0x1
 2255 0093 49       		.uleb128 0x49
 2256 0094 13       		.uleb128 0x13
 2257 0095 01       		.uleb128 0x1
 2258 0096 13       		.uleb128 0x13
 2259 0097 00       		.byte	0
 2260 0098 00       		.byte	0
 2261 0099 0E       		.uleb128 0xe
 2262 009a 21       		.uleb128 0x21
 2263 009b 00       		.byte	0
 2264 009c 49       		.uleb128 0x49
 2265 009d 13       		.uleb128 0x13
 2266 009e 2F       		.uleb128 0x2f
 2267 009f 0B       		.uleb128 0xb
 2268 00a0 00       		.byte	0
 2269 00a1 00       		.byte	0
 2270 00a2 0F       		.uleb128 0xf
 2271 00a3 04       		.uleb128 0x4
 2272 00a4 01       		.byte	0x1
ARM GAS  C:\Users\eric\AppData\Local\Temp\ccyeDnt3.s 			page 41


 2273 00a5 0B       		.uleb128 0xb
 2274 00a6 0B       		.uleb128 0xb
 2275 00a7 49       		.uleb128 0x49
 2276 00a8 13       		.uleb128 0x13
 2277 00a9 3A       		.uleb128 0x3a
 2278 00aa 0B       		.uleb128 0xb
 2279 00ab 3B       		.uleb128 0x3b
 2280 00ac 0B       		.uleb128 0xb
 2281 00ad 6E       		.uleb128 0x6e
 2282 00ae 0E       		.uleb128 0xe
 2283 00af 01       		.uleb128 0x1
 2284 00b0 13       		.uleb128 0x13
 2285 00b1 00       		.byte	0
 2286 00b2 00       		.byte	0
 2287 00b3 10       		.uleb128 0x10
 2288 00b4 0D       		.uleb128 0xd
 2289 00b5 00       		.byte	0
 2290 00b6 03       		.uleb128 0x3
 2291 00b7 08       		.uleb128 0x8
 2292 00b8 3A       		.uleb128 0x3a
 2293 00b9 0B       		.uleb128 0xb
 2294 00ba 3B       		.uleb128 0x3b
 2295 00bb 0B       		.uleb128 0xb
 2296 00bc 49       		.uleb128 0x49
 2297 00bd 13       		.uleb128 0x13
 2298 00be 38       		.uleb128 0x38
 2299 00bf 0B       		.uleb128 0xb
 2300 00c0 00       		.byte	0
 2301 00c1 00       		.byte	0
 2302 00c2 11       		.uleb128 0x11
 2303 00c3 2E       		.uleb128 0x2e
 2304 00c4 01       		.byte	0x1
 2305 00c5 03       		.uleb128 0x3
 2306 00c6 0E       		.uleb128 0xe
 2307 00c7 3A       		.uleb128 0x3a
 2308 00c8 0B       		.uleb128 0xb
 2309 00c9 3B       		.uleb128 0x3b
 2310 00ca 0B       		.uleb128 0xb
 2311 00cb 49       		.uleb128 0x49
 2312 00cc 13       		.uleb128 0x13
 2313 00cd 20       		.uleb128 0x20
 2314 00ce 0B       		.uleb128 0xb
 2315 00cf 01       		.uleb128 0x1
 2316 00d0 13       		.uleb128 0x13
 2317 00d1 00       		.byte	0
 2318 00d2 00       		.byte	0
 2319 00d3 12       		.uleb128 0x12
 2320 00d4 05       		.uleb128 0x5
 2321 00d5 00       		.byte	0
 2322 00d6 03       		.uleb128 0x3
 2323 00d7 08       		.uleb128 0x8
 2324 00d8 3A       		.uleb128 0x3a
 2325 00d9 0B       		.uleb128 0xb
 2326 00da 3B       		.uleb128 0x3b
 2327 00db 0B       		.uleb128 0xb
 2328 00dc 49       		.uleb128 0x49
 2329 00dd 13       		.uleb128 0x13
ARM GAS  C:\Users\eric\AppData\Local\Temp\ccyeDnt3.s 			page 42


 2330 00de 00       		.byte	0
 2331 00df 00       		.byte	0
 2332 00e0 13       		.uleb128 0x13
 2333 00e1 2E       		.uleb128 0x2e
 2334 00e2 01       		.byte	0x1
 2335 00e3 03       		.uleb128 0x3
 2336 00e4 0E       		.uleb128 0xe
 2337 00e5 3A       		.uleb128 0x3a
 2338 00e6 0B       		.uleb128 0xb
 2339 00e7 3B       		.uleb128 0x3b
 2340 00e8 05       		.uleb128 0x5
 2341 00e9 49       		.uleb128 0x49
 2342 00ea 13       		.uleb128 0x13
 2343 00eb 20       		.uleb128 0x20
 2344 00ec 0B       		.uleb128 0xb
 2345 00ed 01       		.uleb128 0x1
 2346 00ee 13       		.uleb128 0x13
 2347 00ef 00       		.byte	0
 2348 00f0 00       		.byte	0
 2349 00f1 14       		.uleb128 0x14
 2350 00f2 05       		.uleb128 0x5
 2351 00f3 00       		.byte	0
 2352 00f4 03       		.uleb128 0x3
 2353 00f5 08       		.uleb128 0x8
 2354 00f6 3A       		.uleb128 0x3a
 2355 00f7 0B       		.uleb128 0xb
 2356 00f8 3B       		.uleb128 0x3b
 2357 00f9 05       		.uleb128 0x5
 2358 00fa 49       		.uleb128 0x49
 2359 00fb 13       		.uleb128 0x13
 2360 00fc 00       		.byte	0
 2361 00fd 00       		.byte	0
 2362 00fe 15       		.uleb128 0x15
 2363 00ff 05       		.uleb128 0x5
 2364 0100 00       		.byte	0
 2365 0101 03       		.uleb128 0x3
 2366 0102 0E       		.uleb128 0xe
 2367 0103 3A       		.uleb128 0x3a
 2368 0104 0B       		.uleb128 0xb
 2369 0105 3B       		.uleb128 0x3b
 2370 0106 0B       		.uleb128 0xb
 2371 0107 49       		.uleb128 0x49
 2372 0108 13       		.uleb128 0x13
 2373 0109 00       		.byte	0
 2374 010a 00       		.byte	0
 2375 010b 16       		.uleb128 0x16
 2376 010c 34       		.uleb128 0x34
 2377 010d 00       		.byte	0
 2378 010e 03       		.uleb128 0x3
 2379 010f 08       		.uleb128 0x8
 2380 0110 3A       		.uleb128 0x3a
 2381 0111 0B       		.uleb128 0xb
 2382 0112 3B       		.uleb128 0x3b
 2383 0113 0B       		.uleb128 0xb
 2384 0114 49       		.uleb128 0x49
 2385 0115 13       		.uleb128 0x13
 2386 0116 00       		.byte	0
ARM GAS  C:\Users\eric\AppData\Local\Temp\ccyeDnt3.s 			page 43


 2387 0117 00       		.byte	0
 2388 0118 17       		.uleb128 0x17
 2389 0119 34       		.uleb128 0x34
 2390 011a 00       		.byte	0
 2391 011b 03       		.uleb128 0x3
 2392 011c 0E       		.uleb128 0xe
 2393 011d 3A       		.uleb128 0x3a
 2394 011e 0B       		.uleb128 0xb
 2395 011f 3B       		.uleb128 0x3b
 2396 0120 0B       		.uleb128 0xb
 2397 0121 49       		.uleb128 0x49
 2398 0122 13       		.uleb128 0x13
 2399 0123 00       		.byte	0
 2400 0124 00       		.byte	0
 2401 0125 18       		.uleb128 0x18
 2402 0126 2E       		.uleb128 0x2e
 2403 0127 00       		.byte	0
 2404 0128 03       		.uleb128 0x3
 2405 0129 0E       		.uleb128 0xe
 2406 012a 3A       		.uleb128 0x3a
 2407 012b 0B       		.uleb128 0xb
 2408 012c 3B       		.uleb128 0x3b
 2409 012d 05       		.uleb128 0x5
 2410 012e 49       		.uleb128 0x49
 2411 012f 13       		.uleb128 0x13
 2412 0130 20       		.uleb128 0x20
 2413 0131 0B       		.uleb128 0xb
 2414 0132 00       		.byte	0
 2415 0133 00       		.byte	0
 2416 0134 19       		.uleb128 0x19
 2417 0135 2E       		.uleb128 0x2e
 2418 0136 01       		.byte	0x1
 2419 0137 3F       		.uleb128 0x3f
 2420 0138 19       		.uleb128 0x19
 2421 0139 03       		.uleb128 0x3
 2422 013a 0E       		.uleb128 0xe
 2423 013b 3A       		.uleb128 0x3a
 2424 013c 0B       		.uleb128 0xb
 2425 013d 3B       		.uleb128 0x3b
 2426 013e 0B       		.uleb128 0xb
 2427 013f 11       		.uleb128 0x11
 2428 0140 01       		.uleb128 0x1
 2429 0141 12       		.uleb128 0x12
 2430 0142 06       		.uleb128 0x6
 2431 0143 40       		.uleb128 0x40
 2432 0144 18       		.uleb128 0x18
 2433 0145 9742     		.uleb128 0x2117
 2434 0147 19       		.uleb128 0x19
 2435 0148 01       		.uleb128 0x1
 2436 0149 13       		.uleb128 0x13
 2437 014a 00       		.byte	0
 2438 014b 00       		.byte	0
 2439 014c 1A       		.uleb128 0x1a
 2440 014d 05       		.uleb128 0x5
 2441 014e 00       		.byte	0
 2442 014f 03       		.uleb128 0x3
 2443 0150 0E       		.uleb128 0xe
ARM GAS  C:\Users\eric\AppData\Local\Temp\ccyeDnt3.s 			page 44


 2444 0151 3A       		.uleb128 0x3a
 2445 0152 0B       		.uleb128 0xb
 2446 0153 3B       		.uleb128 0x3b
 2447 0154 0B       		.uleb128 0xb
 2448 0155 49       		.uleb128 0x49
 2449 0156 13       		.uleb128 0x13
 2450 0157 02       		.uleb128 0x2
 2451 0158 17       		.uleb128 0x17
 2452 0159 00       		.byte	0
 2453 015a 00       		.byte	0
 2454 015b 1B       		.uleb128 0x1b
 2455 015c 05       		.uleb128 0x5
 2456 015d 00       		.byte	0
 2457 015e 03       		.uleb128 0x3
 2458 015f 08       		.uleb128 0x8
 2459 0160 3A       		.uleb128 0x3a
 2460 0161 0B       		.uleb128 0xb
 2461 0162 3B       		.uleb128 0x3b
 2462 0163 0B       		.uleb128 0xb
 2463 0164 49       		.uleb128 0x49
 2464 0165 13       		.uleb128 0x13
 2465 0166 02       		.uleb128 0x2
 2466 0167 17       		.uleb128 0x17
 2467 0168 00       		.byte	0
 2468 0169 00       		.byte	0
 2469 016a 1C       		.uleb128 0x1c
 2470 016b 34       		.uleb128 0x34
 2471 016c 00       		.byte	0
 2472 016d 03       		.uleb128 0x3
 2473 016e 0E       		.uleb128 0xe
 2474 016f 3A       		.uleb128 0x3a
 2475 0170 0B       		.uleb128 0xb
 2476 0171 3B       		.uleb128 0x3b
 2477 0172 0B       		.uleb128 0xb
 2478 0173 49       		.uleb128 0x49
 2479 0174 13       		.uleb128 0x13
 2480 0175 02       		.uleb128 0x2
 2481 0176 17       		.uleb128 0x17
 2482 0177 00       		.byte	0
 2483 0178 00       		.byte	0
 2484 0179 1D       		.uleb128 0x1d
 2485 017a 34       		.uleb128 0x34
 2486 017b 00       		.byte	0
 2487 017c 03       		.uleb128 0x3
 2488 017d 0E       		.uleb128 0xe
 2489 017e 3A       		.uleb128 0x3a
 2490 017f 0B       		.uleb128 0xb
 2491 0180 3B       		.uleb128 0x3b
 2492 0181 0B       		.uleb128 0xb
 2493 0182 49       		.uleb128 0x49
 2494 0183 13       		.uleb128 0x13
 2495 0184 02       		.uleb128 0x2
 2496 0185 18       		.uleb128 0x18
 2497 0186 00       		.byte	0
 2498 0187 00       		.byte	0
 2499 0188 1E       		.uleb128 0x1e
 2500 0189 34       		.uleb128 0x34
ARM GAS  C:\Users\eric\AppData\Local\Temp\ccyeDnt3.s 			page 45


 2501 018a 00       		.byte	0
 2502 018b 03       		.uleb128 0x3
 2503 018c 08       		.uleb128 0x8
 2504 018d 3A       		.uleb128 0x3a
 2505 018e 0B       		.uleb128 0xb
 2506 018f 3B       		.uleb128 0x3b
 2507 0190 0B       		.uleb128 0xb
 2508 0191 49       		.uleb128 0x49
 2509 0192 13       		.uleb128 0x13
 2510 0193 02       		.uleb128 0x2
 2511 0194 17       		.uleb128 0x17
 2512 0195 00       		.byte	0
 2513 0196 00       		.byte	0
 2514 0197 1F       		.uleb128 0x1f
 2515 0198 0B       		.uleb128 0xb
 2516 0199 01       		.byte	0x1
 2517 019a 55       		.uleb128 0x55
 2518 019b 17       		.uleb128 0x17
 2519 019c 01       		.uleb128 0x1
 2520 019d 13       		.uleb128 0x13
 2521 019e 00       		.byte	0
 2522 019f 00       		.byte	0
 2523 01a0 20       		.uleb128 0x20
 2524 01a1 1D       		.uleb128 0x1d
 2525 01a2 01       		.byte	0x1
 2526 01a3 31       		.uleb128 0x31
 2527 01a4 13       		.uleb128 0x13
 2528 01a5 52       		.uleb128 0x52
 2529 01a6 01       		.uleb128 0x1
 2530 01a7 55       		.uleb128 0x55
 2531 01a8 17       		.uleb128 0x17
 2532 01a9 58       		.uleb128 0x58
 2533 01aa 0B       		.uleb128 0xb
 2534 01ab 59       		.uleb128 0x59
 2535 01ac 0B       		.uleb128 0xb
 2536 01ad 01       		.uleb128 0x1
 2537 01ae 13       		.uleb128 0x13
 2538 01af 00       		.byte	0
 2539 01b0 00       		.byte	0
 2540 01b1 21       		.uleb128 0x21
 2541 01b2 05       		.uleb128 0x5
 2542 01b3 00       		.byte	0
 2543 01b4 31       		.uleb128 0x31
 2544 01b5 13       		.uleb128 0x13
 2545 01b6 02       		.uleb128 0x2
 2546 01b7 17       		.uleb128 0x17
 2547 01b8 00       		.byte	0
 2548 01b9 00       		.byte	0
 2549 01ba 22       		.uleb128 0x22
 2550 01bb 0B       		.uleb128 0xb
 2551 01bc 01       		.byte	0x1
 2552 01bd 55       		.uleb128 0x55
 2553 01be 17       		.uleb128 0x17
 2554 01bf 00       		.byte	0
 2555 01c0 00       		.byte	0
 2556 01c1 23       		.uleb128 0x23
 2557 01c2 34       		.uleb128 0x34
ARM GAS  C:\Users\eric\AppData\Local\Temp\ccyeDnt3.s 			page 46


 2558 01c3 00       		.byte	0
 2559 01c4 31       		.uleb128 0x31
 2560 01c5 13       		.uleb128 0x13
 2561 01c6 00       		.byte	0
 2562 01c7 00       		.byte	0
 2563 01c8 24       		.uleb128 0x24
 2564 01c9 05       		.uleb128 0x5
 2565 01ca 00       		.byte	0
 2566 01cb 31       		.uleb128 0x31
 2567 01cc 13       		.uleb128 0x13
 2568 01cd 00       		.byte	0
 2569 01ce 00       		.byte	0
 2570 01cf 25       		.uleb128 0x25
 2571 01d0 1D       		.uleb128 0x1d
 2572 01d1 01       		.byte	0x1
 2573 01d2 31       		.uleb128 0x31
 2574 01d3 13       		.uleb128 0x13
 2575 01d4 11       		.uleb128 0x11
 2576 01d5 01       		.uleb128 0x1
 2577 01d6 12       		.uleb128 0x12
 2578 01d7 06       		.uleb128 0x6
 2579 01d8 58       		.uleb128 0x58
 2580 01d9 0B       		.uleb128 0xb
 2581 01da 59       		.uleb128 0x59
 2582 01db 0B       		.uleb128 0xb
 2583 01dc 00       		.byte	0
 2584 01dd 00       		.byte	0
 2585 01de 26       		.uleb128 0x26
 2586 01df 1D       		.uleb128 0x1d
 2587 01e0 01       		.byte	0x1
 2588 01e1 31       		.uleb128 0x31
 2589 01e2 13       		.uleb128 0x13
 2590 01e3 11       		.uleb128 0x11
 2591 01e4 01       		.uleb128 0x1
 2592 01e5 12       		.uleb128 0x12
 2593 01e6 06       		.uleb128 0x6
 2594 01e7 58       		.uleb128 0x58
 2595 01e8 0B       		.uleb128 0xb
 2596 01e9 59       		.uleb128 0x59
 2597 01ea 05       		.uleb128 0x5
 2598 01eb 00       		.byte	0
 2599 01ec 00       		.byte	0
 2600 01ed 27       		.uleb128 0x27
 2601 01ee 34       		.uleb128 0x34
 2602 01ef 00       		.byte	0
 2603 01f0 31       		.uleb128 0x31
 2604 01f1 13       		.uleb128 0x13
 2605 01f2 02       		.uleb128 0x2
 2606 01f3 17       		.uleb128 0x17
 2607 01f4 00       		.byte	0
 2608 01f5 00       		.byte	0
 2609 01f6 28       		.uleb128 0x28
 2610 01f7 898201   		.uleb128 0x4109
 2611 01fa 00       		.byte	0
 2612 01fb 11       		.uleb128 0x11
 2613 01fc 01       		.uleb128 0x1
 2614 01fd 31       		.uleb128 0x31
ARM GAS  C:\Users\eric\AppData\Local\Temp\ccyeDnt3.s 			page 47


 2615 01fe 13       		.uleb128 0x13
 2616 01ff 00       		.byte	0
 2617 0200 00       		.byte	0
 2618 0201 29       		.uleb128 0x29
 2619 0202 1D       		.uleb128 0x1d
 2620 0203 01       		.byte	0x1
 2621 0204 31       		.uleb128 0x31
 2622 0205 13       		.uleb128 0x13
 2623 0206 52       		.uleb128 0x52
 2624 0207 01       		.uleb128 0x1
 2625 0208 55       		.uleb128 0x55
 2626 0209 17       		.uleb128 0x17
 2627 020a 58       		.uleb128 0x58
 2628 020b 0B       		.uleb128 0xb
 2629 020c 59       		.uleb128 0x59
 2630 020d 0B       		.uleb128 0xb
 2631 020e 00       		.byte	0
 2632 020f 00       		.byte	0
 2633 0210 2A       		.uleb128 0x2a
 2634 0211 1D       		.uleb128 0x1d
 2635 0212 01       		.byte	0x1
 2636 0213 31       		.uleb128 0x31
 2637 0214 13       		.uleb128 0x13
 2638 0215 11       		.uleb128 0x11
 2639 0216 01       		.uleb128 0x1
 2640 0217 12       		.uleb128 0x12
 2641 0218 06       		.uleb128 0x6
 2642 0219 58       		.uleb128 0x58
 2643 021a 0B       		.uleb128 0xb
 2644 021b 59       		.uleb128 0x59
 2645 021c 0B       		.uleb128 0xb
 2646 021d 01       		.uleb128 0x1
 2647 021e 13       		.uleb128 0x13
 2648 021f 00       		.byte	0
 2649 0220 00       		.byte	0
 2650 0221 2B       		.uleb128 0x2b
 2651 0222 1D       		.uleb128 0x1d
 2652 0223 01       		.byte	0x1
 2653 0224 31       		.uleb128 0x31
 2654 0225 13       		.uleb128 0x13
 2655 0226 52       		.uleb128 0x52
 2656 0227 01       		.uleb128 0x1
 2657 0228 55       		.uleb128 0x55
 2658 0229 17       		.uleb128 0x17
 2659 022a 58       		.uleb128 0x58
 2660 022b 0B       		.uleb128 0xb
 2661 022c 59       		.uleb128 0x59
 2662 022d 05       		.uleb128 0x5
 2663 022e 00       		.byte	0
 2664 022f 00       		.byte	0
 2665 0230 2C       		.uleb128 0x2c
 2666 0231 05       		.uleb128 0x5
 2667 0232 00       		.byte	0
 2668 0233 03       		.uleb128 0x3
 2669 0234 0E       		.uleb128 0xe
 2670 0235 3A       		.uleb128 0x3a
 2671 0236 0B       		.uleb128 0xb
ARM GAS  C:\Users\eric\AppData\Local\Temp\ccyeDnt3.s 			page 48


 2672 0237 3B       		.uleb128 0x3b
 2673 0238 0B       		.uleb128 0xb
 2674 0239 49       		.uleb128 0x49
 2675 023a 13       		.uleb128 0x13
 2676 023b 02       		.uleb128 0x2
 2677 023c 18       		.uleb128 0x18
 2678 023d 00       		.byte	0
 2679 023e 00       		.byte	0
 2680 023f 2D       		.uleb128 0x2d
 2681 0240 34       		.uleb128 0x34
 2682 0241 00       		.byte	0
 2683 0242 03       		.uleb128 0x3
 2684 0243 0E       		.uleb128 0xe
 2685 0244 3A       		.uleb128 0x3a
 2686 0245 0B       		.uleb128 0xb
 2687 0246 3B       		.uleb128 0x3b
 2688 0247 0B       		.uleb128 0xb
 2689 0248 49       		.uleb128 0x49
 2690 0249 13       		.uleb128 0x13
 2691 024a 3F       		.uleb128 0x3f
 2692 024b 19       		.uleb128 0x19
 2693 024c 3C       		.uleb128 0x3c
 2694 024d 19       		.uleb128 0x19
 2695 024e 00       		.byte	0
 2696 024f 00       		.byte	0
 2697 0250 2E       		.uleb128 0x2e
 2698 0251 21       		.uleb128 0x21
 2699 0252 00       		.byte	0
 2700 0253 49       		.uleb128 0x49
 2701 0254 13       		.uleb128 0x13
 2702 0255 2F       		.uleb128 0x2f
 2703 0256 05       		.uleb128 0x5
 2704 0257 00       		.byte	0
 2705 0258 00       		.byte	0
 2706 0259 2F       		.uleb128 0x2f
 2707 025a 34       		.uleb128 0x34
 2708 025b 00       		.byte	0
 2709 025c 03       		.uleb128 0x3
 2710 025d 0E       		.uleb128 0xe
 2711 025e 3A       		.uleb128 0x3a
 2712 025f 0B       		.uleb128 0xb
 2713 0260 3B       		.uleb128 0x3b
 2714 0261 05       		.uleb128 0x5
 2715 0262 49       		.uleb128 0x49
 2716 0263 13       		.uleb128 0x13
 2717 0264 3F       		.uleb128 0x3f
 2718 0265 19       		.uleb128 0x19
 2719 0266 3C       		.uleb128 0x3c
 2720 0267 19       		.uleb128 0x19
 2721 0268 00       		.byte	0
 2722 0269 00       		.byte	0
 2723 026a 30       		.uleb128 0x30
 2724 026b 34       		.uleb128 0x34
 2725 026c 00       		.byte	0
 2726 026d 03       		.uleb128 0x3
 2727 026e 0E       		.uleb128 0xe
 2728 026f 3A       		.uleb128 0x3a
ARM GAS  C:\Users\eric\AppData\Local\Temp\ccyeDnt3.s 			page 49


 2729 0270 0B       		.uleb128 0xb
 2730 0271 3B       		.uleb128 0x3b
 2731 0272 0B       		.uleb128 0xb
 2732 0273 49       		.uleb128 0x49
 2733 0274 13       		.uleb128 0x13
 2734 0275 3F       		.uleb128 0x3f
 2735 0276 19       		.uleb128 0x19
 2736 0277 02       		.uleb128 0x2
 2737 0278 18       		.uleb128 0x18
 2738 0279 00       		.byte	0
 2739 027a 00       		.byte	0
 2740 027b 31       		.uleb128 0x31
 2741 027c 2E       		.uleb128 0x2e
 2742 027d 00       		.byte	0
 2743 027e 3F       		.uleb128 0x3f
 2744 027f 19       		.uleb128 0x19
 2745 0280 3C       		.uleb128 0x3c
 2746 0281 19       		.uleb128 0x19
 2747 0282 6E       		.uleb128 0x6e
 2748 0283 0E       		.uleb128 0xe
 2749 0284 03       		.uleb128 0x3
 2750 0285 0E       		.uleb128 0xe
 2751 0286 3A       		.uleb128 0x3a
 2752 0287 0B       		.uleb128 0xb
 2753 0288 3B       		.uleb128 0x3b
 2754 0289 05       		.uleb128 0x5
 2755 028a 00       		.byte	0
 2756 028b 00       		.byte	0
 2757 028c 00       		.byte	0
 2758              		.section	.debug_loc,"",%progbits
 2759              	.Ldebug_loc0:
 2760              	.LLST0:
 2761 0000 00000000 		.4byte	.LVL0-.Ltext0
 2762 0004 08000000 		.4byte	.LVL1-.Ltext0
 2763 0008 0100     		.2byte	0x1
 2764 000a 50       		.byte	0x50
 2765 000b 08000000 		.4byte	.LVL1-.Ltext0
 2766 000f 24000000 		.4byte	.LFE239-.Ltext0
 2767 0013 0400     		.2byte	0x4
 2768 0015 F3       		.byte	0xf3
 2769 0016 01       		.uleb128 0x1
 2770 0017 50       		.byte	0x50
 2771 0018 9F       		.byte	0x9f
 2772 0019 00000000 		.4byte	0
 2773 001d 00000000 		.4byte	0
 2774              	.LLST1:
 2775 0021 00000000 		.4byte	.LVL0-.Ltext0
 2776 0025 0A000000 		.4byte	.LVL2-.Ltext0
 2777 0029 0100     		.2byte	0x1
 2778 002b 51       		.byte	0x51
 2779 002c 0A000000 		.4byte	.LVL2-.Ltext0
 2780 0030 24000000 		.4byte	.LFE239-.Ltext0
 2781 0034 0400     		.2byte	0x4
 2782 0036 F3       		.byte	0xf3
 2783 0037 01       		.uleb128 0x1
 2784 0038 51       		.byte	0x51
 2785 0039 9F       		.byte	0x9f
ARM GAS  C:\Users\eric\AppData\Local\Temp\ccyeDnt3.s 			page 50


 2786 003a 00000000 		.4byte	0
 2787 003e 00000000 		.4byte	0
 2788              	.LLST2:
 2789 0042 24000000 		.4byte	.LVL3-.Ltext0
 2790 0046 8E000000 		.4byte	.LVL9-.Ltext0
 2791 004a 0100     		.2byte	0x1
 2792 004c 50       		.byte	0x50
 2793 004d 8E000000 		.4byte	.LVL9-.Ltext0
 2794 0051 98020000 		.4byte	.LVL58-.Ltext0
 2795 0055 0100     		.2byte	0x1
 2796 0057 5A       		.byte	0x5a
 2797 0058 98020000 		.4byte	.LVL58-.Ltext0
 2798 005c C0020000 		.4byte	.LFE243-.Ltext0
 2799 0060 0400     		.2byte	0x4
 2800 0062 F3       		.byte	0xf3
 2801 0063 01       		.uleb128 0x1
 2802 0064 50       		.byte	0x50
 2803 0065 9F       		.byte	0x9f
 2804 0066 00000000 		.4byte	0
 2805 006a 00000000 		.4byte	0
 2806              	.LLST3:
 2807 006e 24000000 		.4byte	.LVL3-.Ltext0
 2808 0072 82000000 		.4byte	.LVL7-.Ltext0
 2809 0076 0100     		.2byte	0x1
 2810 0078 51       		.byte	0x51
 2811 0079 82000000 		.4byte	.LVL7-.Ltext0
 2812 007d 68010000 		.4byte	.LVL34-.Ltext0
 2813 0081 0100     		.2byte	0x1
 2814 0083 56       		.byte	0x56
 2815 0084 68010000 		.4byte	.LVL34-.Ltext0
 2816 0088 C0020000 		.4byte	.LFE243-.Ltext0
 2817 008c 0400     		.2byte	0x4
 2818 008e F3       		.byte	0xf3
 2819 008f 01       		.uleb128 0x1
 2820 0090 51       		.byte	0x51
 2821 0091 9F       		.byte	0x9f
 2822 0092 00000000 		.4byte	0
 2823 0096 00000000 		.4byte	0
 2824              	.LLST4:
 2825 009a 24000000 		.4byte	.LVL3-.Ltext0
 2826 009e 7A000000 		.4byte	.LVL6-.Ltext0
 2827 00a2 0100     		.2byte	0x1
 2828 00a4 52       		.byte	0x52
 2829 00a5 7A000000 		.4byte	.LVL6-.Ltext0
 2830 00a9 C0020000 		.4byte	.LFE243-.Ltext0
 2831 00ad 0400     		.2byte	0x4
 2832 00af F3       		.byte	0xf3
 2833 00b0 01       		.uleb128 0x1
 2834 00b1 52       		.byte	0x52
 2835 00b2 9F       		.byte	0x9f
 2836 00b3 00000000 		.4byte	0
 2837 00b7 00000000 		.4byte	0
 2838              	.LLST5:
 2839 00bb 32000000 		.4byte	.LVL4-.Ltext0
 2840 00bf 78000000 		.4byte	.LVL5-.Ltext0
 2841 00c3 0100     		.2byte	0x1
 2842 00c5 58       		.byte	0x58
ARM GAS  C:\Users\eric\AppData\Local\Temp\ccyeDnt3.s 			page 51


 2843 00c6 78000000 		.4byte	.LVL5-.Ltext0
 2844 00ca 8E000000 		.4byte	.LVL9-.Ltext0
 2845 00ce 0500     		.2byte	0x5
 2846 00d0 03       		.byte	0x3
 2847 00d1 0C000000 		.4byte	_ZL7s_state+12
 2848 00d5 00000000 		.4byte	0
 2849 00d9 00000000 		.4byte	0
 2850              	.LLST6:
 2851 00dd 8A000000 		.4byte	.LVL8-.Ltext0
 2852 00e1 94020000 		.4byte	.LVL57-.Ltext0
 2853 00e5 0200     		.2byte	0x2
 2854 00e7 90       		.byte	0x90
 2855 00e8 54       		.uleb128 0x54
 2856 00e9 94020000 		.4byte	.LVL57-.Ltext0
 2857 00ed C0020000 		.4byte	.LFE243-.Ltext0
 2858 00f1 0500     		.2byte	0x5
 2859 00f3 03       		.byte	0x3
 2860 00f4 08000000 		.4byte	_ZL7s_state+8
 2861 00f8 00000000 		.4byte	0
 2862 00fc 00000000 		.4byte	0
 2863              	.LLST7:
 2864 0100 8A000000 		.4byte	.LVL8-.Ltext0
 2865 0104 94020000 		.4byte	.LVL57-.Ltext0
 2866 0108 0200     		.2byte	0x2
 2867 010a 90       		.byte	0x90
 2868 010b 50       		.uleb128 0x50
 2869 010c 00000000 		.4byte	0
 2870 0110 00000000 		.4byte	0
 2871              	.LLST8:
 2872 0114 68010000 		.4byte	.LVL34-.Ltext0
 2873 0118 98020000 		.4byte	.LVL58-.Ltext0
 2874 011c 0100     		.2byte	0x1
 2875 011e 56       		.byte	0x56
 2876 011f 00000000 		.4byte	0
 2877 0123 00000000 		.4byte	0
 2878              	.LLST9:
 2879 0127 8A000000 		.4byte	.LVL8-.Ltext0
 2880 012b 98020000 		.4byte	.LVL58-.Ltext0
 2881 012f 0100     		.2byte	0x1
 2882 0131 58       		.byte	0x58
 2883 0132 98020000 		.4byte	.LVL58-.Ltext0
 2884 0136 C0020000 		.4byte	.LFE243-.Ltext0
 2885 013a 0A00     		.2byte	0xa
 2886 013c F3       		.byte	0xf3
 2887 013d 01       		.uleb128 0x1
 2888 013e 52       		.byte	0x52
 2889 013f 32       		.byte	0x32
 2890 0140 24       		.byte	0x24
 2891 0141 F3       		.byte	0xf3
 2892 0142 01       		.uleb128 0x1
 2893 0143 51       		.byte	0x51
 2894 0144 22       		.byte	0x22
 2895 0145 9F       		.byte	0x9f
 2896 0146 00000000 		.4byte	0
 2897 014a 00000000 		.4byte	0
 2898              	.LLST10:
 2899 014e 8A000000 		.4byte	.LVL8-.Ltext0
ARM GAS  C:\Users\eric\AppData\Local\Temp\ccyeDnt3.s 			page 52


 2900 0152 98020000 		.4byte	.LVL58-.Ltext0
 2901 0156 0100     		.2byte	0x1
 2902 0158 59       		.byte	0x59
 2903 0159 00000000 		.4byte	0
 2904 015d 00000000 		.4byte	0
 2905              	.LLST11:
 2906 0161 8E000000 		.4byte	.LVL9-.Ltext0
 2907 0165 68010000 		.4byte	.LVL34-.Ltext0
 2908 0169 0200     		.2byte	0x2
 2909 016b 7D       		.byte	0x7d
 2910 016c 00       		.sleb128 0
 2911 016d 00000000 		.4byte	0
 2912 0171 00000000 		.4byte	0
 2913              	.LLST12:
 2914 0175 8E000000 		.4byte	.LVL9-.Ltext0
 2915 0179 9C000000 		.4byte	.LVL10-.Ltext0
 2916 017d 0100     		.2byte	0x1
 2917 017f 55       		.byte	0x55
 2918 0180 A2000000 		.4byte	.LVL11-.Ltext0
 2919 0184 68010000 		.4byte	.LVL34-.Ltext0
 2920 0188 0100     		.2byte	0x1
 2921 018a 55       		.byte	0x55
 2922 018b 68010000 		.4byte	.LVL34-.Ltext0
 2923 018f 8A010000 		.4byte	.LVL37-.Ltext0
 2924 0193 0100     		.2byte	0x1
 2925 0195 52       		.byte	0x52
 2926 0196 8A010000 		.4byte	.LVL37-.Ltext0
 2927 019a A4010000 		.4byte	.LVL40-.Ltext0
 2928 019e 0300     		.2byte	0x3
 2929 01a0 72       		.byte	0x72
 2930 01a1 7F       		.sleb128 -1
 2931 01a2 9F       		.byte	0x9f
 2932 01a3 A4010000 		.4byte	.LVL40-.Ltext0
 2933 01a7 B9010000 		.4byte	.LVL43-1-.Ltext0
 2934 01ab 0100     		.2byte	0x1
 2935 01ad 52       		.byte	0x52
 2936 01ae 5A020000 		.4byte	.LVL52-.Ltext0
 2937 01b2 6E020000 		.4byte	.LVL53-.Ltext0
 2938 01b6 0100     		.2byte	0x1
 2939 01b8 52       		.byte	0x52
 2940 01b9 00000000 		.4byte	0
 2941 01bd 00000000 		.4byte	0
 2942              	.LLST13:
 2943 01c1 A8000000 		.4byte	.LVL12-.Ltext0
 2944 01c5 B6000000 		.4byte	.LVL14-.Ltext0
 2945 01c9 0F00     		.2byte	0xf
 2946 01cb 7D       		.byte	0x7d
 2947 01cc 00       		.sleb128 0
 2948 01cd 06       		.byte	0x6
 2949 01ce 08       		.byte	0x8
 2950 01cf FF       		.byte	0xff
 2951 01d0 1A       		.byte	0x1a
 2952 01d1 75       		.byte	0x75
 2953 01d2 00       		.sleb128 0
 2954 01d3 70       		.byte	0x70
 2955 01d4 00       		.sleb128 0
 2956 01d5 1C       		.byte	0x1c
ARM GAS  C:\Users\eric\AppData\Local\Temp\ccyeDnt3.s 			page 53


 2957 01d6 31       		.byte	0x31
 2958 01d7 26       		.byte	0x26
 2959 01d8 1E       		.byte	0x1e
 2960 01d9 9F       		.byte	0x9f
 2961 01da B6000000 		.4byte	.LVL14-.Ltext0
 2962 01de 64010000 		.4byte	.LVL33-.Ltext0
 2963 01e2 1200     		.2byte	0x12
 2964 01e4 7D       		.byte	0x7d
 2965 01e5 00       		.sleb128 0
 2966 01e6 06       		.byte	0x6
 2967 01e7 08       		.byte	0x8
 2968 01e8 FF       		.byte	0xff
 2969 01e9 1A       		.byte	0x1a
 2970 01ea 75       		.byte	0x75
 2971 01eb 00       		.sleb128 0
 2972 01ec 79       		.byte	0x79
 2973 01ed 00       		.sleb128 0
 2974 01ee 08       		.byte	0x8
 2975 01ef FF       		.byte	0xff
 2976 01f0 1A       		.byte	0x1a
 2977 01f1 1C       		.byte	0x1c
 2978 01f2 31       		.byte	0x31
 2979 01f3 26       		.byte	0x26
 2980 01f4 1E       		.byte	0x1e
 2981 01f5 9F       		.byte	0x9f
 2982 01f6 64010000 		.4byte	.LVL33-.Ltext0
 2983 01fa 68010000 		.4byte	.LVL34-.Ltext0
 2984 01fe 1300     		.2byte	0x13
 2985 0200 7D       		.byte	0x7d
 2986 0201 00       		.sleb128 0
 2987 0202 06       		.byte	0x6
 2988 0203 08       		.byte	0x8
 2989 0204 FF       		.byte	0xff
 2990 0205 1A       		.byte	0x1a
 2991 0206 79       		.byte	0x79
 2992 0207 00       		.sleb128 0
 2993 0208 08       		.byte	0x8
 2994 0209 FF       		.byte	0xff
 2995 020a 1A       		.byte	0x1a
 2996 020b 20       		.byte	0x20
 2997 020c 75       		.byte	0x75
 2998 020d 00       		.sleb128 0
 2999 020e 22       		.byte	0x22
 3000 020f 31       		.byte	0x31
 3001 0210 26       		.byte	0x26
 3002 0211 1E       		.byte	0x1e
 3003 0212 9F       		.byte	0x9f
 3004 0213 00000000 		.4byte	0
 3005 0217 00000000 		.4byte	0
 3006              	.LLST14:
 3007 021b EE000000 		.4byte	.LVL25-.Ltext0
 3008 021f 38010000 		.4byte	.LVL31-.Ltext0
 3009 0223 0100     		.2byte	0x1
 3010 0225 50       		.byte	0x50
 3011 0226 00000000 		.4byte	0
 3012 022a 00000000 		.4byte	0
 3013              	.LLST15:
ARM GAS  C:\Users\eric\AppData\Local\Temp\ccyeDnt3.s 			page 54


 3014 022e EE000000 		.4byte	.LVL25-.Ltext0
 3015 0232 F2000000 		.4byte	.LVL26-.Ltext0
 3016 0236 0100     		.2byte	0x1
 3017 0238 53       		.byte	0x53
 3018 0239 F2000000 		.4byte	.LVL26-.Ltext0
 3019 023d F4000000 		.4byte	.LVL27-.Ltext0
 3020 0241 0300     		.2byte	0x3
 3021 0243 73       		.byte	0x73
 3022 0244 7F       		.sleb128 -1
 3023 0245 9F       		.byte	0x9f
 3024 0246 F4000000 		.4byte	.LVL27-.Ltext0
 3025 024a 38010000 		.4byte	.LVL31-.Ltext0
 3026 024e D600     		.2byte	0xd6
 3027 0250 7A       		.byte	0x7a
 3028 0251 04       		.sleb128 4
 3029 0252 94       		.byte	0x94
 3030 0253 02       		.byte	0x2
 3031 0254 0A       		.byte	0xa
 3032 0255 FFFF     		.2byte	0xffff
 3033 0257 1A       		.byte	0x1a
 3034 0258 38       		.byte	0x38
 3035 0259 25       		.byte	0x25
 3036 025a 75       		.byte	0x75
 3037 025b 00       		.sleb128 0
 3038 025c 79       		.byte	0x79
 3039 025d 00       		.sleb128 0
 3040 025e 08       		.byte	0x8
 3041 025f FF       		.byte	0xff
 3042 0260 1A       		.byte	0x1a
 3043 0261 1C       		.byte	0x1c
 3044 0262 31       		.byte	0x31
 3045 0263 26       		.byte	0x26
 3046 0264 7D       		.byte	0x7d
 3047 0265 00       		.sleb128 0
 3048 0266 94       		.byte	0x94
 3049 0267 01       		.byte	0x1
 3050 0268 08       		.byte	0x8
 3051 0269 FF       		.byte	0xff
 3052 026a 1A       		.byte	0x1a
 3053 026b 1E       		.byte	0x1e
 3054 026c 7A       		.byte	0x7a
 3055 026d 04       		.sleb128 4
 3056 026e 94       		.byte	0x94
 3057 026f 01       		.byte	0x1
 3058 0270 08       		.byte	0x8
 3059 0271 FF       		.byte	0xff
 3060 0272 1A       		.byte	0x1a
 3061 0273 22       		.byte	0x22
 3062 0274 08       		.byte	0x8
 3063 0275 FF       		.byte	0xff
 3064 0276 1B       		.byte	0x1b
 3065 0277 31       		.byte	0x31
 3066 0278 1C       		.byte	0x1c
 3067 0279 75       		.byte	0x75
 3068 027a 00       		.sleb128 0
 3069 027b 79       		.byte	0x79
 3070 027c 00       		.sleb128 0
ARM GAS  C:\Users\eric\AppData\Local\Temp\ccyeDnt3.s 			page 55


 3071 027d 08       		.byte	0x8
 3072 027e FF       		.byte	0xff
 3073 027f 1A       		.byte	0x1a
 3074 0280 1C       		.byte	0x1c
 3075 0281 31       		.byte	0x31
 3076 0282 26       		.byte	0x26
 3077 0283 7D       		.byte	0x7d
 3078 0284 00       		.sleb128 0
 3079 0285 94       		.byte	0x94
 3080 0286 01       		.byte	0x1
 3081 0287 08       		.byte	0x8
 3082 0288 FF       		.byte	0xff
 3083 0289 1A       		.byte	0x1a
 3084 028a 1E       		.byte	0x1e
 3085 028b 7A       		.byte	0x7a
 3086 028c 04       		.sleb128 4
 3087 028d 94       		.byte	0x94
 3088 028e 01       		.byte	0x1
 3089 028f 08       		.byte	0x8
 3090 0290 FF       		.byte	0xff
 3091 0291 1A       		.byte	0x1a
 3092 0292 22       		.byte	0x22
 3093 0293 08       		.byte	0x8
 3094 0294 FF       		.byte	0xff
 3095 0295 1B       		.byte	0x1b
 3096 0296 75       		.byte	0x75
 3097 0297 00       		.sleb128 0
 3098 0298 79       		.byte	0x79
 3099 0299 00       		.sleb128 0
 3100 029a 08       		.byte	0x8
 3101 029b FF       		.byte	0xff
 3102 029c 1A       		.byte	0x1a
 3103 029d 1C       		.byte	0x1c
 3104 029e 31       		.byte	0x31
 3105 029f 26       		.byte	0x26
 3106 02a0 7D       		.byte	0x7d
 3107 02a1 00       		.sleb128 0
 3108 02a2 94       		.byte	0x94
 3109 02a3 01       		.byte	0x1
 3110 02a4 08       		.byte	0x8
 3111 02a5 FF       		.byte	0xff
 3112 02a6 1A       		.byte	0x1a
 3113 02a7 1E       		.byte	0x1e
 3114 02a8 7A       		.byte	0x7a
 3115 02a9 04       		.sleb128 4
 3116 02aa 94       		.byte	0x94
 3117 02ab 01       		.byte	0x1
 3118 02ac 08       		.byte	0x8
 3119 02ad FF       		.byte	0xff
 3120 02ae 1A       		.byte	0x1a
 3121 02af 22       		.byte	0x22
 3122 02b0 7C       		.byte	0x7c
 3123 02b1 00       		.sleb128 0
 3124 02b2 1C       		.byte	0x1c
 3125 02b3 30       		.byte	0x30
 3126 02b4 2D       		.byte	0x2d
 3127 02b5 28       		.byte	0x28
ARM GAS  C:\Users\eric\AppData\Local\Temp\ccyeDnt3.s 			page 56


 3128 02b6 0100     		.2byte	0x1
 3129 02b8 16       		.byte	0x16
 3130 02b9 13       		.byte	0x13
 3131 02ba 22       		.byte	0x22
 3132 02bb 38       		.byte	0x38
 3133 02bc 24       		.byte	0x24
 3134 02bd 75       		.byte	0x75
 3135 02be 00       		.sleb128 0
 3136 02bf 79       		.byte	0x79
 3137 02c0 00       		.sleb128 0
 3138 02c1 08       		.byte	0x8
 3139 02c2 FF       		.byte	0xff
 3140 02c3 1A       		.byte	0x1a
 3141 02c4 1C       		.byte	0x1c
 3142 02c5 31       		.byte	0x31
 3143 02c6 26       		.byte	0x26
 3144 02c7 7D       		.byte	0x7d
 3145 02c8 00       		.sleb128 0
 3146 02c9 94       		.byte	0x94
 3147 02ca 01       		.byte	0x1
 3148 02cb 08       		.byte	0x8
 3149 02cc FF       		.byte	0xff
 3150 02cd 1A       		.byte	0x1a
 3151 02ce 1E       		.byte	0x1e
 3152 02cf 7A       		.byte	0x7a
 3153 02d0 04       		.sleb128 4
 3154 02d1 94       		.byte	0x94
 3155 02d2 01       		.byte	0x1
 3156 02d3 08       		.byte	0x8
 3157 02d4 FF       		.byte	0xff
 3158 02d5 1A       		.byte	0x1a
 3159 02d6 22       		.byte	0x22
 3160 02d7 7C       		.byte	0x7c
 3161 02d8 00       		.sleb128 0
 3162 02d9 1C       		.byte	0x1c
 3163 02da 23       		.byte	0x23
 3164 02db FF01     		.uleb128 0xff
 3165 02dd 75       		.byte	0x75
 3166 02de 00       		.sleb128 0
 3167 02df 79       		.byte	0x79
 3168 02e0 00       		.sleb128 0
 3169 02e1 08       		.byte	0x8
 3170 02e2 FF       		.byte	0xff
 3171 02e3 1A       		.byte	0x1a
 3172 02e4 1C       		.byte	0x1c
 3173 02e5 31       		.byte	0x31
 3174 02e6 26       		.byte	0x26
 3175 02e7 7D       		.byte	0x7d
 3176 02e8 00       		.sleb128 0
 3177 02e9 94       		.byte	0x94
 3178 02ea 01       		.byte	0x1
 3179 02eb 08       		.byte	0x8
 3180 02ec FF       		.byte	0xff
 3181 02ed 1A       		.byte	0x1a
 3182 02ee 1E       		.byte	0x1e
 3183 02ef 7A       		.byte	0x7a
 3184 02f0 04       		.sleb128 4
ARM GAS  C:\Users\eric\AppData\Local\Temp\ccyeDnt3.s 			page 57


 3185 02f1 94       		.byte	0x94
 3186 02f2 01       		.byte	0x1
 3187 02f3 08       		.byte	0x8
 3188 02f4 FF       		.byte	0xff
 3189 02f5 1A       		.byte	0x1a
 3190 02f6 22       		.byte	0x22
 3191 02f7 7C       		.byte	0x7c
 3192 02f8 00       		.sleb128 0
 3193 02f9 1C       		.byte	0x1c
 3194 02fa 75       		.byte	0x75
 3195 02fb 00       		.sleb128 0
 3196 02fc 79       		.byte	0x79
 3197 02fd 00       		.sleb128 0
 3198 02fe 08       		.byte	0x8
 3199 02ff FF       		.byte	0xff
 3200 0300 1A       		.byte	0x1a
 3201 0301 1C       		.byte	0x1c
 3202 0302 31       		.byte	0x31
 3203 0303 26       		.byte	0x26
 3204 0304 7D       		.byte	0x7d
 3205 0305 00       		.sleb128 0
 3206 0306 94       		.byte	0x94
 3207 0307 01       		.byte	0x1
 3208 0308 08       		.byte	0x8
 3209 0309 FF       		.byte	0xff
 3210 030a 1A       		.byte	0x1a
 3211 030b 1E       		.byte	0x1e
 3212 030c 7A       		.byte	0x7a
 3213 030d 04       		.sleb128 4
 3214 030e 94       		.byte	0x94
 3215 030f 01       		.byte	0x1
 3216 0310 08       		.byte	0x8
 3217 0311 FF       		.byte	0xff
 3218 0312 1A       		.byte	0x1a
 3219 0313 22       		.byte	0x22
 3220 0314 7C       		.byte	0x7c
 3221 0315 00       		.sleb128 0
 3222 0316 1C       		.byte	0x1c
 3223 0317 30       		.byte	0x30
 3224 0318 2D       		.byte	0x2d
 3225 0319 28       		.byte	0x28
 3226 031a 0100     		.2byte	0x1
 3227 031c 16       		.byte	0x16
 3228 031d 13       		.byte	0x13
 3229 031e 21       		.byte	0x21
 3230 031f 0A       		.byte	0xa
 3231 0320 FFFF     		.2byte	0xffff
 3232 0322 1A       		.byte	0x1a
 3233 0323 38       		.byte	0x38
 3234 0324 26       		.byte	0x26
 3235 0325 9F       		.byte	0x9f
 3236 0326 00000000 		.4byte	0
 3237 032a 00000000 		.4byte	0
 3238              	.LLST16:
 3239 032e EE000000 		.4byte	.LVL25-.Ltext0
 3240 0332 F2000000 		.4byte	.LVL26-.Ltext0
 3241 0336 0100     		.2byte	0x1
ARM GAS  C:\Users\eric\AppData\Local\Temp\ccyeDnt3.s 			page 58


 3242 0338 53       		.byte	0x53
 3243 0339 F2000000 		.4byte	.LVL26-.Ltext0
 3244 033d F4000000 		.4byte	.LVL27-.Ltext0
 3245 0341 0300     		.2byte	0x3
 3246 0343 73       		.byte	0x73
 3247 0344 7F       		.sleb128 -1
 3248 0345 9F       		.byte	0x9f
 3249 0346 F4000000 		.4byte	.LVL27-.Ltext0
 3250 034a 18010000 		.4byte	.LVL29-.Ltext0
 3251 034e D600     		.2byte	0xd6
 3252 0350 7A       		.byte	0x7a
 3253 0351 04       		.sleb128 4
 3254 0352 94       		.byte	0x94
 3255 0353 02       		.byte	0x2
 3256 0354 0A       		.byte	0xa
 3257 0355 FFFF     		.2byte	0xffff
 3258 0357 1A       		.byte	0x1a
 3259 0358 38       		.byte	0x38
 3260 0359 25       		.byte	0x25
 3261 035a 75       		.byte	0x75
 3262 035b 00       		.sleb128 0
 3263 035c 79       		.byte	0x79
 3264 035d 00       		.sleb128 0
 3265 035e 08       		.byte	0x8
 3266 035f FF       		.byte	0xff
 3267 0360 1A       		.byte	0x1a
 3268 0361 1C       		.byte	0x1c
 3269 0362 31       		.byte	0x31
 3270 0363 26       		.byte	0x26
 3271 0364 7D       		.byte	0x7d
 3272 0365 00       		.sleb128 0
 3273 0366 94       		.byte	0x94
 3274 0367 01       		.byte	0x1
 3275 0368 08       		.byte	0x8
 3276 0369 FF       		.byte	0xff
 3277 036a 1A       		.byte	0x1a
 3278 036b 1E       		.byte	0x1e
 3279 036c 7A       		.byte	0x7a
 3280 036d 04       		.sleb128 4
 3281 036e 94       		.byte	0x94
 3282 036f 01       		.byte	0x1
 3283 0370 08       		.byte	0x8
 3284 0371 FF       		.byte	0xff
 3285 0372 1A       		.byte	0x1a
 3286 0373 22       		.byte	0x22
 3287 0374 08       		.byte	0x8
 3288 0375 FF       		.byte	0xff
 3289 0376 1B       		.byte	0x1b
 3290 0377 31       		.byte	0x31
 3291 0378 1C       		.byte	0x1c
 3292 0379 75       		.byte	0x75
 3293 037a 00       		.sleb128 0
 3294 037b 79       		.byte	0x79
 3295 037c 00       		.sleb128 0
 3296 037d 08       		.byte	0x8
 3297 037e FF       		.byte	0xff
 3298 037f 1A       		.byte	0x1a
ARM GAS  C:\Users\eric\AppData\Local\Temp\ccyeDnt3.s 			page 59


 3299 0380 1C       		.byte	0x1c
 3300 0381 31       		.byte	0x31
 3301 0382 26       		.byte	0x26
 3302 0383 7D       		.byte	0x7d
 3303 0384 00       		.sleb128 0
 3304 0385 94       		.byte	0x94
 3305 0386 01       		.byte	0x1
 3306 0387 08       		.byte	0x8
 3307 0388 FF       		.byte	0xff
 3308 0389 1A       		.byte	0x1a
 3309 038a 1E       		.byte	0x1e
 3310 038b 7A       		.byte	0x7a
 3311 038c 04       		.sleb128 4
 3312 038d 94       		.byte	0x94
 3313 038e 01       		.byte	0x1
 3314 038f 08       		.byte	0x8
 3315 0390 FF       		.byte	0xff
 3316 0391 1A       		.byte	0x1a
 3317 0392 22       		.byte	0x22
 3318 0393 08       		.byte	0x8
 3319 0394 FF       		.byte	0xff
 3320 0395 1B       		.byte	0x1b
 3321 0396 75       		.byte	0x75
 3322 0397 00       		.sleb128 0
 3323 0398 79       		.byte	0x79
 3324 0399 00       		.sleb128 0
 3325 039a 08       		.byte	0x8
 3326 039b FF       		.byte	0xff
 3327 039c 1A       		.byte	0x1a
 3328 039d 1C       		.byte	0x1c
 3329 039e 31       		.byte	0x31
 3330 039f 26       		.byte	0x26
 3331 03a0 7D       		.byte	0x7d
 3332 03a1 00       		.sleb128 0
 3333 03a2 94       		.byte	0x94
 3334 03a3 01       		.byte	0x1
 3335 03a4 08       		.byte	0x8
 3336 03a5 FF       		.byte	0xff
 3337 03a6 1A       		.byte	0x1a
 3338 03a7 1E       		.byte	0x1e
 3339 03a8 7A       		.byte	0x7a
 3340 03a9 04       		.sleb128 4
 3341 03aa 94       		.byte	0x94
 3342 03ab 01       		.byte	0x1
 3343 03ac 08       		.byte	0x8
 3344 03ad FF       		.byte	0xff
 3345 03ae 1A       		.byte	0x1a
 3346 03af 22       		.byte	0x22
 3347 03b0 7C       		.byte	0x7c
 3348 03b1 00       		.sleb128 0
 3349 03b2 1C       		.byte	0x1c
 3350 03b3 30       		.byte	0x30
 3351 03b4 2D       		.byte	0x2d
 3352 03b5 28       		.byte	0x28
 3353 03b6 0100     		.2byte	0x1
 3354 03b8 16       		.byte	0x16
 3355 03b9 13       		.byte	0x13
ARM GAS  C:\Users\eric\AppData\Local\Temp\ccyeDnt3.s 			page 60


 3356 03ba 22       		.byte	0x22
 3357 03bb 38       		.byte	0x38
 3358 03bc 24       		.byte	0x24
 3359 03bd 75       		.byte	0x75
 3360 03be 00       		.sleb128 0
 3361 03bf 79       		.byte	0x79
 3362 03c0 00       		.sleb128 0
 3363 03c1 08       		.byte	0x8
 3364 03c2 FF       		.byte	0xff
 3365 03c3 1A       		.byte	0x1a
 3366 03c4 1C       		.byte	0x1c
 3367 03c5 31       		.byte	0x31
 3368 03c6 26       		.byte	0x26
 3369 03c7 7D       		.byte	0x7d
 3370 03c8 00       		.sleb128 0
 3371 03c9 94       		.byte	0x94
 3372 03ca 01       		.byte	0x1
 3373 03cb 08       		.byte	0x8
 3374 03cc FF       		.byte	0xff
 3375 03cd 1A       		.byte	0x1a
 3376 03ce 1E       		.byte	0x1e
 3377 03cf 7A       		.byte	0x7a
 3378 03d0 04       		.sleb128 4
 3379 03d1 94       		.byte	0x94
 3380 03d2 01       		.byte	0x1
 3381 03d3 08       		.byte	0x8
 3382 03d4 FF       		.byte	0xff
 3383 03d5 1A       		.byte	0x1a
 3384 03d6 22       		.byte	0x22
 3385 03d7 7C       		.byte	0x7c
 3386 03d8 00       		.sleb128 0
 3387 03d9 1C       		.byte	0x1c
 3388 03da 23       		.byte	0x23
 3389 03db FF01     		.uleb128 0xff
 3390 03dd 75       		.byte	0x75
 3391 03de 00       		.sleb128 0
 3392 03df 79       		.byte	0x79
 3393 03e0 00       		.sleb128 0
 3394 03e1 08       		.byte	0x8
 3395 03e2 FF       		.byte	0xff
 3396 03e3 1A       		.byte	0x1a
 3397 03e4 1C       		.byte	0x1c
 3398 03e5 31       		.byte	0x31
 3399 03e6 26       		.byte	0x26
 3400 03e7 7D       		.byte	0x7d
 3401 03e8 00       		.sleb128 0
 3402 03e9 94       		.byte	0x94
 3403 03ea 01       		.byte	0x1
 3404 03eb 08       		.byte	0x8
 3405 03ec FF       		.byte	0xff
 3406 03ed 1A       		.byte	0x1a
 3407 03ee 1E       		.byte	0x1e
 3408 03ef 7A       		.byte	0x7a
 3409 03f0 04       		.sleb128 4
 3410 03f1 94       		.byte	0x94
 3411 03f2 01       		.byte	0x1
 3412 03f3 08       		.byte	0x8
ARM GAS  C:\Users\eric\AppData\Local\Temp\ccyeDnt3.s 			page 61


 3413 03f4 FF       		.byte	0xff
 3414 03f5 1A       		.byte	0x1a
 3415 03f6 22       		.byte	0x22
 3416 03f7 7C       		.byte	0x7c
 3417 03f8 00       		.sleb128 0
 3418 03f9 1C       		.byte	0x1c
 3419 03fa 75       		.byte	0x75
 3420 03fb 00       		.sleb128 0
 3421 03fc 79       		.byte	0x79
 3422 03fd 00       		.sleb128 0
 3423 03fe 08       		.byte	0x8
 3424 03ff FF       		.byte	0xff
 3425 0400 1A       		.byte	0x1a
 3426 0401 1C       		.byte	0x1c
 3427 0402 31       		.byte	0x31
 3428 0403 26       		.byte	0x26
 3429 0404 7D       		.byte	0x7d
 3430 0405 00       		.sleb128 0
 3431 0406 94       		.byte	0x94
 3432 0407 01       		.byte	0x1
 3433 0408 08       		.byte	0x8
 3434 0409 FF       		.byte	0xff
 3435 040a 1A       		.byte	0x1a
 3436 040b 1E       		.byte	0x1e
 3437 040c 7A       		.byte	0x7a
 3438 040d 04       		.sleb128 4
 3439 040e 94       		.byte	0x94
 3440 040f 01       		.byte	0x1
 3441 0410 08       		.byte	0x8
 3442 0411 FF       		.byte	0xff
 3443 0412 1A       		.byte	0x1a
 3444 0413 22       		.byte	0x22
 3445 0414 7C       		.byte	0x7c
 3446 0415 00       		.sleb128 0
 3447 0416 1C       		.byte	0x1c
 3448 0417 30       		.byte	0x30
 3449 0418 2D       		.byte	0x2d
 3450 0419 28       		.byte	0x28
 3451 041a 0100     		.2byte	0x1
 3452 041c 16       		.byte	0x16
 3453 041d 13       		.byte	0x13
 3454 041e 21       		.byte	0x21
 3455 041f 0A       		.byte	0xa
 3456 0420 FFFF     		.2byte	0xffff
 3457 0422 1A       		.byte	0x1a
 3458 0423 38       		.byte	0x38
 3459 0424 26       		.byte	0x26
 3460 0425 9F       		.byte	0x9f
 3461 0426 00000000 		.4byte	0
 3462 042a 00000000 		.4byte	0
 3463              	.LLST17:
 3464 042e 18010000 		.4byte	.LVL29-.Ltext0
 3465 0432 26010000 		.4byte	.LVL30-.Ltext0
 3466 0436 1200     		.2byte	0x12
 3467 0438 70       		.byte	0x70
 3468 0439 00       		.sleb128 0
 3469 043a 08       		.byte	0x8
ARM GAS  C:\Users\eric\AppData\Local\Temp\ccyeDnt3.s 			page 62


 3470 043b FF       		.byte	0xff
 3471 043c 1A       		.byte	0x1a
 3472 043d F7       		.byte	0xf7
 3473 043e 2C       		.uleb128 0x2c
 3474 043f F7       		.byte	0xf7
 3475 0440 25       		.uleb128 0x25
 3476 0441 F4       		.byte	0xf4
 3477 0442 25       		.uleb128 0x25
 3478 0443 04       		.byte	0x4
 3479 0444 8180803B 		.4byte	0x3b808081
 3480 0448 1E       		.byte	0x1e
 3481 0449 9F       		.byte	0x9f
 3482 044a 00000000 		.4byte	0
 3483 044e 00000000 		.4byte	0
 3484              	.LLST18:
 3485 0452 26010000 		.4byte	.LVL30-.Ltext0
 3486 0456 38010000 		.4byte	.LVL31-.Ltext0
 3487 045a 0600     		.2byte	0x6
 3488 045c 9E       		.byte	0x9e
 3489 045d 04       		.uleb128 0x4
 3490 045e 49FFB846 		.4byte	0x46b8ff49
 3491 0462 00000000 		.4byte	0
 3492 0466 00000000 		.4byte	0
 3493              	.LLST21:
 3494 046a 26010000 		.4byte	.LVL30-.Ltext0
 3495 046e 38010000 		.4byte	.LVL31-.Ltext0
 3496 0472 0C00     		.2byte	0xc
 3497 0474 F5       		.byte	0xf5
 3498 0475 4E       		.uleb128 0x4e
 3499 0476 25       		.uleb128 0x25
 3500 0477 F4       		.byte	0xf4
 3501 0478 25       		.uleb128 0x25
 3502 0479 04       		.byte	0x4
 3503 047a 49FFB846 		.4byte	0x46b8ff49
 3504 047e 1C       		.byte	0x1c
 3505 047f 9F       		.byte	0x9f
 3506 0480 00000000 		.4byte	0
 3507 0484 00000000 		.4byte	0
 3508              	.LLST22:
 3509 0488 AC000000 		.4byte	.LVL13-.Ltext0
 3510 048c B6000000 		.4byte	.LVL14-.Ltext0
 3511 0490 0F00     		.2byte	0xf
 3512 0492 7D       		.byte	0x7d
 3513 0493 00       		.sleb128 0
 3514 0494 06       		.byte	0x6
 3515 0495 08       		.byte	0x8
 3516 0496 FF       		.byte	0xff
 3517 0497 1A       		.byte	0x1a
 3518 0498 75       		.byte	0x75
 3519 0499 00       		.sleb128 0
 3520 049a 70       		.byte	0x70
 3521 049b 00       		.sleb128 0
 3522 049c 1C       		.byte	0x1c
 3523 049d 31       		.byte	0x31
 3524 049e 26       		.byte	0x26
 3525 049f 1E       		.byte	0x1e
 3526 04a0 9F       		.byte	0x9f
ARM GAS  C:\Users\eric\AppData\Local\Temp\ccyeDnt3.s 			page 63


 3527 04a1 B6000000 		.4byte	.LVL14-.Ltext0
 3528 04a5 E4000000 		.4byte	.LVL24-.Ltext0
 3529 04a9 1200     		.2byte	0x12
 3530 04ab 7D       		.byte	0x7d
 3531 04ac 00       		.sleb128 0
 3532 04ad 06       		.byte	0x6
 3533 04ae 08       		.byte	0x8
 3534 04af FF       		.byte	0xff
 3535 04b0 1A       		.byte	0x1a
 3536 04b1 75       		.byte	0x75
 3537 04b2 00       		.sleb128 0
 3538 04b3 79       		.byte	0x79
 3539 04b4 00       		.sleb128 0
 3540 04b5 08       		.byte	0x8
 3541 04b6 FF       		.byte	0xff
 3542 04b7 1A       		.byte	0x1a
 3543 04b8 1C       		.byte	0x1c
 3544 04b9 31       		.byte	0x31
 3545 04ba 26       		.byte	0x26
 3546 04bb 1E       		.byte	0x1e
 3547 04bc 9F       		.byte	0x9f
 3548 04bd 00000000 		.4byte	0
 3549 04c1 00000000 		.4byte	0
 3550              	.LLST23:
 3551 04c5 AC000000 		.4byte	.LVL13-.Ltext0
 3552 04c9 C0000000 		.4byte	.LVL16-.Ltext0
 3553 04cd 0100     		.2byte	0x1
 3554 04cf 5C       		.byte	0x5c
 3555 04d0 C0000000 		.4byte	.LVL16-.Ltext0
 3556 04d4 E4000000 		.4byte	.LVL24-.Ltext0
 3557 04d8 0200     		.2byte	0x2
 3558 04da 7A       		.byte	0x7a
 3559 04db 04       		.sleb128 4
 3560 04dc 00000000 		.4byte	0
 3561 04e0 00000000 		.4byte	0
 3562              	.LLST24:
 3563 04e4 BA000000 		.4byte	.LVL15-.Ltext0
 3564 04e8 DE000000 		.4byte	.LVL22-.Ltext0
 3565 04ec 0100     		.2byte	0x1
 3566 04ee 5E       		.byte	0x5e
 3567 04ef 00000000 		.4byte	0
 3568 04f3 00000000 		.4byte	0
 3569              	.LLST25:
 3570 04f7 BA000000 		.4byte	.LVL15-.Ltext0
 3571 04fb CE000000 		.4byte	.LVL18-.Ltext0
 3572 04ff 0100     		.2byte	0x1
 3573 0501 5C       		.byte	0x5c
 3574 0502 CE000000 		.4byte	.LVL18-.Ltext0
 3575 0506 DE000000 		.4byte	.LVL22-.Ltext0
 3576 050a 0200     		.2byte	0x2
 3577 050c 7A       		.byte	0x7a
 3578 050d 04       		.sleb128 4
 3579 050e DE000000 		.4byte	.LVL22-.Ltext0
 3580 0512 E2000000 		.4byte	.LVL23-.Ltext0
 3581 0516 0100     		.2byte	0x1
 3582 0518 50       		.byte	0x50
 3583 0519 00000000 		.4byte	0
ARM GAS  C:\Users\eric\AppData\Local\Temp\ccyeDnt3.s 			page 64


 3584 051d 00000000 		.4byte	0
 3585              	.LLST26:
 3586 0521 BA000000 		.4byte	.LVL15-.Ltext0
 3587 0525 DE000000 		.4byte	.LVL22-.Ltext0
 3588 0529 0200     		.2byte	0x2
 3589 052b 30       		.byte	0x30
 3590 052c 9F       		.byte	0x9f
 3591 052d DE000000 		.4byte	.LVL22-.Ltext0
 3592 0531 E4000000 		.4byte	.LVL24-.Ltext0
 3593 0535 0800     		.2byte	0x8
 3594 0537 73       		.byte	0x73
 3595 0538 00       		.sleb128 0
 3596 0539 08       		.byte	0x8
 3597 053a FF       		.byte	0xff
 3598 053b 1A       		.byte	0x1a
 3599 053c 38       		.byte	0x38
 3600 053d 24       		.byte	0x24
 3601 053e 9F       		.byte	0x9f
 3602 053f 00000000 		.4byte	0
 3603 0543 00000000 		.4byte	0
 3604              	.LLST27:
 3605 0547 CA000000 		.4byte	.LVL17-.Ltext0
 3606 054b DA000000 		.4byte	.LVL21-.Ltext0
 3607 054f 0100     		.2byte	0x1
 3608 0551 53       		.byte	0x53
 3609 0552 00000000 		.4byte	0
 3610 0556 00000000 		.4byte	0
 3611              	.LLST28:
 3612 055a CE000000 		.4byte	.LVL18-.Ltext0
 3613 055e D2000000 		.4byte	.LVL19-.Ltext0
 3614 0562 0600     		.2byte	0x6
 3615 0564 70       		.byte	0x70
 3616 0565 00       		.sleb128 0
 3617 0566 7C       		.byte	0x7c
 3618 0567 00       		.sleb128 0
 3619 0568 1C       		.byte	0x1c
 3620 0569 9F       		.byte	0x9f
 3621 056a D2000000 		.4byte	.LVL19-.Ltext0
 3622 056e E2000000 		.4byte	.LVL23-.Ltext0
 3623 0572 0100     		.2byte	0x1
 3624 0574 50       		.byte	0x50
 3625 0575 00000000 		.4byte	0
 3626 0579 00000000 		.4byte	0
 3627              	.LLST29:
 3628 057d 68010000 		.4byte	.LVL34-.Ltext0
 3629 0581 D4010000 		.4byte	.LVL44-.Ltext0
 3630 0585 0200     		.2byte	0x2
 3631 0587 90       		.byte	0x90
 3632 0588 56       		.uleb128 0x56
 3633 0589 D4010000 		.4byte	.LVL44-.Ltext0
 3634 058d E2010000 		.4byte	.LVL45-.Ltext0
 3635 0591 0200     		.2byte	0x2
 3636 0593 90       		.byte	0x90
 3637 0594 40       		.uleb128 0x40
 3638 0595 5A020000 		.4byte	.LVL52-.Ltext0
 3639 0599 6E020000 		.4byte	.LVL53-.Ltext0
 3640 059d 0200     		.2byte	0x2
ARM GAS  C:\Users\eric\AppData\Local\Temp\ccyeDnt3.s 			page 65


 3641 059f 90       		.byte	0x90
 3642 05a0 56       		.uleb128 0x56
 3643 05a1 6E020000 		.4byte	.LVL53-.Ltext0
 3644 05a5 80020000 		.4byte	.LVL54-.Ltext0
 3645 05a9 0200     		.2byte	0x2
 3646 05ab 90       		.byte	0x90
 3647 05ac 40       		.uleb128 0x40
 3648 05ad 00000000 		.4byte	0
 3649 05b1 00000000 		.4byte	0
 3650              	.LLST30:
 3651 05b5 70010000 		.4byte	.LVL35-.Ltext0
 3652 05b9 A4010000 		.4byte	.LVL40-.Ltext0
 3653 05bd 0200     		.2byte	0x2
 3654 05bf 90       		.byte	0x90
 3655 05c0 4F       		.uleb128 0x4f
 3656 05c1 A4010000 		.4byte	.LVL40-.Ltext0
 3657 05c5 A8010000 		.4byte	.LVL41-.Ltext0
 3658 05c9 0800     		.2byte	0x8
 3659 05cb F5       		.byte	0xf5
 3660 05cc 4F       		.uleb128 0x4f
 3661 05cd 25       		.uleb128 0x25
 3662 05ce F5       		.byte	0xf5
 3663 05cf 4E       		.uleb128 0x4e
 3664 05d0 25       		.uleb128 0x25
 3665 05d1 1C       		.byte	0x1c
 3666 05d2 9F       		.byte	0x9f
 3667 05d3 A8010000 		.4byte	.LVL41-.Ltext0
 3668 05d7 AC010000 		.4byte	.LVL42-.Ltext0
 3669 05db 0200     		.2byte	0x2
 3670 05dd 90       		.byte	0x90
 3671 05de 4F       		.uleb128 0x4f
 3672 05df 5A020000 		.4byte	.LVL52-.Ltext0
 3673 05e3 6E020000 		.4byte	.LVL53-.Ltext0
 3674 05e7 0200     		.2byte	0x2
 3675 05e9 90       		.byte	0x90
 3676 05ea 4F       		.uleb128 0x4f
 3677 05eb 00000000 		.4byte	0
 3678 05ef 00000000 		.4byte	0
 3679              	.LLST31:
 3680 05f3 70010000 		.4byte	.LVL35-.Ltext0
 3681 05f7 84010000 		.4byte	.LVL36-.Ltext0
 3682 05fb 0200     		.2byte	0x2
 3683 05fd 90       		.byte	0x90
 3684 05fe 4F       		.uleb128 0x4f
 3685 05ff 5A020000 		.4byte	.LVL52-.Ltext0
 3686 0603 6E020000 		.4byte	.LVL53-.Ltext0
 3687 0607 0200     		.2byte	0x2
 3688 0609 90       		.byte	0x90
 3689 060a 4F       		.uleb128 0x4f
 3690 060b 00000000 		.4byte	0
 3691 060f 00000000 		.4byte	0
 3692              	.LLST32:
 3693 0613 70010000 		.4byte	.LVL35-.Ltext0
 3694 0617 84010000 		.4byte	.LVL36-.Ltext0
 3695 061b 0500     		.2byte	0x5
 3696 061d 03       		.byte	0x3
 3697 061e 1C000000 		.4byte	_ZL7s_state+28
ARM GAS  C:\Users\eric\AppData\Local\Temp\ccyeDnt3.s 			page 66


 3698 0622 5A020000 		.4byte	.LVL52-.Ltext0
 3699 0626 6E020000 		.4byte	.LVL53-.Ltext0
 3700 062a 0500     		.2byte	0x5
 3701 062c 03       		.byte	0x3
 3702 062d 1C000000 		.4byte	_ZL7s_state+28
 3703 0631 00000000 		.4byte	0
 3704 0635 00000000 		.4byte	0
 3705              	.LLST33:
 3706 0639 D4010000 		.4byte	.LVL44-.Ltext0
 3707 063d E2010000 		.4byte	.LVL45-.Ltext0
 3708 0641 0200     		.2byte	0x2
 3709 0643 90       		.byte	0x90
 3710 0644 40       		.uleb128 0x40
 3711 0645 6E020000 		.4byte	.LVL53-.Ltext0
 3712 0649 80020000 		.4byte	.LVL54-.Ltext0
 3713 064d 0200     		.2byte	0x2
 3714 064f 90       		.byte	0x90
 3715 0650 40       		.uleb128 0x40
 3716 0651 88020000 		.4byte	.LVL55-.Ltext0
 3717 0655 8A020000 		.4byte	.LVL56-.Ltext0
 3718 0659 0200     		.2byte	0x2
 3719 065b 90       		.byte	0x90
 3720 065c 40       		.uleb128 0x40
 3721 065d 00000000 		.4byte	0
 3722 0661 00000000 		.4byte	0
 3723              	.LLST34:
 3724 0665 D4010000 		.4byte	.LVL44-.Ltext0
 3725 0669 EE010000 		.4byte	.LVL46-.Ltext0
 3726 066d 0200     		.2byte	0x2
 3727 066f 90       		.byte	0x90
 3728 0670 4F       		.uleb128 0x4f
 3729 0671 6E020000 		.4byte	.LVL53-.Ltext0
 3730 0675 8A020000 		.4byte	.LVL56-.Ltext0
 3731 0679 0200     		.2byte	0x2
 3732 067b 90       		.byte	0x90
 3733 067c 4F       		.uleb128 0x4f
 3734 067d 00000000 		.4byte	0
 3735 0681 00000000 		.4byte	0
 3736              	.LLST35:
 3737 0685 D4010000 		.4byte	.LVL44-.Ltext0
 3738 0689 3A020000 		.4byte	.LVL51-.Ltext0
 3739 068d 0600     		.2byte	0x6
 3740 068f 9E       		.byte	0x9e
 3741 0690 04       		.uleb128 0x4
 3742 0691 CDCC4C3E 		.4byte	0x3e4ccccd
 3743 0695 6E020000 		.4byte	.LVL53-.Ltext0
 3744 0699 8A020000 		.4byte	.LVL56-.Ltext0
 3745 069d 0600     		.2byte	0x6
 3746 069f 9E       		.byte	0x9e
 3747 06a0 04       		.uleb128 0x4
 3748 06a1 CDCC4C3E 		.4byte	0x3e4ccccd
 3749 06a5 00000000 		.4byte	0
 3750 06a9 00000000 		.4byte	0
 3751              	.LLST36:
 3752 06ad 02020000 		.4byte	.LVL47-.Ltext0
 3753 06b1 1E020000 		.4byte	.LVL49-.Ltext0
 3754 06b5 0200     		.2byte	0x2
ARM GAS  C:\Users\eric\AppData\Local\Temp\ccyeDnt3.s 			page 67


 3755 06b7 90       		.byte	0x90
 3756 06b8 4E       		.uleb128 0x4e
 3757 06b9 00000000 		.4byte	0
 3758 06bd 00000000 		.4byte	0
 3759              	.LLST37:
 3760 06c1 02020000 		.4byte	.LVL47-.Ltext0
 3761 06c5 1E020000 		.4byte	.LVL49-.Ltext0
 3762 06c9 0600     		.2byte	0x6
 3763 06cb 9E       		.byte	0x9e
 3764 06cc 04       		.uleb128 0x4
 3765 06cd CDCC4C3D 		.4byte	0x3d4ccccd
 3766 06d1 00000000 		.4byte	0
 3767 06d5 00000000 		.4byte	0
 3768              	.LLST39:
 3769 06d9 02020000 		.4byte	.LVL47-.Ltext0
 3770 06dd 1E020000 		.4byte	.LVL49-.Ltext0
 3771 06e1 0600     		.2byte	0x6
 3772 06e3 9E       		.byte	0x9e
 3773 06e4 04       		.uleb128 0x4
 3774 06e5 0000803F 		.4byte	0x3f800000
 3775 06e9 00000000 		.4byte	0
 3776 06ed 00000000 		.4byte	0
 3777              	.LLST40:
 3778 06f1 02020000 		.4byte	.LVL47-.Ltext0
 3779 06f5 0C020000 		.4byte	.LVL48-.Ltext0
 3780 06f9 0200     		.2byte	0x2
 3781 06fb 90       		.byte	0x90
 3782 06fc 4E       		.uleb128 0x4e
 3783 06fd 00000000 		.4byte	0
 3784 0701 00000000 		.4byte	0
 3785              	.LLST41:
 3786 0705 02020000 		.4byte	.LVL47-.Ltext0
 3787 0709 1E020000 		.4byte	.LVL49-.Ltext0
 3788 070d 0600     		.2byte	0x6
 3789 070f 9E       		.byte	0x9e
 3790 0710 04       		.uleb128 0x4
 3791 0711 000080BF 		.4byte	0xbf800000
 3792 0715 00000000 		.4byte	0
 3793 0719 00000000 		.4byte	0
 3794              	.LLST42:
 3795 071d 02020000 		.4byte	.LVL47-.Ltext0
 3796 0721 0C020000 		.4byte	.LVL48-.Ltext0
 3797 0725 0600     		.2byte	0x6
 3798 0727 9E       		.byte	0x9e
 3799 0728 04       		.uleb128 0x4
 3800 0729 000080BF 		.4byte	0xbf800000
 3801 072d 00000000 		.4byte	0
 3802 0731 00000000 		.4byte	0
 3803              	.LLST44:
 3804 0735 02020000 		.4byte	.LVL47-.Ltext0
 3805 0739 0C020000 		.4byte	.LVL48-.Ltext0
 3806 073d 0C00     		.2byte	0xc
 3807 073f F5       		.byte	0xf5
 3808 0740 4E       		.uleb128 0x4e
 3809 0741 25       		.uleb128 0x25
 3810 0742 F4       		.byte	0xf4
 3811 0743 25       		.uleb128 0x25
ARM GAS  C:\Users\eric\AppData\Local\Temp\ccyeDnt3.s 			page 68


 3812 0744 04       		.byte	0x4
 3813 0745 0000803F 		.4byte	0x3f800000
 3814 0749 22       		.byte	0x22
 3815 074a 9F       		.byte	0x9f
 3816 074b 00000000 		.4byte	0
 3817 074f 00000000 		.4byte	0
 3818              	.LLST45:
 3819 0753 D2020000 		.4byte	.LVL61-.Ltext0
 3820 0757 EC020000 		.4byte	.LVL63-.Ltext0
 3821 075b 0100     		.2byte	0x1
 3822 075d 51       		.byte	0x51
 3823 075e EC020000 		.4byte	.LVL63-.Ltext0
 3824 0762 F0020000 		.4byte	.LVL64-.Ltext0
 3825 0766 0400     		.2byte	0x4
 3826 0768 F3       		.byte	0xf3
 3827 0769 01       		.uleb128 0x1
 3828 076a 51       		.byte	0x51
 3829 076b 9F       		.byte	0x9f
 3830 076c F0020000 		.4byte	.LVL64-.Ltext0
 3831 0770 F4020000 		.4byte	.LVL65-.Ltext0
 3832 0774 0100     		.2byte	0x1
 3833 0776 51       		.byte	0x51
 3834 0777 F4020000 		.4byte	.LVL65-.Ltext0
 3835 077b F8020000 		.4byte	.LVL66-.Ltext0
 3836 077f 0400     		.2byte	0x4
 3837 0781 F3       		.byte	0xf3
 3838 0782 01       		.uleb128 0x1
 3839 0783 51       		.byte	0x51
 3840 0784 9F       		.byte	0x9f
 3841 0785 F8020000 		.4byte	.LVL66-.Ltext0
 3842 0789 2C030000 		.4byte	.LFE246-.Ltext0
 3843 078d 0100     		.2byte	0x1
 3844 078f 51       		.byte	0x51
 3845 0790 00000000 		.4byte	0
 3846 0794 00000000 		.4byte	0
 3847              		.section	.debug_aranges,"",%progbits
 3848 0000 1C000000 		.4byte	0x1c
 3849 0004 0200     		.2byte	0x2
 3850 0006 00000000 		.4byte	.Ldebug_info0
 3851 000a 04       		.byte	0x4
 3852 000b 00       		.byte	0
 3853 000c 0000     		.2byte	0
 3854 000e 0000     		.2byte	0
 3855 0010 00000000 		.4byte	.Ltext0
 3856 0014 2C030000 		.4byte	.Letext0-.Ltext0
 3857 0018 00000000 		.4byte	0
 3858 001c 00000000 		.4byte	0
 3859              		.section	.debug_ranges,"",%progbits
 3860              	.Ldebug_ranges0:
 3861 0000 36000000 		.4byte	.LBB85-.Ltext0
 3862 0004 3A000000 		.4byte	.LBE85-.Ltext0
 3863 0008 A8000000 		.4byte	.LBB132-.Ltext0
 3864 000c 62010000 		.4byte	.LBE132-.Ltext0
 3865 0010 00000000 		.4byte	0
 3866 0014 00000000 		.4byte	0
 3867 0018 36000000 		.4byte	.LBB86-.Ltext0
 3868 001c 3A000000 		.4byte	.LBE86-.Ltext0
ARM GAS  C:\Users\eric\AppData\Local\Temp\ccyeDnt3.s 			page 69


 3869 0020 B0000000 		.4byte	.LBB125-.Ltext0
 3870 0024 B4000000 		.4byte	.LBE125-.Ltext0
 3871 0028 E6000000 		.4byte	.LBB127-.Ltext0
 3872 002c EC000000 		.4byte	.LBE127-.Ltext0
 3873 0030 EE000000 		.4byte	.LBB128-.Ltext0
 3874 0034 1C010000 		.4byte	.LBE128-.Ltext0
 3875 0038 1E010000 		.4byte	.LBB129-.Ltext0
 3876 003c 38010000 		.4byte	.LBE129-.Ltext0
 3877 0040 00000000 		.4byte	0
 3878 0044 00000000 		.4byte	0
 3879 0048 36000000 		.4byte	.LBB88-.Ltext0
 3880 004c 3A000000 		.4byte	.LBE88-.Ltext0
 3881 0050 E6000000 		.4byte	.LBB101-.Ltext0
 3882 0054 EC000000 		.4byte	.LBE101-.Ltext0
 3883 0058 F8000000 		.4byte	.LBB103-.Ltext0
 3884 005c FE000000 		.4byte	.LBE103-.Ltext0
 3885 0060 0C010000 		.4byte	.LBB109-.Ltext0
 3886 0064 10010000 		.4byte	.LBE109-.Ltext0
 3887 0068 14010000 		.4byte	.LBB111-.Ltext0
 3888 006c 18010000 		.4byte	.LBE111-.Ltext0
 3889 0070 00000000 		.4byte	0
 3890 0074 00000000 		.4byte	0
 3891 0078 B0000000 		.4byte	.LBB94-.Ltext0
 3892 007c B4000000 		.4byte	.LBE94-.Ltext0
 3893 0080 F4000000 		.4byte	.LBB102-.Ltext0
 3894 0084 F8000000 		.4byte	.LBE102-.Ltext0
 3895 0088 04010000 		.4byte	.LBB107-.Ltext0
 3896 008c 08010000 		.4byte	.LBE107-.Ltext0
 3897 0090 10010000 		.4byte	.LBB110-.Ltext0
 3898 0094 14010000 		.4byte	.LBE110-.Ltext0
 3899 0098 18010000 		.4byte	.LBB112-.Ltext0
 3900 009c 1C010000 		.4byte	.LBE112-.Ltext0
 3901 00a0 1E010000 		.4byte	.LBB113-.Ltext0
 3902 00a4 26010000 		.4byte	.LBE113-.Ltext0
 3903 00a8 00000000 		.4byte	0
 3904 00ac 00000000 		.4byte	0
 3905 00b0 FE000000 		.4byte	.LBB104-.Ltext0
 3906 00b4 04010000 		.4byte	.LBE104-.Ltext0
 3907 00b8 08010000 		.4byte	.LBB108-.Ltext0
 3908 00bc 0C010000 		.4byte	.LBE108-.Ltext0
 3909 00c0 00000000 		.4byte	0
 3910 00c4 00000000 		.4byte	0
 3911 00c8 AC000000 		.4byte	.LBB122-.Ltext0
 3912 00cc B0000000 		.4byte	.LBE122-.Ltext0
 3913 00d0 B4000000 		.4byte	.LBB126-.Ltext0
 3914 00d4 E4000000 		.4byte	.LBE126-.Ltext0
 3915 00d8 00000000 		.4byte	0
 3916 00dc 00000000 		.4byte	0
 3917 00e0 9A000000 		.4byte	.LBB137-.Ltext0
 3918 00e4 A2000000 		.4byte	.LBE137-.Ltext0
 3919 00e8 68010000 		.4byte	.LBB168-.Ltext0
 3920 00ec 3A020000 		.4byte	.LBE168-.Ltext0
 3921 00f0 3E020000 		.4byte	.LBB169-.Ltext0
 3922 00f4 8A020000 		.4byte	.LBE169-.Ltext0
 3923 00f8 00000000 		.4byte	0
 3924 00fc 00000000 		.4byte	0
 3925 0100 6C010000 		.4byte	.LBB139-.Ltext0
ARM GAS  C:\Users\eric\AppData\Local\Temp\ccyeDnt3.s 			page 70


 3926 0104 88010000 		.4byte	.LBE139-.Ltext0
 3927 0108 8A010000 		.4byte	.LBB144-.Ltext0
 3928 010c AC010000 		.4byte	.LBE144-.Ltext0
 3929 0110 40020000 		.4byte	.LBB145-.Ltext0
 3930 0114 6E020000 		.4byte	.LBE145-.Ltext0
 3931 0118 00000000 		.4byte	0
 3932 011c 00000000 		.4byte	0
 3933 0120 70010000 		.4byte	.LBB140-.Ltext0
 3934 0124 84010000 		.4byte	.LBE140-.Ltext0
 3935 0128 4C020000 		.4byte	.LBB143-.Ltext0
 3936 012c 6E020000 		.4byte	.LBE143-.Ltext0
 3937 0130 00000000 		.4byte	0
 3938 0134 00000000 		.4byte	0
 3939 0138 C2010000 		.4byte	.LBB149-.Ltext0
 3940 013c C4010000 		.4byte	.LBE149-.Ltext0
 3941 0140 D4010000 		.4byte	.LBB153-.Ltext0
 3942 0144 EE010000 		.4byte	.LBE153-.Ltext0
 3943 0148 6E020000 		.4byte	.LBB167-.Ltext0
 3944 014c 8A020000 		.4byte	.LBE167-.Ltext0
 3945 0150 00000000 		.4byte	0
 3946 0154 00000000 		.4byte	0
 3947 0158 FA010000 		.4byte	.LBB154-.Ltext0
 3948 015c FE010000 		.4byte	.LBE154-.Ltext0
 3949 0160 02020000 		.4byte	.LBB165-.Ltext0
 3950 0164 1E020000 		.4byte	.LBE165-.Ltext0
 3951 0168 00000000 		.4byte	0
 3952 016c 00000000 		.4byte	0
 3953 0170 FA010000 		.4byte	.LBB156-.Ltext0
 3954 0174 FE010000 		.4byte	.LBE156-.Ltext0
 3955 0178 02020000 		.4byte	.LBB163-.Ltext0
 3956 017c 1E020000 		.4byte	.LBE163-.Ltext0
 3957 0180 00000000 		.4byte	0
 3958 0184 00000000 		.4byte	0
 3959 0188 FA010000 		.4byte	.LBB157-.Ltext0
 3960 018c FE010000 		.4byte	.LBE157-.Ltext0
 3961 0190 02020000 		.4byte	.LBB162-.Ltext0
 3962 0194 1E020000 		.4byte	.LBE162-.Ltext0
 3963 0198 00000000 		.4byte	0
 3964 019c 00000000 		.4byte	0
 3965 01a0 FA010000 		.4byte	.LBB158-.Ltext0
 3966 01a4 FE010000 		.4byte	.LBE158-.Ltext0
 3967 01a8 02020000 		.4byte	.LBB161-.Ltext0
 3968 01ac 1E020000 		.4byte	.LBE161-.Ltext0
 3969 01b0 00000000 		.4byte	0
 3970 01b4 00000000 		.4byte	0
 3971              		.section	.debug_line,"",%progbits
 3972              	.Ldebug_line0:
 3973 0000 EE020000 		.section	.debug_str,"MS",%progbits,1
 3973      02007F01 
 3973      00000201 
 3973      FB0E0D00 
 3973      01010101 
 3974              	.LASF83:
 3975 0000 70617261 		.ascii	"params\000"
 3975      6D7300
 3976              	.LASF91:
 3977 0007 5F686F6F 		.ascii	"_hook_param\000"
ARM GAS  C:\Users\eric\AppData\Local\Temp\ccyeDnt3.s 			page 71


 3977      6B5F7061 
 3977      72616D00 
 3978              	.LASF101:
 3979 0013 77745F70 		.ascii	"wt_par_lut_f\000"
 3979      61725F6C 
 3979      75745F66 
 3979      00
 3980              	.LASF59:
 3981 0020 70686173 		.ascii	"phase\000"
 3981      6500
 3982              	.LASF52:
 3983 0026 766F6963 		.ascii	"voices\000"
 3983      657300
 3984              	.LASF51:
 3985 002d 666C6167 		.ascii	"flags\000"
 3985      7300
 3986              	.LASF88:
 3987 0033 746F7461 		.ascii	"totalSig\000"
 3987      6C536967 
 3987      00
 3988              	.LASF111:
 3989 003c 474E5520 		.ascii	"GNU C++11 5.4.1 20160919 (release) [ARM/embedded-5-"
 3989      432B2B31 
 3989      3120352E 
 3989      342E3120 
 3989      32303136 
 3990 006f 6272616E 		.ascii	"branch revision 240496] -mcpu=cortex-m4 -mthumb -mn"
 3990      63682072 
 3990      65766973 
 3990      696F6E20 
 3990      32343034 
 3991 00a2 6F2D7468 		.ascii	"o-thumb-interwork -mlittle-endian -mfloat-abi=hard "
 3991      756D622D 
 3991      696E7465 
 3991      72776F72 
 3991      6B202D6D 
 3992 00d5 2D6D6670 		.ascii	"-mfpu=fpv4-sp-d16 -g -Os -std=c++11 -fsingle-precis"
 3992      753D6670 
 3992      76342D73 
 3992      702D6431 
 3992      36202D67 
 3993 0108 696F6E2D 		.ascii	"ion-constant -fcheck-new -fno-rtti -fno-exceptions "
 3993      636F6E73 
 3993      74616E74 
 3993      202D6663 
 3993      6865636B 
 3994 013b 2D666E6F 		.ascii	"-fno-non-call-exceptions\000"
 3994      2D6E6F6E 
 3994      2D63616C 
 3994      6C2D6578 
 3994      63657074 
 3995              	.LASF14:
 3996 0154 756E7369 		.ascii	"unsigned int\000"
 3996      676E6564 
 3996      20696E74 
 3996      00
 3997              	.LASF107:
ARM GAS  C:\Users\eric\AppData\Local\Temp\ccyeDnt3.s 			page 72


 3998 0161 62697472 		.ascii	"bitres_lut_f\000"
 3998      65735F6C 
 3998      75745F66 
 3998      00
 3999              	.LASF79:
 4000 016e 72617469 		.ascii	"ratio\000"
 4000      6F00
 4001              	.LASF8:
 4002 0174 5F5F696E 		.ascii	"__int32_t\000"
 4002      7433325F 
 4002      7400
 4003              	.LASF80:
 4004 017e 706C6174 		.ascii	"platform\000"
 4004      666F726D 
 4004      00
 4005              	.LASF109:
 4006 0187 6D617856 		.ascii	"maxVoice\000"
 4006      6F696365 
 4006      00
 4007              	.LASF32:
 4008 0190 70697463 		.ascii	"pitch\000"
 4008      6800
 4009              	.LASF46:
 4010 0196 75736572 		.ascii	"user_osc_param_id_t\000"
 4010      5F6F7363 
 4010      5F706172 
 4010      616D5F69 
 4010      645F7400 
 4011              	.LASF48:
 4012 01aa 53746174 		.ascii	"State\000"
 4012      6500
 4013              	.LASF37:
 4014 01b0 6B5F7573 		.ascii	"k_user_osc_param_id1\000"
 4014      65725F6F 
 4014      73635F70 
 4014      6172616D 
 4014      5F696431 
 4015              	.LASF38:
 4016 01c5 6B5F7573 		.ascii	"k_user_osc_param_id2\000"
 4016      65725F6F 
 4016      73635F70 
 4016      6172616D 
 4016      5F696432 
 4017              	.LASF39:
 4018 01da 6B5F7573 		.ascii	"k_user_osc_param_id3\000"
 4018      65725F6F 
 4018      73635F70 
 4018      6172616D 
 4018      5F696433 
 4019              	.LASF40:
 4020 01ef 6B5F7573 		.ascii	"k_user_osc_param_id4\000"
 4020      65725F6F 
 4020      73635F70 
 4020      6172616D 
 4020      5F696434 
 4021              	.LASF41:
 4022 0204 6B5F7573 		.ascii	"k_user_osc_param_id5\000"
ARM GAS  C:\Users\eric\AppData\Local\Temp\ccyeDnt3.s 			page 73


 4022      65725F6F 
 4022      73635F70 
 4022      6172616D 
 4022      5F696435 
 4023              	.LASF42:
 4024 0219 6B5F7573 		.ascii	"k_user_osc_param_id6\000"
 4024      65725F6F 
 4024      73635F70 
 4024      6172616D 
 4024      5F696436 
 4025              	.LASF108:
 4026 022e 735F7374 		.ascii	"s_state\000"
 4026      61746500 
 4027              	.LASF113:
 4028 0236 433A5C55 		.ascii	"C:\\Users\\eric\\logue-sdk\\platform\\prologue\\sup"
 4028      73657273 
 4028      5C657269 
 4028      635C6C6F 
 4028      6775652D 
 4029 0263 65727361 		.ascii	"ersaw\000"
 4029      7700
 4030              	.LASF45:
 4031 0269 6B5F6E75 		.ascii	"k_num_user_osc_param_id\000"
 4031      6D5F7573 
 4031      65725F6F 
 4031      73635F70 
 4031      6172616D 
 4032              	.LASF82:
 4033 0281 5F686F6F 		.ascii	"_hook_cycle\000"
 4033      6B5F6379 
 4033      636C6500 
 4034              	.LASF103:
 4035 028d 74616E70 		.ascii	"tanpi_lut_f\000"
 4035      695F6C75 
 4035      745F6600 
 4036              	.LASF77:
 4037 0299 6F73635F 		.ascii	"osc_softclipf\000"
 4037      736F6674 
 4037      636C6970 
 4037      6600
 4038              	.LASF64:
 4039 02a7 636C616D 		.ascii	"clampfsel\000"
 4039      70667365 
 4039      6C00
 4040              	.LASF19:
 4041 02b1 75696E74 		.ascii	"uint32_t\000"
 4041      33325F74 
 4041      00
 4042              	.LASF15:
 4043 02ba 696E7438 		.ascii	"int8_t\000"
 4043      5F7400
 4044              	.LASF94:
 4045 02c1 76616C66 		.ascii	"valf\000"
 4045      00
 4046              	.LASF97:
 4047 02c6 6D696469 		.ascii	"midi_to_hz_lut_f\000"
 4047      5F746F5F 
ARM GAS  C:\Users\eric\AppData\Local\Temp\ccyeDnt3.s 			page 74


 4047      687A5F6C 
 4047      75745F66 
 4047      00
 4048              	.LASF0:
 4049 02d7 666C6F61 		.ascii	"float\000"
 4049      7400
 4050              	.LASF92:
 4051 02dd 696E6465 		.ascii	"index\000"
 4051      7800
 4052              	.LASF27:
 4053 02e3 6B5F7573 		.ascii	"k_user_module_delfx\000"
 4053      65725F6D 
 4053      6F64756C 
 4053      655F6465 
 4053      6C667800 
 4054              	.LASF13:
 4055 02f7 6C6F6E67 		.ascii	"long long unsigned int\000"
 4055      206C6F6E 
 4055      6720756E 
 4055      7369676E 
 4055      65642069 
 4056              	.LASF116:
 4057 030e 6F73635F 		.ascii	"osc_white\000"
 4057      77686974 
 4057      6500
 4058              	.LASF6:
 4059 0318 5F5F7569 		.ascii	"__uint16_t\000"
 4059      6E743136 
 4059      5F7400
 4060              	.LASF89:
 4061 0323 5F686F6F 		.ascii	"_hook_on\000"
 4061      6B5F6F6E 
 4061      00
 4062              	.LASF47:
 4063 032c 75736572 		.ascii	"user_osc_param\000"
 4063      5F6F7363 
 4063      5F706172 
 4063      616D00
 4064              	.LASF93:
 4065 033b 76616C75 		.ascii	"value\000"
 4065      6500
 4066              	.LASF72:
 4067 0341 61646A75 		.ascii	"adjustPitch\000"
 4067      73745069 
 4067      74636800 
 4068              	.LASF28:
 4069 034d 6B5F7573 		.ascii	"k_user_module_revfx\000"
 4069      65725F6D 
 4069      6F64756C 
 4069      655F7265 
 4069      76667800 
 4070              	.LASF74:
 4071 0361 70697463 		.ascii	"pitchChange\000"
 4071      68436861 
 4071      6E676500 
 4072              	.LASF86:
 4073 036d 66696E65 		.ascii	"fineAdj\000"
ARM GAS  C:\Users\eric\AppData\Local\Temp\ccyeDnt3.s 			page 75


 4073      41646A00 
 4074              	.LASF49:
 4075 0375 64726976 		.ascii	"drive\000"
 4075      6500
 4076              	.LASF58:
 4077 037b 696E7374 		.ascii	"instance\000"
 4077      616E6365 
 4077      00
 4078              	.LASF33:
 4079 0384 6375746F 		.ascii	"cutoff\000"
 4079      666600
 4080              	.LASF22:
 4081 038b 63686172 		.ascii	"char\000"
 4081      00
 4082              	.LASF75:
 4083 0390 61646A75 		.ascii	"adjustedMod\000"
 4083      73746564 
 4083      4D6F6400 
 4084              	.LASF55:
 4085 039c 77617665 		.ascii	"waveform\000"
 4085      666F726D 
 4085      00
 4086              	.LASF60:
 4087 03a5 6B5F666C 		.ascii	"k_flags_none\000"
 4087      6167735F 
 4087      6E6F6E65 
 4087      00
 4088              	.LASF90:
 4089 03b2 5F686F6F 		.ascii	"_hook_off\000"
 4089      6B5F6F66 
 4089      6600
 4090              	.LASF84:
 4091 03bc 6672616D 		.ascii	"frames\000"
 4091      657300
 4092              	.LASF106:
 4093 03c3 73636865 		.ascii	"schetzen_lut_f\000"
 4093      747A656E 
 4093      5F6C7574 
 4093      5F6600
 4094              	.LASF16:
 4095 03d2 75696E74 		.ascii	"uint8_t\000"
 4095      385F7400 
 4096              	.LASF68:
 4097 03da 6F73635F 		.ascii	"osc_notehzf\000"
 4097      6E6F7465 
 4097      687A6600 
 4098              	.LASF57:
 4099 03e6 636F6D70 		.ascii	"compress\000"
 4099      72657373 
 4099      00
 4100              	.LASF102:
 4101 03ef 6C6F675F 		.ascii	"log_lut_f\000"
 4101      6C75745F 
 4101      6600
 4102              	.LASF76:
 4103 03f9 67656E65 		.ascii	"generate\000"
 4103      72617465 
ARM GAS  C:\Users\eric\AppData\Local\Temp\ccyeDnt3.s 			page 76


 4103      00
 4104              	.LASF66:
 4105 0402 636C6970 		.ascii	"clipmaxf\000"
 4105      6D617866 
 4105      00
 4106              	.LASF12:
 4107 040b 6C6F6E67 		.ascii	"long long int\000"
 4107      206C6F6E 
 4107      6720696E 
 4107      7400
 4108              	.LASF61:
 4109 0419 6B5F666C 		.ascii	"k_flag_reset\000"
 4109      61675F72 
 4109      65736574 
 4109      00
 4110              	.LASF85:
 4111 0426 6C666F5F 		.ascii	"lfo_inc\000"
 4111      696E6300 
 4112              	.LASF53:
 4113 042e 64657475 		.ascii	"detune\000"
 4113      6E6500
 4114              	.LASF34:
 4115 0435 7265736F 		.ascii	"resonance\000"
 4115      6E616E63 
 4115      6500
 4116              	.LASF30:
 4117 043f 6B5F6E75 		.ascii	"k_num_user_modules\000"
 4117      6D5F7573 
 4117      65725F6D 
 4117      6F64756C 
 4117      657300
 4118              	.LASF65:
 4119 0452 636C6970 		.ascii	"clipmaxu32\000"
 4119      6D617875 
 4119      333200
 4120              	.LASF73:
 4121 045d 66696E65 		.ascii	"fineAdjust\000"
 4121      41646A75 
 4121      737400
 4122              	.LASF2:
 4123 0468 5F5F696E 		.ascii	"__int8_t\000"
 4123      74385F74 
 4123      00
 4124              	.LASF29:
 4125 0471 6B5F7573 		.ascii	"k_user_module_osc\000"
 4125      65725F6D 
 4125      6F64756C 
 4125      655F6F73 
 4125      6300
 4126              	.LASF20:
 4127 0483 6C6F6E67 		.ascii	"long double\000"
 4127      20646F75 
 4127      626C6500 
 4128              	.LASF17:
 4129 048f 75696E74 		.ascii	"uint16_t\000"
 4129      31365F74 
 4129      00
ARM GAS  C:\Users\eric\AppData\Local\Temp\ccyeDnt3.s 			page 77


 4130              	.LASF56:
 4131 0498 70686173 		.ascii	"phaseSync\000"
 4131      6553796E 
 4131      6300
 4132              	.LASF44:
 4133 04a2 6B5F7573 		.ascii	"k_user_osc_param_shiftshape\000"
 4133      65725F6F 
 4133      73635F70 
 4133      6172616D 
 4133      5F736869 
 4134              	.LASF81:
 4135 04be 5F686F6F 		.ascii	"_hook_init\000"
 4135      6B5F696E 
 4135      697400
 4136              	.LASF5:
 4137 04c9 73686F72 		.ascii	"short int\000"
 4137      7420696E 
 4137      7400
 4138              	.LASF104:
 4139 04d3 73717274 		.ascii	"sqrtm2log_lut_f\000"
 4139      6D326C6F 
 4139      675F6C75 
 4139      745F6600 
 4140              	.LASF105:
 4141 04e3 63756269 		.ascii	"cubicsat_lut_f\000"
 4141      63736174 
 4141      5F6C7574 
 4141      5F6600
 4142              	.LASF100:
 4143 04f2 77745F73 		.ascii	"wt_sqr_lut_f\000"
 4143      71725F6C 
 4143      75745F66 
 4143      00
 4144              	.LASF9:
 4145 04ff 6C6F6E67 		.ascii	"long int\000"
 4145      20696E74 
 4145      00
 4146              	.LASF26:
 4147 0508 6B5F7573 		.ascii	"k_user_module_modfx\000"
 4147      65725F6D 
 4147      6F64756C 
 4147      655F6D6F 
 4147      64667800 
 4148              	.LASF43:
 4149 051c 6B5F7573 		.ascii	"k_user_osc_param_shape\000"
 4149      65725F6F 
 4149      73635F70 
 4149      6172616D 
 4149      5F736861 
 4150              	.LASF115:
 4151 0533 31397573 		.ascii	"19user_osc_param_id_t\000"
 4151      65725F6F 
 4151      73635F70 
 4151      6172616D 
 4151      5F69645F 
 4152              	.LASF50:
 4153 0549 6C666F7A 		.ascii	"lfoz\000"
ARM GAS  C:\Users\eric\AppData\Local\Temp\ccyeDnt3.s 			page 78


 4153      00
 4154              	.LASF110:
 4155 054e 696E7374 		.ascii	"instances\000"
 4155      616E6365 
 4155      7300
 4156              	.LASF35:
 4157 0558 72657365 		.ascii	"reserved0\000"
 4157      72766564 
 4157      3000
 4158              	.LASF3:
 4159 0562 5F5F7569 		.ascii	"__uint8_t\000"
 4159      6E74385F 
 4159      7400
 4160              	.LASF96:
 4161 056c 6B5F6F73 		.ascii	"k_osc_api_version\000"
 4161      635F6170 
 4161      695F7665 
 4161      7273696F 
 4161      6E00
 4162              	.LASF62:
 4163 057e 6673656C 		.ascii	"fsel\000"
 4163      00
 4164              	.LASF99:
 4165 0583 77745F73 		.ascii	"wt_saw_lut_f\000"
 4165      61775F6C 
 4165      75745F66 
 4165      00
 4166              	.LASF69:
 4167 0590 6E6F7465 		.ascii	"note\000"
 4167      00
 4168              	.LASF112:
 4169 0595 73757065 		.ascii	"supersaw.cpp\000"
 4169      72736177 
 4169      2E637070 
 4169      00
 4170              	.LASF24:
 4171 05a2 7133315F 		.ascii	"q31_t\000"
 4171      7400
 4172              	.LASF21:
 4173 05a8 73697A65 		.ascii	"sizetype\000"
 4173      74797065 
 4173      00
 4174              	.LASF11:
 4175 05b1 6C6F6E67 		.ascii	"long unsigned int\000"
 4175      20756E73 
 4175      69676E65 
 4175      6420696E 
 4175      7400
 4176              	.LASF98:
 4177 05c3 77745F73 		.ascii	"wt_sine_lut_f\000"
 4177      696E655F 
 4177      6C75745F 
 4177      6600
 4178              	.LASF18:
 4179 05d1 696E7433 		.ascii	"int32_t\000"
 4179      325F7400 
 4180              	.LASF67:
ARM GAS  C:\Users\eric\AppData\Local\Temp\ccyeDnt3.s 			page 79


 4181 05d9 6C696E69 		.ascii	"linintf\000"
 4181      6E746600 
 4182              	.LASF4:
 4183 05e1 756E7369 		.ascii	"unsigned char\000"
 4183      676E6564 
 4183      20636861 
 4183      7200
 4184              	.LASF10:
 4185 05ef 5F5F7569 		.ascii	"__uint32_t\000"
 4185      6E743332 
 4185      5F7400
 4186              	.LASF25:
 4187 05fa 6B5F7573 		.ascii	"k_user_module_global\000"
 4187      65725F6D 
 4187      6F64756C 
 4187      655F676C 
 4187      6F62616C 
 4188              	.LASF114:
 4189 060f 6465636C 		.ascii	"decltype(nullptr)\000"
 4189      74797065 
 4189      286E756C 
 4189      6C707472 
 4189      2900
 4190              	.LASF78:
 4191 0621 74687265 		.ascii	"threshold\000"
 4191      73686F6C 
 4191      6400
 4192              	.LASF87:
 4193 062b 766F6963 		.ascii	"voicePitch\000"
 4193      65506974 
 4193      636800
 4194              	.LASF54:
 4195 0636 6E6F6973 		.ascii	"noiseLevel\000"
 4195      654C6576 
 4195      656C00
 4196              	.LASF1:
 4197 0641 7369676E 		.ascii	"signed char\000"
 4197      65642063 
 4197      68617200 
 4198              	.LASF7:
 4199 064d 73686F72 		.ascii	"short unsigned int\000"
 4199      7420756E 
 4199      7369676E 
 4199      65642069 
 4199      6E7400
 4200              	.LASF71:
 4201 0660 6F73635F 		.ascii	"osc_w0f_for_note\000"
 4201      7730665F 
 4201      666F725F 
 4201      6E6F7465 
 4201      00
 4202              	.LASF36:
 4203 0671 75736572 		.ascii	"user_osc_param_t\000"
 4203      5F6F7363 
 4203      5F706172 
 4203      616D5F74 
 4203      00
ARM GAS  C:\Users\eric\AppData\Local\Temp\ccyeDnt3.s 			page 80


 4204              	.LASF23:
 4205 0682 646F7562 		.ascii	"double\000"
 4205      6C6500
 4206              	.LASF31:
 4207 0689 73686170 		.ascii	"shape_lfo\000"
 4207      655F6C66 
 4207      6F00
 4208              	.LASF117:
 4209 0693 5F6F7363 		.ascii	"_osc_white\000"
 4209      5F776869 
 4209      746500
 4210              	.LASF70:
 4211 069e 636C6970 		.ascii	"clip1m1f\000"
 4211      316D3166 
 4211      00
 4212              	.LASF63:
 4213 06a7 636C616D 		.ascii	"clampmaxfsel\000"
 4213      706D6178 
 4213      6673656C 
 4213      00
 4214              	.LASF95:
 4215 06b4 6B5F6F73 		.ascii	"k_osc_api_platform\000"
 4215      635F6170 
 4215      695F706C 
 4215      6174666F 
 4215      726D00
 4216              		.ident	"GCC: (GNU Tools for ARM Embedded Processors) 5.4.1 20160919 (release) [ARM/embedded-5-bran
ARM GAS  C:\Users\eric\AppData\Local\Temp\ccyeDnt3.s 			page 81


DEFINED SYMBOLS
                            *ABS*:00000000 supersaw.cpp
C:\Users\eric\AppData\Local\Temp\ccyeDnt3.s:21     .text:00000000 $t
C:\Users\eric\AppData\Local\Temp\ccyeDnt3.s:26     .text:00000000 _hook_init
C:\Users\eric\AppData\Local\Temp\ccyeDnt3.s:67     .text:00000020 $d
C:\Users\eric\AppData\Local\Temp\ccyeDnt3.s:71     .text:00000024 $t
C:\Users\eric\AppData\Local\Temp\ccyeDnt3.s:76     .text:00000024 _hook_cycle
C:\Users\eric\AppData\Local\Temp\ccyeDnt3.s:661    .text:00000298 $d
C:\Users\eric\AppData\Local\Temp\ccyeDnt3.s:674    .text:000002c0 $t
C:\Users\eric\AppData\Local\Temp\ccyeDnt3.s:679    .text:000002c0 _hook_on
C:\Users\eric\AppData\Local\Temp\ccyeDnt3.s:696    .text:000002cc $d
C:\Users\eric\AppData\Local\Temp\ccyeDnt3.s:700    .text:000002d0 $t
C:\Users\eric\AppData\Local\Temp\ccyeDnt3.s:705    .text:000002d0 _hook_off
C:\Users\eric\AppData\Local\Temp\ccyeDnt3.s:722    .text:000002d2 _hook_param
C:\Users\eric\AppData\Local\Temp\ccyeDnt3.s:739    .text:000002e2 $d
C:\Users\eric\AppData\Local\Temp\ccyeDnt3.s:745    .text:000002e8 $t
C:\Users\eric\AppData\Local\Temp\ccyeDnt3.s:795    .text:00000324 $d
C:\Users\eric\AppData\Local\Temp\ccyeDnt3.s:818    .bss:00000024 instances
C:\Users\eric\AppData\Local\Temp\ccyeDnt3.s:807    .data:00000000 maxVoice
C:\Users\eric\AppData\Local\Temp\ccyeDnt3.s:803    .data:00000000 $d
C:\Users\eric\AppData\Local\Temp\ccyeDnt3.s:810    .bss:00000000 $d
C:\Users\eric\AppData\Local\Temp\ccyeDnt3.s:814    .bss:00000000 _ZL7s_state
                     .debug_frame:00000010 $d

UNDEFINED SYMBOLS
_osc_white
midi_to_hz_lut_f
