ARM GAS  C:\Users\eric\AppData\Local\Temp\ccZFBEId.s 			page 1


   1              		.syntax unified
   2              		.cpu cortex-m4
   3              		.eabi_attribute 27, 1
   4              		.eabi_attribute 28, 1
   5              		.fpu fpv4-sp-d16
   6              		.eabi_attribute 20, 1
   7              		.eabi_attribute 21, 1
   8              		.eabi_attribute 23, 3
   9              		.eabi_attribute 24, 1
  10              		.eabi_attribute 25, 1
  11              		.eabi_attribute 26, 1
  12              		.eabi_attribute 30, 4
  13              		.eabi_attribute 34, 1
  14              		.eabi_attribute 18, 4
  15              		.thumb
  16              		.syntax unified
  17              		.file	"supersaw.cpp"
  18              		.text
  19              	.Ltext0:
  20              		.cfi_sections	.debug_frame
  21              		.align	1
  22              		.global	_hook_init
  23              		.thumb
  24              		.thumb_func
  25              		.type	_hook_init, %function
  26              	_hook_init:
  27              	.LFB239:
  28              		.file 1 "supersaw.cpp"
  29              		.loc 1 74 0
  30              		.cfi_startproc
  31              		@ args = 0, pretend = 0, frame = 0
  32              		@ frame_needed = 0, uses_anonymous_args = 0
  33              		@ link register save eliminated.
  34              	.LVL0:
  35              		.loc 1 75 0
  36 0000 084B     		ldr	r3, .L2
  37 0002 4FF07E52 		mov	r2, #1065353216
  38              		.loc 1 77 0
  39 0006 0021     		movs	r1, #0
  40              	.LVL1:
  41              		.loc 1 75 0
  42 0008 1A60     		str	r2, [r3]	@ float
  43              		.loc 1 77 0
  44 000a 1973     		strb	r1, [r3, #12]
  45              		.loc 1 76 0
  46 000c 0022     		movs	r2, #0
  47              		.loc 1 78 0
  48 000e 0221     		movs	r1, #2
  49              		.loc 1 76 0
  50 0010 9A60     		str	r2, [r3, #8]	@ float
  51 0012 5A60     		str	r2, [r3, #4]	@ float
  52              		.loc 1 78 0
  53 0014 1961     		str	r1, [r3, #16]
  54              		.loc 1 80 0
  55 0016 DA61     		str	r2, [r3, #28]	@ float
  56              		.loc 1 79 0
  57 0018 0A21     		movs	r1, #10
ARM GAS  C:\Users\eric\AppData\Local\Temp\ccZFBEId.s 			page 2


  58              		.loc 1 81 0
  59 001a 1A62     		str	r2, [r3, #32]	@ float
  60              		.loc 1 82 0
  61 001c 024A     		ldr	r2, .L2+4
  62              		.loc 1 79 0
  63 001e 9961     		str	r1, [r3, #24]
  64              		.loc 1 82 0
  65 0020 1A63     		str	r2, [r3, #48]	@ float
  66 0022 7047     		bx	lr
  67              	.L3:
  68              		.align	2
  69              	.L2:
  70 0024 00000000 		.word	.LANCHOR0
  71 0028 CDCC4C3E 		.word	1045220557
  72              		.cfi_endproc
  73              	.LFE239:
  74              		.size	_hook_init, .-_hook_init
  75              		.align	1
  76              		.global	_hook_cycle
  77              		.thumb
  78              		.thumb_func
  79              		.type	_hook_cycle, %function
  80              	_hook_cycle:
  81              	.LFB243:
  82              		.loc 1 124 0
  83              		.cfi_startproc
  84              		@ args = 0, pretend = 0, frame = 16
  85              		@ frame_needed = 0, uses_anonymous_args = 0
  86              	.LVL2:
  87 002c 2DE9F04F 		push	{r4, r5, r6, r7, r8, r9, r10, fp, lr}
  88              		.cfi_def_cfa_offset 36
  89              		.cfi_offset 4, -36
  90              		.cfi_offset 5, -32
  91              		.cfi_offset 6, -28
  92              		.cfi_offset 7, -24
  93              		.cfi_offset 8, -20
  94              		.cfi_offset 9, -16
  95              		.cfi_offset 10, -12
  96              		.cfi_offset 11, -8
  97              		.cfi_offset 14, -4
  98              		.loc 1 125 0
  99 0030 994C     		ldr	r4, .L42
 100              		.loc 1 130 0
 101 0032 D0ED007A 		vldr.32	s15, [r0]	@ int
 102              		.loc 1 125 0
 103 0036 94F80C90 		ldrb	r9, [r4, #12]	@ zero_extendqisi2
 104              	.LVL3:
 105              		.loc 1 141 0
 106 003a B0F80480 		ldrh	r8, [r0, #4]
 107              	.LBB84:
 108              	.LBB85:
 109              	.LBB86:
 110              	.LBB87:
 111              	.LBB88:
 112              	.LBB89:
 113              		.file 2 "../inc/osc_api.h"
 114              		.loc 2 115 0
ARM GAS  C:\Users\eric\AppData\Local\Temp\ccZFBEId.s 			page 3


 115 003e DFF878A2 		ldr	r10, .L42+32
 116              	.LBE89:
 117              	.LBE88:
 118              	.LBE87:
 119              	.LBE86:
 120              	.LBE85:
 121              	.LBE84:
 122              		.loc 1 142 0
 123 0042 964E     		ldr	r6, .L42+4
 124              		.loc 1 126 0
 125 0044 0023     		movs	r3, #0
 126              		.loc 1 130 0
 127 0046 FAEEE07A 		vcvt.f32.s32	s15, s15, #31
 128              		.loc 1 126 0
 129 004a 2373     		strb	r3, [r4, #12]
 130              		.loc 1 131 0
 131 004c 19F00103 		ands	r3, r9, #1
 132              		.loc 1 124 0
 133 0050 2DED088B 		vpush.64	{d8, d9, d10, d11}
 134              		.cfi_def_cfa_offset 68
 135              		.cfi_offset 80, -68
 136              		.cfi_offset 81, -64
 137              		.cfi_offset 82, -60
 138              		.cfi_offset 83, -56
 139              		.cfi_offset 84, -52
 140              		.cfi_offset 85, -48
 141              		.cfi_offset 86, -44
 142              		.cfi_offset 87, -40
 143              		.loc 1 132 0
 144 0054 07EE102A 		vmov	s14, r2	@ int
 145              		.loc 1 131 0
 146 0058 08BF     		it	eq
 147 005a 94ED029A 		vldreq.32	s18, [r4, #8]
 148              		.loc 1 130 0
 149 005e C4ED017A 		vstr.32	s15, [r4, #4]
 150              		.loc 1 131 0
 151 0062 18BF     		it	ne
 152 0064 B0EE679A 		vmovne.f32	s18, s15
 153              		.loc 1 132 0
 154 0068 77EEC97A 		vsub.f32	s15, s15, s18
 155 006c B8EE477A 		vcvt.f32.u32	s14, s14
 156              		.loc 1 124 0
 157 0070 85B0     		sub	sp, sp, #20
 158              		.cfi_def_cfa_offset 88
 159              		.loc 1 132 0
 160 0072 87EE878A 		vdiv.f32	s16, s15, s14
 161              		.loc 1 135 0
 162 0076 01EB8209 		add	r9, r1, r2, lsl #2
 163              	.LVL4:
 164              		.loc 1 124 0
 165 007a 0D46     		mov	r5, r1
 166              		.loc 1 138 0
 167 007c A269     		ldr	r2, [r4, #24]
 168              	.LVL5:
 169              		.loc 1 137 0
 170 007e 2169     		ldr	r1, [r4, #16]
 171              	.LVL6:
ARM GAS  C:\Users\eric\AppData\Local\Temp\ccZFBEId.s 			page 4


 172              		.loc 1 131 0
 173 0080 0093     		str	r3, [sp]
 174              		.loc 1 141 0
 175 0082 4FEA182B 		lsr	fp, r8, #8
 176              	.LBB130:
 177              		.loc 1 144 0
 178 0086 0027     		movs	r7, #0
 179              	.LBE130:
 180              		.loc 1 142 0
 181 0088 5FFA88F8 		uxtb	r8, r8
 182 008c 5046     		mov	r0, r10
 183              	.LVL7:
 184              		.loc 1 128 0
 185 008e D4ED008A 		vldr.32	s17, [r4]
 186              	.LVL8:
 187              	.LBB131:
 188              	.LBB128:
 189              	.LBB119:
 190              	.LBB114:
 191              	.LBB94:
 192              	.LBB95:
 193              		.file 3 "../inc/utils/float_math.h"
 194              		.loc 3 825 0
 195 0092 DFED839A 		vldr.32	s19, .L42+8
 196              	.LVL9:
 197              	.L13:
 198 0096 5FFA81FE 		uxtb	lr, r1
 199              	.LBE95:
 200              	.LBE94:
 201              	.LBE114:
 202              	.LBE119:
 203              	.LBE128:
 204              		.loc 1 144 0 discriminator 1
 205 009a 7745     		cmp	r7, lr
 206 009c 60DA     		bge	.L6
 207              	.LVL10:
 208              	.LBB129:
 209              	.LBB120:
 210              	.LBB121:
 211              		.loc 1 91 0
 212 009e CEEB070E 		rsb	lr, lr, r7
 213              	.LVL11:
 214 00a2 D3B2     		uxtb	r3, r2
 215 00a4 4FEA6E0E 		asr	lr, lr, #1
 216 00a8 03FB0E8E 		mla	lr, r3, lr, r8
 217 00ac 4FF0FF0C 		mov	ip, #255
 218 00b0 9EFBFCFC 		sdiv	ip, lr, ip
 219              	.LVL12:
 220              		.loc 1 92 0
 221 00b4 CCEB0C23 		rsb	r3, ip, ip, lsl #8
 222              	.LVL13:
 223              		.loc 1 93 0
 224 00b8 BEEB0303 		subs	r3, lr, r3
 225              	.LVL14:
 226              		.loc 1 94 0
 227 00bc 48BF     		it	mi
 228 00be 0CF1FF3C 		addmi	ip, ip, #-1
ARM GAS  C:\Users\eric\AppData\Local\Temp\ccZFBEId.s 			page 5


 229              	.LVL15:
 230              		.loc 1 100 0
 231 00c2 DC44     		add	ip, ip, fp
 232              	.LVL16:
 233              		.loc 1 95 0
 234 00c4 48BF     		it	mi
 235 00c6 FF33     		addmi	r3, r3, #255
 236              	.LVL17:
 237              		.loc 1 102 0
 238 00c8 43EA0C23 		orr	r3, r3, ip, lsl #8
 239              	.LVL18:
 240 00cc 9BB2     		uxth	r3, r3
 241              	.LVL19:
 242              	.LBE121:
 243              	.LBE120:
 244              		.loc 1 147 0
 245 00ce 4FEA232E 		asr	lr, r3, #8
 246              	.LBB122:
 247              	.LBB115:
 248              	.LBB98:
 249              	.LBB90:
 250              		.loc 2 115 0
 251 00d2 BEF1960F 		cmp	lr, #150
 252 00d6 D8BF     		it	le
 253 00d8 F446     		movle	ip, lr
 254              	.LBE90:
 255              	.LBE98:
 256              		.loc 2 126 0
 257 00da 0EF1010E 		add	lr, lr, #1
 258 00de 5FFA8EFE 		uxtb	lr, lr
 259              	.LBE115:
 260              	.LBE122:
 261              		.loc 1 147 0
 262 00e2 DBB2     		uxtb	r3, r3
 263              	.LBB123:
 264              	.LBB116:
 265              	.LBB99:
 266              	.LBB91:
 267              		.loc 2 115 0
 268 00e4 C8BF     		it	gt
 269 00e6 4FF0970C 		movgt	ip, #151
 270              	.LBE91:
 271              	.LBE99:
 272              	.LBB100:
 273              	.LBB101:
 274 00ea BEF1960F 		cmp	lr, #150
 275              	.LBE101:
 276              	.LBE100:
 277              	.LBE116:
 278              	.LBE123:
 279              		.loc 1 147 0
 280 00ee 07EE903A 		vmov	s15, r3	@ int
 281              	.LVL20:
 282              	.LBB124:
 283              	.LBB117:
 284              	.LBB104:
 285              	.LBB102:
ARM GAS  C:\Users\eric\AppData\Local\Temp\ccZFBEId.s 			page 6


 286              		.loc 2 115 0
 287 00f2 88BF     		it	hi
 288 00f4 4FF0970E 		movhi	lr, #151
 289              	.LBE102:
 290              	.LBE104:
 291              	.LBB105:
 292              	.LBB92:
 293 00f8 0AEB8C0C 		add	ip, r10, ip, lsl #2
 294              	.LBE92:
 295              	.LBE105:
 296              	.LBB106:
 297              	.LBB103:
 298 00fc 00EB8E0E 		add	lr, r0, lr, lsl #2
 299              	.LBE103:
 300              	.LBE106:
 301              	.LBB107:
 302              	.LBB93:
 303 0100 9CED007A 		vldr.32	s14, [ip]
 304              	.LVL21:
 305              	.LBE93:
 306              	.LBE107:
 307              	.LBB108:
 308              	.LBB96:
 309              		.loc 3 825 0
 310 0104 DEED006A 		vldr.32	s13, [lr]
 311              	.LBE96:
 312              	.LBE108:
 313              	.LBE117:
 314              	.LBE124:
 315              		.loc 1 148 0
 316 0108 009B     		ldr	r3, [sp]
 317              	.LVL22:
 318              	.LBB125:
 319              	.LBB118:
 320              	.LBB109:
 321              	.LBB97:
 322              		.loc 3 825 0
 323 010a F8EEE77A 		vcvt.f32.s32	s15, s15
 324              	.LVL23:
 325 010e 76EEC76A 		vsub.f32	s13, s13, s14
 326 0112 67EEA97A 		vmul.f32	s15, s15, s19
 327 0116 A7EEA67A 		vfma.f32	s14, s15, s13
 328              	.LVL24:
 329              	.LBE97:
 330              	.LBE109:
 331              	.LBB110:
 332              	.LBB111:
 333              	.LBB112:
 334              	.LBB113:
 335              		.loc 3 193 0
 336 011a DFED627A 		vldr.32	s15, .L42+12
 337 011e B4EEE77A 		vcmpe.f32	s14, s15
 338 0122 F1EE10FA 		vmrs	APSR_nzcv, FPSCR
 339 0126 B8BF     		it	lt
 340 0128 F0EE477A 		vmovlt.f32	s15, s14
 341              	.LVL25:
 342              	.LBE113:
ARM GAS  C:\Users\eric\AppData\Local\Temp\ccZFBEId.s 			page 7


 343              	.LBE112:
 344              	.LBE111:
 345              	.LBE110:
 346              	.LBE118:
 347              	.LBE125:
 348              		.loc 1 147 0
 349 012c 9FED5E7A 		vldr.32	s14, .L42+16
 350 0130 67EE877A 		vmul.f32	s15, s15, s14
 351 0134 C6ED007A 		vstr.32	s15, [r6]
 352              		.loc 1 148 0
 353 0138 7BB1     		cbz	r3, .L11
 354              		.loc 1 149 0
 355 013a 94F92430 		ldrsb	r3, [r4, #36]
 356 013e 43B9     		cbnz	r3, .L29
 357 0140 0390     		str	r0, [sp, #12]
 358 0142 0292     		str	r2, [sp, #8]
 359 0144 0191     		str	r1, [sp, #4]
 360              	.LBB126:
 361              	.LBB127:
 362              		.loc 2 780 0
 363 0146 FFF7FEFF 		bl	_osc_white
 364              	.LVL26:
 365              	.LBE127:
 366              	.LBE126:
 367 014a 0199     		ldr	r1, [sp, #4]
 368 014c 029A     		ldr	r2, [sp, #8]
 369 014e 0398     		ldr	r0, [sp, #12]
 370 0150 01E0     		b	.L12
 371              	.LVL27:
 372              	.L29:
 373              		.loc 1 149 0
 374 0152 9FED560A 		vldr.32	s0, .L42+20
 375              	.LVL28:
 376              	.L12:
 377              		.loc 1 149 0 is_stmt 0 discriminator 4
 378 0156 06ED010A 		vstr.32	s0, [r6, #-4]
 379              	.L11:
 380              	.LBE129:
 381              		.loc 1 144 0 is_stmt 1 discriminator 2
 382 015a 0137     		adds	r7, r7, #1
 383              	.LVL29:
 384 015c 0836     		adds	r6, r6, #8
 385 015e 9AE7     		b	.L13
 386              	.L6:
 387 0160 534F     		ldr	r7, .L42+24
 388              	.LVL30:
 389 0162 F7EE009A 		vmov.f32	s19, #1.0e+0
 390 0166 07EBCE0E 		add	lr, r7, lr, lsl #3
 391 016a 0EF10406 		add	r6, lr, #4
 392 016e B0EE69BA 		vmov.f32	s22, s19
 393              	.LBE131:
 394              	.LBB132:
 395              	.LBB133:
 396              		.loc 1 164 0
 397 0172 343F     		subs	r7, r7, #52
 398              	.LVL31:
 399              	.L24:
ARM GAS  C:\Users\eric\AppData\Local\Temp\ccZFBEId.s 			page 8


 400              	.LBE133:
 401              		.loc 1 154 0
 402 0174 4D45     		cmp	r5, r9
 403 0176 00F08780 		beq	.L14
 404              	.LBB161:
 405              	.LBB134:
 406              	.LBB135:
 407              	.LBB136:
 408              	.LBB137:
 409              		.loc 1 109 0
 410 017a D4ED086A 		vldr.32	s13, [r4, #32]
 411              	.LBE137:
 412              	.LBE136:
 413              		.loc 1 158 0
 414 017e D4ED055A 		vldr.32	s11, [r4, #20]
 415 0182 464B     		ldr	r3, .L42+4
 416 0184 DFED49AA 		vldr.32	s21, .L42+20
 417 0188 BFEE006A 		vmov.f32	s12, #-1.0e+0
 418              	.LBB140:
 419              	.LBB138:
 420              		.loc 1 107 0
 421 018c F0EE003A 		vmov.f32	s7, #2.0e+0
 422              		.loc 1 108 0
 423 0190 B6EE004A 		vmov.f32	s8, #5.0e-1
 424              	.L17:
 425              	.LVL32:
 426              	.LBE138:
 427              	.LBE140:
 428              	.LBE135:
 429              		.loc 1 156 0 discriminator 3
 430 0194 9E42     		cmp	r6, r3
 431 0196 26D0     		beq	.L15
 432              	.LBB142:
 433              		.loc 1 157 0 discriminator 2
 434 0198 53ED017A 		vldr.32	s15, [r3, #-4]
 435              	.LVL33:
 436              	.LBB141:
 437              	.LBB139:
 438              		.loc 1 107 0 discriminator 2
 439 019c 39EEE77A 		vsub.f32	s14, s19, s15
 440              		.loc 1 108 0 discriminator 2
 441 01a0 F4EEC47A 		vcmpe.f32	s15, s8
 442              		.loc 1 107 0 discriminator 2
 443 01a4 F0EE464A 		vmov.f32	s9, s12
 444 01a8 E7EE234A 		vfma.f32	s9, s14, s7
 445              	.LVL34:
 446 01ac 0833     		adds	r3, r3, #8
 447              		.loc 1 108 0 discriminator 2
 448 01ae F1EE10FA 		vmrs	APSR_nzcv, FPSCR
 449 01b2 D4BF     		ite	le
 450 01b4 B0EE697A 		vmovle.f32	s14, s19
 451 01b8 B0EE467A 		vmovgt.f32	s14, s12
 452              	.LVL35:
 453              	.LBE139:
 454              	.LBE141:
 455              		.loc 1 158 0 discriminator 2
 456 01bc 26EE877A 		vmul.f32	s14, s13, s14
ARM GAS  C:\Users\eric\AppData\Local\Temp\ccZFBEId.s 			page 9


 457 01c0 39EEE65A 		vsub.f32	s10, s19, s13
 458 01c4 A4EE857A 		vfma.f32	s14, s9, s10
 459 01c8 E5EE87AA 		vfma.f32	s21, s11, s14
 460              	.LVL36:
 461              		.loc 1 159 0 discriminator 2
 462 01cc 13ED027A 		vldr.32	s14, [r3, #-8]
 463 01d0 77EE877A 		vadd.f32	s15, s15, s14
 464              	.LVL37:
 465              		.loc 1 160 0 discriminator 2
 466 01d4 BCEEE77A 		vcvt.u32.f32	s14, s15
 467 01d8 B8EE477A 		vcvt.f32.u32	s14, s14
 468              	.LVL38:
 469              		.loc 1 161 0 discriminator 2
 470 01dc 77EEC77A 		vsub.f32	s15, s15, s14
 471              	.LVL39:
 472 01e0 43ED037A 		vstr.32	s15, [r3, #-12]
 473              	.LBE142:
 474              		.loc 1 156 0 discriminator 2
 475 01e4 D6E7     		b	.L17
 476              	.LVL40:
 477              	.L15:
 478              	.LBE134:
 479              		.loc 1 164 0
 480 01e6 94ED07AA 		vldr.32	s20, [r4, #28]
 481              	.LBB143:
 482              	.LBB144:
 483              		.loc 2 780 0
 484 01ea FFF7FEFF 		bl	_osc_white
 485              	.LVL41:
 486              	.LBE144:
 487              	.LBE143:
 488              		.loc 1 164 0
 489 01ee D4ED077A 		vldr.32	s15, [r4, #28]
 490              	.LBB145:
 491              	.LBB146:
 492              		.loc 1 113 0
 493 01f2 94ED0A7A 		vldr.32	s14, [r4, #40]
 494              	.LBE146:
 495              	.LBE145:
 496              		.loc 1 164 0
 497 01f6 3BEE4AAA 		vsub.f32	s20, s22, s20
 498 01fa 20EE270A 		vmul.f32	s0, s0, s15
 499 01fe AAEE8A0A 		vfma.f32	s0, s21, s20
 500              	.LVL42:
 501              	.LBB148:
 502              	.LBB147:
 503              		.loc 1 113 0
 504 0202 B4EEC70A 		vcmpe.f32	s0, s14
 505 0206 F1EE10FA 		vmrs	APSR_nzcv, FPSCR
 506 020a 08DD     		ble	.L39
 507              		.loc 1 114 0
 508 020c 70EE477A 		vsub.f32	s15, s0, s14
 509 0210 D7ED0C6A 		vldr.32	s13, [r7, #48]
 510 0214 A7EEA67A 		vfma.f32	s14, s15, s13
 511 0218 B0EE470A 		vmov.f32	s0, s14
 512              	.LVL43:
 513 021c 0EE0     		b	.L20
ARM GAS  C:\Users\eric\AppData\Local\Temp\ccZFBEId.s 			page 10


 514              	.LVL44:
 515              	.L39:
 516              		.loc 1 115 0
 517 021e F1EE477A 		vneg.f32	s15, s14
 518 0222 B4EEE70A 		vcmpe.f32	s0, s15
 519 0226 F1EE10FA 		vmrs	APSR_nzcv, FPSCR
 520              		.loc 1 116 0
 521 022a 41BF     		itttt	mi
 522 022c 30EE070A 		vaddmi.f32	s0, s0, s14
 523              	.LVL45:
 524 0230 97ED0C7A 		vldrmi.32	s14, [r7, #48]
 525 0234 E0EE077A 		vfmami.f32	s15, s0, s14
 526 0238 B0EE670A 		vmovmi.f32	s0, s15
 527              	.LVL46:
 528              	.L20:
 529              	.LBE147:
 530              	.LBE148:
 531              		.loc 1 166 0
 532 023c D4ED0B7A 		vldr.32	s15, [r4, #44]
 533 0240 20EE270A 		vmul.f32	s0, s0, s15
 534              	.LBB149:
 535              	.LBB150:
 536              	.LBB151:
 537              	.LBB152:
 538              	.LBB153:
 539              	.LBB154:
 540              		.loc 3 193 0
 541 0244 FFEE007A 		vmov.f32	s15, #-1.0e+0
 542              	.LBE154:
 543              	.LBE153:
 544              	.LBE152:
 545              	.LBE151:
 546              	.LBE150:
 547              	.LBE149:
 548              		.loc 1 166 0
 549 0248 20EE280A 		vmul.f32	s0, s0, s17
 550              	.LVL47:
 551              	.LBB160:
 552              	.LBB159:
 553              	.LBB158:
 554              	.LBB157:
 555              	.LBB156:
 556              	.LBB155:
 557              		.loc 3 193 0
 558 024c B4EEE70A 		vcmpe.f32	s0, s15
 559 0250 F1EE10FA 		vmrs	APSR_nzcv, FPSCR
 560 0254 07DB     		blt	.L40
 561              	.LVL48:
 562 0256 B4EECB0A 		vcmpe.f32	s0, s22
 563 025a F1EE10FA 		vmrs	APSR_nzcv, FPSCR
 564 025e A8BF     		it	ge
 565 0260 B0EE690A 		vmovge.f32	s0, s19
 566              	.LVL49:
 567 0264 01E0     		b	.L22
 568              	.LVL50:
 569              	.L40:
 570 0266 BFEE000A 		vmov.f32	s0, #-1.0e+0
ARM GAS  C:\Users\eric\AppData\Local\Temp\ccZFBEId.s 			page 11


 571              	.LVL51:
 572              	.L22:
 573              	.LBE155:
 574              	.LBE156:
 575              	.LBE157:
 576              	.LBE158:
 577              	.LBE159:
 578              	.LBE160:
 579              		.loc 1 167 0
 580 026a 60EE007A 		vmul.f32	s15, s0, s0
 581 026e 9FED117A 		vldr.32	s14, .L42+28
 582 0272 60EE677A 		vnmul.f32	s15, s0, s15
 583              		.loc 1 168 0
 584 0276 39EE089A 		vadd.f32	s18, s18, s16
 585              	.LVL52:
 586              		.loc 1 167 0
 587 027a A7EE870A 		vfma.f32	s0, s15, s14
 588 027e BEEEE00A 		vcvt.s32.f32	s0, s0, #31
 589 0282 A5EC010A 		vstmia.32	r5!, {s0}	@ int
 590              	.LVL53:
 591              	.LBE161:
 592              		.loc 1 154 0
 593 0286 75E7     		b	.L24
 594              	.LVL54:
 595              	.L14:
 596              	.LBE132:
 597              		.loc 1 171 0
 598 0288 84ED029A 		vstr.32	s18, [r4, #8]
 599              		.loc 1 172 0
 600 028c 05B0     		add	sp, sp, #20
 601              		.cfi_def_cfa_offset 68
 602              		@ sp needed
 603 028e BDEC088B 		vldm	sp!, {d8-d11}
 604              		.cfi_restore 86
 605              		.cfi_restore 87
 606              		.cfi_restore 84
 607              		.cfi_restore 85
 608              		.cfi_restore 82
 609              		.cfi_restore 83
 610              		.cfi_restore 80
 611              		.cfi_restore 81
 612              		.cfi_def_cfa_offset 36
 613              	.LVL55:
 614 0292 BDE8F08F 		pop	{r4, r5, r6, r7, r8, r9, r10, fp, pc}
 615              	.LVL56:
 616              	.L43:
 617 0296 00BF     		.align	2
 618              	.L42:
 619 0298 00000000 		.word	.LANCHOR0
 620 029c 38000000 		.word	.LANCHOR0+56
 621 02a0 8180803B 		.word	998277249
 622 02a4 49FFB846 		.word	1186529097
 623 02a8 3EC3AE37 		.word	934200126
 624 02ac 00000000 		.word	0
 625 02b0 34000000 		.word	.LANCHOR0+52
 626 02b4 CDCC4C3D 		.word	1028443341
 627 02b8 00000000 		.word	midi_to_hz_lut_f
ARM GAS  C:\Users\eric\AppData\Local\Temp\ccZFBEId.s 			page 12


 628              		.cfi_endproc
 629              	.LFE243:
 630              		.size	_hook_cycle, .-_hook_cycle
 631              		.align	1
 632              		.global	_hook_on
 633              		.thumb
 634              		.thumb_func
 635              		.type	_hook_on, %function
 636              	_hook_on:
 637              	.LFB244:
 638              		.loc 1 175 0
 639              		.cfi_startproc
 640              		@ args = 0, pretend = 0, frame = 0
 641              		@ frame_needed = 0, uses_anonymous_args = 0
 642              		@ link register save eliminated.
 643              	.LVL57:
 644              		.loc 1 176 0
 645 02bc 024A     		ldr	r2, .L45
 646 02be 137B     		ldrb	r3, [r2, #12]	@ zero_extendqisi2
 647 02c0 43F00103 		orr	r3, r3, #1
 648 02c4 1373     		strb	r3, [r2, #12]
 649 02c6 7047     		bx	lr
 650              	.L46:
 651              		.align	2
 652              	.L45:
 653 02c8 00000000 		.word	.LANCHOR0
 654              		.cfi_endproc
 655              	.LFE244:
 656              		.size	_hook_on, .-_hook_on
 657              		.align	1
 658              		.global	_hook_off
 659              		.thumb
 660              		.thumb_func
 661              		.type	_hook_off, %function
 662              	_hook_off:
 663              	.LFB245:
 664              		.loc 1 180 0
 665              		.cfi_startproc
 666              		@ args = 0, pretend = 0, frame = 0
 667              		@ frame_needed = 0, uses_anonymous_args = 0
 668              		@ link register save eliminated.
 669              	.LVL58:
 670 02cc 7047     		bx	lr
 671              		.cfi_endproc
 672              	.LFE245:
 673              		.size	_hook_off, .-_hook_off
 674              		.align	1
 675              		.global	_hook_param
 676              		.thumb
 677              		.thumb_func
 678              		.type	_hook_param, %function
 679              	_hook_param:
 680              	.LFB246:
 681              		.loc 1 185 0
 682              		.cfi_startproc
 683              		@ args = 0, pretend = 0, frame = 0
 684              		@ frame_needed = 0, uses_anonymous_args = 0
ARM GAS  C:\Users\eric\AppData\Local\Temp\ccZFBEId.s 			page 13


 685              		@ link register save eliminated.
 686              	.LVL59:
 687              		.loc 1 186 0
 688 02ce 07EE901A 		vmov	s15, r1	@ int
 689 02d2 F8EEE77A 		vcvt.f32.s32	s15, s15
 690              	.LVL60:
 691              		.loc 1 188 0
 692 02d6 0628     		cmp	r0, #6
 693 02d8 3ED8     		bhi	.L48
 694 02da DFE800F0 		tbb	[pc, r0]
 695              	.L51:
 696 02de 04       		.byte	(.L50-.L51)/2
 697 02df 12       		.byte	(.L52-.L51)/2
 698 02e0 16       		.byte	(.L53-.L51)/2
 699 02e1 1E       		.byte	(.L54-.L51)/2
 700 02e2 22       		.byte	(.L55-.L51)/2
 701 02e3 3D       		.byte	(.L48-.L51)/2
 702 02e4 36       		.byte	(.L56-.L51)/2
 703 02e5 00       		.p2align 1
 704              	.L50:
 705              		.loc 1 190 0
 706 02e6 0131     		adds	r1, r1, #1
 707              	.LVL61:
 708              		.loc 1 191 0
 709 02e8 07EE901A 		vmov	s15, r1	@ int
 710              	.LVL62:
 711 02ec F8EEE77A 		vcvt.f32.s32	s15, s15
 712 02f0 F7EE006A 		vmov.f32	s13, #1.0e+0
 713 02f4 86EEA77A 		vdiv.f32	s14, s13, s15
 714              		.loc 1 190 0
 715 02f8 184B     		ldr	r3, .L57
 716 02fa 1961     		str	r1, [r3, #16]
 717              		.loc 1 191 0
 718 02fc 83ED057A 		vstr.32	s14, [r3, #20]
 719              		.loc 1 192 0
 720 0300 7047     		bx	lr
 721              	.LVL63:
 722              	.L52:
 723              		.loc 1 194 0
 724 0302 164B     		ldr	r3, .L57
 725 0304 0131     		adds	r1, r1, #1
 726              	.LVL64:
 727 0306 9961     		str	r1, [r3, #24]
 728              		.loc 1 195 0
 729 0308 7047     		bx	lr
 730              	.LVL65:
 731              	.L53:
 732              		.loc 1 197 0
 733 030a DFED156A 		vldr.32	s13, .L57+4
 734 030e 134B     		ldr	r3, .L57
 735 0310 87EEA67A 		vdiv.f32	s14, s15, s13
 736 0314 83ED077A 		vstr.32	s14, [r3, #28]
 737              		.loc 1 198 0
 738 0318 7047     		bx	lr
 739              	.L54:
 740              		.loc 1 200 0
 741 031a 104B     		ldr	r3, .L57
ARM GAS  C:\Users\eric\AppData\Local\Temp\ccZFBEId.s 			page 14


 742 031c 83F82410 		strb	r1, [r3, #36]
 743              		.loc 1 201 0
 744 0320 7047     		bx	lr
 745              	.L55:
 746              		.loc 1 203 0
 747 0322 DFED0F6A 		vldr.32	s13, .L57+4
 748 0326 0D4B     		ldr	r3, .L57
 749 0328 87EEA67A 		vdiv.f32	s14, s15, s13
 750              		.loc 1 204 0
 751 032c F7EE007A 		vmov.f32	s15, #1.0e+0
 752              	.LVL66:
 753 0330 D3ED0C6A 		vldr.32	s13, [r3, #48]
 754              		.loc 1 203 0
 755 0334 83ED0A7A 		vstr.32	s14, [r3, #40]
 756              		.loc 1 204 0
 757 0338 37EEC76A 		vsub.f32	s12, s15, s14
 758 033c A6EE267A 		vfma.f32	s14, s12, s13
 759 0340 C7EE876A 		vdiv.f32	s13, s15, s14
 760 0344 C3ED0B6A 		vstr.32	s13, [r3, #44]
 761              		.loc 1 205 0
 762 0348 7047     		bx	lr
 763              	.LVL67:
 764              	.L56:
 765              		.loc 1 207 0
 766 034a 9FED067A 		vldr.32	s14, .L57+8
 767 034e 034B     		ldr	r3, .L57
 768 0350 67EE877A 		vmul.f32	s15, s15, s14
 769              	.LVL68:
 770 0354 C3ED087A 		vstr.32	s15, [r3, #32]
 771              	.L48:
 772 0358 7047     		bx	lr
 773              	.L58:
 774 035a 00BF     		.align	2
 775              	.L57:
 776 035c 00000000 		.word	.LANCHOR0
 777 0360 0000C842 		.word	1120403456
 778 0364 0820803A 		.word	981475336
 779              		.cfi_endproc
 780              	.LFE246:
 781              		.size	_hook_param, .-_hook_param
 782              		.global	instances
 783              		.global	maxVoice
 784              		.data
 785              		.align	2
 786              		.type	maxVoice, %object
 787              		.size	maxVoice, 4
 788              	maxVoice:
 789 0000 0C000000 		.word	12
 790              		.bss
 791              		.align	2
 792              		.set	.LANCHOR0,. + 0
 793              		.type	_ZL7s_state, %object
 794              		.size	_ZL7s_state, 52
 795              	_ZL7s_state:
 796 0000 00000000 		.space	52
 796      00000000 
 796      00000000 
ARM GAS  C:\Users\eric\AppData\Local\Temp\ccZFBEId.s 			page 15


 796      00000000 
 796      00000000 
 797              		.type	instances, %object
 798              		.size	instances, 96
 799              	instances:
 800 0034 00000000 		.space	96
 800      00000000 
 800      00000000 
 800      00000000 
 800      00000000 
 801              		.text
 802              	.Letext0:
 803              		.file 4 "c:\\users\\eric\\logue-sdk\\tools\\gcc\\gcc-arm-none-eabi-5_4-2016q3\\arm-none-eabi\\incl
 804              		.file 5 "c:\\users\\eric\\logue-sdk\\tools\\gcc\\gcc-arm-none-eabi-5_4-2016q3\\arm-none-eabi\\incl
 805              		.file 6 "../../ext/CMSIS/CMSIS/Include/arm_math.h"
 806              		.file 7 "../inc/userosc.h"
 807              		.file 8 "../inc/userprg.h"
 808              		.file 9 "../inc/utils/int_math.h"
 809              		.section	.debug_info,"",%progbits
 810              	.Ldebug_info0:
 811 0000 2C0B0000 		.4byte	0xb2c
 812 0004 0400     		.2byte	0x4
 813 0006 00000000 		.4byte	.Ldebug_abbrev0
 814 000a 04       		.byte	0x4
 815 000b 01       		.uleb128 0x1
 816 000c 3C000000 		.4byte	.LASF113
 817 0010 04       		.byte	0x4
 818 0011 B8050000 		.4byte	.LASF114
 819 0015 30020000 		.4byte	.LASF115
 820 0019 00000000 		.4byte	.Ltext0
 821 001d 68030000 		.4byte	.Letext0-.Ltext0
 822 0021 00000000 		.4byte	.Ldebug_line0
 823 0025 02       		.uleb128 0x2
 824 0026 04       		.byte	0x4
 825 0027 04       		.byte	0x4
 826 0028 D1020000 		.4byte	.LASF0
 827 002c 03       		.uleb128 0x3
 828 002d 04       		.byte	0x4
 829 002e 05       		.byte	0x5
 830 002f 696E7400 		.ascii	"int\000"
 831 0033 04       		.uleb128 0x4
 832 0034 72040000 		.4byte	.LASF2
 833 0038 04       		.byte	0x4
 834 0039 1B       		.byte	0x1b
 835 003a 3E000000 		.4byte	0x3e
 836 003e 02       		.uleb128 0x2
 837 003f 01       		.byte	0x1
 838 0040 06       		.byte	0x6
 839 0041 5A060000 		.4byte	.LASF1
 840 0045 04       		.uleb128 0x4
 841 0046 85050000 		.4byte	.LASF3
 842 004a 04       		.byte	0x4
 843 004b 1D       		.byte	0x1d
 844 004c 50000000 		.4byte	0x50
 845 0050 02       		.uleb128 0x2
 846 0051 01       		.byte	0x1
 847 0052 08       		.byte	0x8
ARM GAS  C:\Users\eric\AppData\Local\Temp\ccZFBEId.s 			page 16


 848 0053 04060000 		.4byte	.LASF4
 849 0057 02       		.uleb128 0x2
 850 0058 02       		.byte	0x2
 851 0059 05       		.byte	0x5
 852 005a D3040000 		.4byte	.LASF5
 853 005e 04       		.uleb128 0x4
 854 005f 12030000 		.4byte	.LASF6
 855 0063 04       		.byte	0x4
 856 0064 2B       		.byte	0x2b
 857 0065 69000000 		.4byte	0x69
 858 0069 02       		.uleb128 0x2
 859 006a 02       		.byte	0x2
 860 006b 07       		.byte	0x7
 861 006c 66060000 		.4byte	.LASF7
 862 0070 04       		.uleb128 0x4
 863 0071 6E010000 		.4byte	.LASF8
 864 0075 04       		.byte	0x4
 865 0076 3F       		.byte	0x3f
 866 0077 7B000000 		.4byte	0x7b
 867 007b 02       		.uleb128 0x2
 868 007c 04       		.byte	0x4
 869 007d 05       		.byte	0x5
 870 007e 09050000 		.4byte	.LASF9
 871 0082 04       		.uleb128 0x4
 872 0083 12060000 		.4byte	.LASF10
 873 0087 04       		.byte	0x4
 874 0088 41       		.byte	0x41
 875 0089 8D000000 		.4byte	0x8d
 876 008d 02       		.uleb128 0x2
 877 008e 04       		.byte	0x4
 878 008f 07       		.byte	0x7
 879 0090 D4050000 		.4byte	.LASF11
 880 0094 02       		.uleb128 0x2
 881 0095 08       		.byte	0x8
 882 0096 05       		.byte	0x5
 883 0097 FC030000 		.4byte	.LASF12
 884 009b 02       		.uleb128 0x2
 885 009c 08       		.byte	0x8
 886 009d 07       		.byte	0x7
 887 009e F1020000 		.4byte	.LASF13
 888 00a2 02       		.uleb128 0x2
 889 00a3 04       		.byte	0x4
 890 00a4 07       		.byte	0x7
 891 00a5 54010000 		.4byte	.LASF14
 892 00a9 04       		.uleb128 0x4
 893 00aa B4020000 		.4byte	.LASF15
 894 00ae 05       		.byte	0x5
 895 00af 14       		.byte	0x14
 896 00b0 33000000 		.4byte	0x33
 897 00b4 04       		.uleb128 0x4
 898 00b5 C3030000 		.4byte	.LASF16
 899 00b9 05       		.byte	0x5
 900 00ba 18       		.byte	0x18
 901 00bb 45000000 		.4byte	0x45
 902 00bf 04       		.uleb128 0x4
 903 00c0 99040000 		.4byte	.LASF17
 904 00c4 05       		.byte	0x5
ARM GAS  C:\Users\eric\AppData\Local\Temp\ccZFBEId.s 			page 17


 905 00c5 24       		.byte	0x24
 906 00c6 5E000000 		.4byte	0x5e
 907 00ca 04       		.uleb128 0x4
 908 00cb F4050000 		.4byte	.LASF18
 909 00cf 05       		.byte	0x5
 910 00d0 2C       		.byte	0x2c
 911 00d1 70000000 		.4byte	0x70
 912 00d5 04       		.uleb128 0x4
 913 00d6 AB020000 		.4byte	.LASF19
 914 00da 05       		.byte	0x5
 915 00db 30       		.byte	0x30
 916 00dc 82000000 		.4byte	0x82
 917 00e0 02       		.uleb128 0x2
 918 00e1 08       		.byte	0x8
 919 00e2 04       		.byte	0x4
 920 00e3 8D040000 		.4byte	.LASF20
 921 00e7 05       		.uleb128 0x5
 922 00e8 32060000 		.4byte	.LASF116
 923 00ec 02       		.uleb128 0x2
 924 00ed 04       		.byte	0x4
 925 00ee 07       		.byte	0x7
 926 00ef CB050000 		.4byte	.LASF21
 927 00f3 02       		.uleb128 0x2
 928 00f4 01       		.byte	0x1
 929 00f5 08       		.byte	0x8
 930 00f6 85030000 		.4byte	.LASF22
 931 00fa 02       		.uleb128 0x2
 932 00fb 08       		.byte	0x8
 933 00fc 04       		.byte	0x4
 934 00fd 9B060000 		.4byte	.LASF23
 935 0101 06       		.uleb128 0x6
 936 0102 C5050000 		.4byte	.LASF24
 937 0106 06       		.byte	0x6
 938 0107 8D01     		.2byte	0x18d
 939 0109 CA000000 		.4byte	0xca
 940 010d 07       		.uleb128 0x7
 941 010e 04       		.byte	0x4
 942 010f 01010000 		.4byte	0x101
 943 0113 07       		.uleb128 0x7
 944 0114 04       		.byte	0x4
 945 0115 19010000 		.4byte	0x119
 946 0119 08       		.uleb128 0x8
 947 011a 01010000 		.4byte	0x101
 948 011e 07       		.uleb128 0x7
 949 011f 04       		.byte	0x4
 950 0120 CA000000 		.4byte	0xca
 951 0124 09       		.uleb128 0x9
 952 0125 01       		.byte	0x1
 953 0126 50000000 		.4byte	0x50
 954 012a 08       		.byte	0x8
 955 012b 35       		.byte	0x35
 956 012c 55010000 		.4byte	0x155
 957 0130 0A       		.uleb128 0xa
 958 0131 1D060000 		.4byte	.LASF25
 959 0135 00       		.byte	0
 960 0136 0A       		.uleb128 0xa
 961 0137 22050000 		.4byte	.LASF26
ARM GAS  C:\Users\eric\AppData\Local\Temp\ccZFBEId.s 			page 18


 962 013b 01       		.byte	0x1
 963 013c 0A       		.uleb128 0xa
 964 013d DD020000 		.4byte	.LASF27
 965 0141 02       		.byte	0x2
 966 0142 0A       		.uleb128 0xa
 967 0143 47030000 		.4byte	.LASF28
 968 0147 03       		.byte	0x3
 969 0148 0A       		.uleb128 0xa
 970 0149 7B040000 		.4byte	.LASF29
 971 014d 04       		.byte	0x4
 972 014e 0A       		.uleb128 0xa
 973 014f 30040000 		.4byte	.LASF30
 974 0153 05       		.byte	0x5
 975 0154 00       		.byte	0
 976 0155 0B       		.uleb128 0xb
 977 0156 26030000 		.4byte	.LASF47
 978 015a 10       		.byte	0x10
 979 015b 07       		.byte	0x7
 980 015c 3C       		.byte	0x3c
 981 015d 9E010000 		.4byte	0x19e
 982 0161 0C       		.uleb128 0xc
 983 0162 A2060000 		.4byte	.LASF31
 984 0166 07       		.byte	0x7
 985 0167 3E       		.byte	0x3e
 986 0168 CA000000 		.4byte	0xca
 987 016c 00       		.byte	0
 988 016d 0C       		.uleb128 0xc
 989 016e 8A010000 		.4byte	.LASF32
 990 0172 07       		.byte	0x7
 991 0173 40       		.byte	0x40
 992 0174 BF000000 		.4byte	0xbf
 993 0178 04       		.byte	0x4
 994 0179 0C       		.uleb128 0xc
 995 017a 7E030000 		.4byte	.LASF33
 996 017e 07       		.byte	0x7
 997 017f 42       		.byte	0x42
 998 0180 BF000000 		.4byte	0xbf
 999 0184 06       		.byte	0x6
 1000 0185 0C       		.uleb128 0xc
 1001 0186 26040000 		.4byte	.LASF34
 1002 018a 07       		.byte	0x7
 1003 018b 44       		.byte	0x44
 1004 018c BF000000 		.4byte	0xbf
 1005 0190 08       		.byte	0x8
 1006 0191 0C       		.uleb128 0xc
 1007 0192 7B050000 		.4byte	.LASF35
 1008 0196 07       		.byte	0x7
 1009 0197 45       		.byte	0x45
 1010 0198 9E010000 		.4byte	0x19e
 1011 019c 0A       		.byte	0xa
 1012 019d 00       		.byte	0
 1013 019e 0D       		.uleb128 0xd
 1014 019f BF000000 		.4byte	0xbf
 1015 01a3 AE010000 		.4byte	0x1ae
 1016 01a7 0E       		.uleb128 0xe
 1017 01a8 EC000000 		.4byte	0xec
 1018 01ac 02       		.byte	0x2
ARM GAS  C:\Users\eric\AppData\Local\Temp\ccZFBEId.s 			page 19


 1019 01ad 00       		.byte	0
 1020 01ae 04       		.uleb128 0x4
 1021 01af 8A060000 		.4byte	.LASF36
 1022 01b3 07       		.byte	0x7
 1023 01b4 46       		.byte	0x46
 1024 01b5 55010000 		.4byte	0x155
 1025 01b9 0F       		.uleb128 0xf
 1026 01ba 01       		.byte	0x1
 1027 01bb 50000000 		.4byte	0x50
 1028 01bf 07       		.byte	0x7
 1029 01c0 4B       		.byte	0x4b
 1030 01c1 4D050000 		.4byte	.LASF117
 1031 01c5 00020000 		.4byte	0x200
 1032 01c9 0A       		.uleb128 0xa
 1033 01ca AA010000 		.4byte	.LASF37
 1034 01ce 00       		.byte	0
 1035 01cf 0A       		.uleb128 0xa
 1036 01d0 BF010000 		.4byte	.LASF38
 1037 01d4 01       		.byte	0x1
 1038 01d5 0A       		.uleb128 0xa
 1039 01d6 D4010000 		.4byte	.LASF39
 1040 01da 02       		.byte	0x2
 1041 01db 0A       		.uleb128 0xa
 1042 01dc E9010000 		.4byte	.LASF40
 1043 01e0 03       		.byte	0x3
 1044 01e1 0A       		.uleb128 0xa
 1045 01e2 FE010000 		.4byte	.LASF41
 1046 01e6 04       		.byte	0x4
 1047 01e7 0A       		.uleb128 0xa
 1048 01e8 13020000 		.4byte	.LASF42
 1049 01ec 05       		.byte	0x5
 1050 01ed 0A       		.uleb128 0xa
 1051 01ee 36050000 		.4byte	.LASF43
 1052 01f2 06       		.byte	0x6
 1053 01f3 0A       		.uleb128 0xa
 1054 01f4 AC040000 		.4byte	.LASF44
 1055 01f8 07       		.byte	0x7
 1056 01f9 0A       		.uleb128 0xa
 1057 01fa 63020000 		.4byte	.LASF45
 1058 01fe 08       		.byte	0x8
 1059 01ff 00       		.byte	0
 1060 0200 04       		.uleb128 0x4
 1061 0201 90010000 		.4byte	.LASF46
 1062 0205 07       		.byte	0x7
 1063 0206 5D       		.byte	0x5d
 1064 0207 B9010000 		.4byte	0x1b9
 1065 020b 07       		.uleb128 0x7
 1066 020c 04       		.byte	0x4
 1067 020d 11020000 		.4byte	0x211
 1068 0211 08       		.uleb128 0x8
 1069 0212 AE010000 		.4byte	0x1ae
 1070 0216 0B       		.uleb128 0xb
 1071 0217 A4010000 		.4byte	.LASF48
 1072 021b 34       		.byte	0x34
 1073 021c 01       		.byte	0x1
 1074 021d 2B       		.byte	0x2b
 1075 021e BF020000 		.4byte	0x2bf
ARM GAS  C:\Users\eric\AppData\Local\Temp\ccZFBEId.s 			page 20


 1076 0222 0C       		.uleb128 0xc
 1077 0223 6F030000 		.4byte	.LASF49
 1078 0227 01       		.byte	0x1
 1079 0228 2C       		.byte	0x2c
 1080 0229 25000000 		.4byte	0x25
 1081 022d 00       		.byte	0
 1082 022e 10       		.uleb128 0x10
 1083 022f 6C666F00 		.ascii	"lfo\000"
 1084 0233 01       		.byte	0x1
 1085 0234 2D       		.byte	0x2d
 1086 0235 25000000 		.4byte	0x25
 1087 0239 04       		.byte	0x4
 1088 023a 0C       		.uleb128 0xc
 1089 023b 6C050000 		.4byte	.LASF50
 1090 023f 01       		.byte	0x1
 1091 0240 2D       		.byte	0x2d
 1092 0241 25000000 		.4byte	0x25
 1093 0245 08       		.byte	0x8
 1094 0246 0C       		.uleb128 0xc
 1095 0247 2D000000 		.4byte	.LASF51
 1096 024b 01       		.byte	0x1
 1097 024c 2E       		.byte	0x2e
 1098 024d B4000000 		.4byte	0xb4
 1099 0251 0C       		.byte	0xc
 1100 0252 0C       		.uleb128 0xc
 1101 0253 26000000 		.4byte	.LASF52
 1102 0257 01       		.byte	0x1
 1103 0258 2F       		.byte	0x2f
 1104 0259 CA000000 		.4byte	0xca
 1105 025d 10       		.byte	0x10
 1106 025e 0C       		.uleb128 0xc
 1107 025f 59040000 		.4byte	.LASF53
 1108 0263 01       		.byte	0x1
 1109 0264 30       		.byte	0x30
 1110 0265 25000000 		.4byte	0x25
 1111 0269 14       		.byte	0x14
 1112 026a 0C       		.uleb128 0xc
 1113 026b 1F040000 		.4byte	.LASF54
 1114 026f 01       		.byte	0x1
 1115 0270 31       		.byte	0x31
 1116 0271 CA000000 		.4byte	0xca
 1117 0275 18       		.byte	0x18
 1118 0276 0C       		.uleb128 0xc
 1119 0277 4F060000 		.4byte	.LASF55
 1120 027b 01       		.byte	0x1
 1121 027c 32       		.byte	0x32
 1122 027d 25000000 		.4byte	0x25
 1123 0281 1C       		.byte	0x1c
 1124 0282 0C       		.uleb128 0xc
 1125 0283 1C050000 		.4byte	.LASF56
 1126 0287 01       		.byte	0x1
 1127 0288 33       		.byte	0x33
 1128 0289 25000000 		.4byte	0x25
 1129 028d 20       		.byte	0x20
 1130 028e 0C       		.uleb128 0xc
 1131 028f A2040000 		.4byte	.LASF57
 1132 0293 01       		.byte	0x1
ARM GAS  C:\Users\eric\AppData\Local\Temp\ccZFBEId.s 			page 21


 1133 0294 34       		.byte	0x34
 1134 0295 A9000000 		.4byte	0xa9
 1135 0299 24       		.byte	0x24
 1136 029a 0C       		.uleb128 0xc
 1137 029b 64040000 		.4byte	.LASF58
 1138 029f 01       		.byte	0x1
 1139 02a0 35       		.byte	0x35
 1140 02a1 25000000 		.4byte	0x25
 1141 02a5 28       		.byte	0x28
 1142 02a6 0C       		.uleb128 0xc
 1143 02a7 63050000 		.4byte	.LASF59
 1144 02ab 01       		.byte	0x1
 1145 02ac 36       		.byte	0x36
 1146 02ad 25000000 		.4byte	0x25
 1147 02b1 2C       		.byte	0x2c
 1148 02b2 0C       		.uleb128 0xc
 1149 02b3 12050000 		.4byte	.LASF60
 1150 02b7 01       		.byte	0x1
 1151 02b8 37       		.byte	0x37
 1152 02b9 25000000 		.4byte	0x25
 1153 02bd 30       		.byte	0x30
 1154 02be 00       		.byte	0
 1155 02bf 04       		.uleb128 0x4
 1156 02c0 A4010000 		.4byte	.LASF48
 1157 02c4 01       		.byte	0x1
 1158 02c5 38       		.byte	0x38
 1159 02c6 16020000 		.4byte	0x216
 1160 02ca 0B       		.uleb128 0xb
 1161 02cb 75030000 		.4byte	.LASF61
 1162 02cf 08       		.byte	0x8
 1163 02d0 01       		.byte	0x1
 1164 02d1 3C       		.byte	0x3c
 1165 02d2 EE020000 		.4byte	0x2ee
 1166 02d6 0C       		.uleb128 0xc
 1167 02d7 20000000 		.4byte	.LASF62
 1168 02db 01       		.byte	0x1
 1169 02dc 3D       		.byte	0x3d
 1170 02dd 25000000 		.4byte	0x25
 1171 02e1 00       		.byte	0
 1172 02e2 10       		.uleb128 0x10
 1173 02e3 773000   		.ascii	"w0\000"
 1174 02e6 01       		.byte	0x1
 1175 02e7 3E       		.byte	0x3e
 1176 02e8 25000000 		.4byte	0x25
 1177 02ec 04       		.byte	0x4
 1178 02ed 00       		.byte	0
 1179 02ee 09       		.uleb128 0x9
 1180 02ef 01       		.byte	0x1
 1181 02f0 50000000 		.4byte	0x50
 1182 02f4 01       		.byte	0x1
 1183 02f5 44       		.byte	0x44
 1184 02f6 07030000 		.4byte	0x307
 1185 02fa 0A       		.uleb128 0xa
 1186 02fb 96030000 		.4byte	.LASF63
 1187 02ff 00       		.byte	0
 1188 0300 0A       		.uleb128 0xa
 1189 0301 0A040000 		.4byte	.LASF64
ARM GAS  C:\Users\eric\AppData\Local\Temp\ccZFBEId.s 			page 22


 1190 0305 01       		.byte	0x1
 1191 0306 00       		.byte	0
 1192 0307 11       		.uleb128 0x11
 1193 0308 A1050000 		.4byte	.LASF65
 1194 030c 03       		.byte	0x3
 1195 030d C0       		.byte	0xc0
 1196 030e 25000000 		.4byte	0x25
 1197 0312 03       		.byte	0x3
 1198 0313 33030000 		.4byte	0x333
 1199 0317 12       		.uleb128 0x12
 1200 0318 6100     		.ascii	"a\000"
 1201 031a 03       		.byte	0x3
 1202 031b C0       		.byte	0xc0
 1203 031c 33030000 		.4byte	0x333
 1204 0320 12       		.uleb128 0x12
 1205 0321 6200     		.ascii	"b\000"
 1206 0323 03       		.byte	0x3
 1207 0324 C0       		.byte	0xc0
 1208 0325 33030000 		.4byte	0x333
 1209 0329 12       		.uleb128 0x12
 1210 032a 6300     		.ascii	"c\000"
 1211 032c 03       		.byte	0x3
 1212 032d C0       		.byte	0xc0
 1213 032e 33030000 		.4byte	0x333
 1214 0332 00       		.byte	0
 1215 0333 08       		.uleb128 0x8
 1216 0334 25000000 		.4byte	0x25
 1217 0338 13       		.uleb128 0x13
 1218 0339 C0060000 		.4byte	.LASF66
 1219 033d 03       		.byte	0x3
 1220 033e 4901     		.2byte	0x149
 1221 0340 25000000 		.4byte	0x25
 1222 0344 03       		.byte	0x3
 1223 0345 60030000 		.4byte	0x360
 1224 0349 14       		.uleb128 0x14
 1225 034a 7800     		.ascii	"x\000"
 1226 034c 03       		.byte	0x3
 1227 034d 4901     		.2byte	0x149
 1228 034f 33030000 		.4byte	0x333
 1229 0353 14       		.uleb128 0x14
 1230 0354 6D617800 		.ascii	"max\000"
 1231 0358 03       		.byte	0x3
 1232 0359 4901     		.2byte	0x149
 1233 035b 33030000 		.4byte	0x333
 1234 035f 00       		.byte	0
 1235 0360 13       		.uleb128 0x13
 1236 0361 A1020000 		.4byte	.LASF67
 1237 0365 03       		.byte	0x3
 1238 0366 3C01     		.2byte	0x13c
 1239 0368 25000000 		.4byte	0x25
 1240 036c 03       		.byte	0x3
 1241 036d 94030000 		.4byte	0x394
 1242 0371 14       		.uleb128 0x14
 1243 0372 6D696E00 		.ascii	"min\000"
 1244 0376 03       		.byte	0x3
 1245 0377 3C01     		.2byte	0x13c
 1246 0379 33030000 		.4byte	0x333
ARM GAS  C:\Users\eric\AppData\Local\Temp\ccZFBEId.s 			page 23


 1247 037d 14       		.uleb128 0x14
 1248 037e 7800     		.ascii	"x\000"
 1249 0380 03       		.byte	0x3
 1250 0381 3C01     		.2byte	0x13c
 1251 0383 25000000 		.4byte	0x25
 1252 0387 14       		.uleb128 0x14
 1253 0388 6D617800 		.ascii	"max\000"
 1254 038c 03       		.byte	0x3
 1255 038d 3C01     		.2byte	0x13c
 1256 038f 33030000 		.4byte	0x333
 1257 0393 00       		.byte	0
 1258 0394 11       		.uleb128 0x11
 1259 0395 43040000 		.4byte	.LASF68
 1260 0399 09       		.byte	0x9
 1261 039a 54       		.byte	0x54
 1262 039b D5000000 		.4byte	0xd5
 1263 039f 03       		.byte	0x3
 1264 03a0 B7030000 		.4byte	0x3b7
 1265 03a4 12       		.uleb128 0x12
 1266 03a5 7800     		.ascii	"x\000"
 1267 03a7 09       		.byte	0x9
 1268 03a8 54       		.byte	0x54
 1269 03a9 B7030000 		.4byte	0x3b7
 1270 03ad 12       		.uleb128 0x12
 1271 03ae 6D00     		.ascii	"m\000"
 1272 03b0 09       		.byte	0x9
 1273 03b1 54       		.byte	0x54
 1274 03b2 B7030000 		.4byte	0x3b7
 1275 03b6 00       		.byte	0
 1276 03b7 08       		.uleb128 0x8
 1277 03b8 D5000000 		.4byte	0xd5
 1278 03bc 13       		.uleb128 0x13
 1279 03bd F3030000 		.4byte	.LASF69
 1280 03c1 03       		.byte	0x3
 1281 03c2 8501     		.2byte	0x185
 1282 03c4 25000000 		.4byte	0x25
 1283 03c8 03       		.byte	0x3
 1284 03c9 E2030000 		.4byte	0x3e2
 1285 03cd 14       		.uleb128 0x14
 1286 03ce 7800     		.ascii	"x\000"
 1287 03d0 03       		.byte	0x3
 1288 03d1 8501     		.2byte	0x185
 1289 03d3 33030000 		.4byte	0x333
 1290 03d7 14       		.uleb128 0x14
 1291 03d8 6D00     		.ascii	"m\000"
 1292 03da 03       		.byte	0x3
 1293 03db 8501     		.2byte	0x185
 1294 03dd 33030000 		.4byte	0x333
 1295 03e1 00       		.byte	0
 1296 03e2 13       		.uleb128 0x13
 1297 03e3 FC050000 		.4byte	.LASF70
 1298 03e7 03       		.byte	0x3
 1299 03e8 3803     		.2byte	0x338
 1300 03ea 25000000 		.4byte	0x25
 1301 03ee 03       		.byte	0x3
 1302 03ef 15040000 		.4byte	0x415
 1303 03f3 14       		.uleb128 0x14
ARM GAS  C:\Users\eric\AppData\Local\Temp\ccZFBEId.s 			page 24


 1304 03f4 667200   		.ascii	"fr\000"
 1305 03f7 03       		.byte	0x3
 1306 03f8 3803     		.2byte	0x338
 1307 03fa 33030000 		.4byte	0x333
 1308 03fe 14       		.uleb128 0x14
 1309 03ff 783000   		.ascii	"x0\000"
 1310 0402 03       		.byte	0x3
 1311 0403 3803     		.2byte	0x338
 1312 0405 33030000 		.4byte	0x333
 1313 0409 14       		.uleb128 0x14
 1314 040a 783100   		.ascii	"x1\000"
 1315 040d 03       		.byte	0x3
 1316 040e 3803     		.2byte	0x338
 1317 0410 33030000 		.4byte	0x333
 1318 0414 00       		.byte	0
 1319 0415 11       		.uleb128 0x11
 1320 0416 CB030000 		.4byte	.LASF71
 1321 041a 02       		.byte	0x2
 1322 041b 72       		.byte	0x72
 1323 041c 25000000 		.4byte	0x25
 1324 0420 03       		.byte	0x3
 1325 0421 31040000 		.4byte	0x431
 1326 0425 15       		.uleb128 0x15
 1327 0426 B3050000 		.4byte	.LASF72
 1328 042a 02       		.byte	0x2
 1329 042b 72       		.byte	0x72
 1330 042c B4000000 		.4byte	0xb4
 1331 0430 00       		.byte	0
 1332 0431 13       		.uleb128 0x13
 1333 0432 B7060000 		.4byte	.LASF73
 1334 0436 03       		.byte	0x3
 1335 0437 AF01     		.2byte	0x1af
 1336 0439 25000000 		.4byte	0x25
 1337 043d 03       		.byte	0x3
 1338 043e 4D040000 		.4byte	0x44d
 1339 0442 14       		.uleb128 0x14
 1340 0443 7800     		.ascii	"x\000"
 1341 0445 03       		.byte	0x3
 1342 0446 AF01     		.2byte	0x1af
 1343 0448 33030000 		.4byte	0x333
 1344 044c 00       		.byte	0
 1345 044d 11       		.uleb128 0x11
 1346 044e 79060000 		.4byte	.LASF74
 1347 0452 02       		.byte	0x2
 1348 0453 7C       		.byte	0x7c
 1349 0454 25000000 		.4byte	0x25
 1350 0458 03       		.byte	0x3
 1351 0459 91040000 		.4byte	0x491
 1352 045d 15       		.uleb128 0x15
 1353 045e B3050000 		.4byte	.LASF72
 1354 0462 02       		.byte	0x2
 1355 0463 7C       		.byte	0x7c
 1356 0464 B4000000 		.4byte	0xb4
 1357 0468 12       		.uleb128 0x12
 1358 0469 6D6F6400 		.ascii	"mod\000"
 1359 046d 02       		.byte	0x2
 1360 046e 7C       		.byte	0x7c
ARM GAS  C:\Users\eric\AppData\Local\Temp\ccZFBEId.s 			page 25


 1361 046f B4000000 		.4byte	0xb4
 1362 0473 16       		.uleb128 0x16
 1363 0474 663000   		.ascii	"f0\000"
 1364 0477 02       		.byte	0x2
 1365 0478 7D       		.byte	0x7d
 1366 0479 33030000 		.4byte	0x333
 1367 047d 16       		.uleb128 0x16
 1368 047e 663100   		.ascii	"f1\000"
 1369 0481 02       		.byte	0x2
 1370 0482 7E       		.byte	0x7e
 1371 0483 33030000 		.4byte	0x333
 1372 0487 16       		.uleb128 0x16
 1373 0488 6600     		.ascii	"f\000"
 1374 048a 02       		.byte	0x2
 1375 048b 80       		.byte	0x80
 1376 048c 33030000 		.4byte	0x333
 1377 0490 00       		.byte	0
 1378 0491 11       		.uleb128 0x11
 1379 0492 3B030000 		.4byte	.LASF75
 1380 0496 01       		.byte	0x1
 1381 0497 55       		.byte	0x55
 1382 0498 BF000000 		.4byte	0xbf
 1383 049c 03       		.byte	0x3
 1384 049d E4040000 		.4byte	0x4e4
 1385 04a1 15       		.uleb128 0x15
 1386 04a2 8A010000 		.4byte	.LASF32
 1387 04a6 01       		.byte	0x1
 1388 04a7 55       		.byte	0x55
 1389 04a8 B4000000 		.4byte	0xb4
 1390 04ac 12       		.uleb128 0x12
 1391 04ad 6D6F6400 		.ascii	"mod\000"
 1392 04b1 01       		.byte	0x1
 1393 04b2 55       		.byte	0x55
 1394 04b3 B4000000 		.4byte	0xb4
 1395 04b7 15       		.uleb128 0x15
 1396 04b8 4E040000 		.4byte	.LASF76
 1397 04bc 01       		.byte	0x1
 1398 04bd 55       		.byte	0x55
 1399 04be CA000000 		.4byte	0xca
 1400 04c2 16       		.uleb128 0x16
 1401 04c3 72657300 		.ascii	"res\000"
 1402 04c7 01       		.byte	0x1
 1403 04c8 58       		.byte	0x58
 1404 04c9 BF000000 		.4byte	0xbf
 1405 04cd 17       		.uleb128 0x17
 1406 04ce 5B030000 		.4byte	.LASF77
 1407 04d2 01       		.byte	0x1
 1408 04d3 5B       		.byte	0x5b
 1409 04d4 CA000000 		.4byte	0xca
 1410 04d8 17       		.uleb128 0x17
 1411 04d9 8A030000 		.4byte	.LASF78
 1412 04dd 01       		.byte	0x1
 1413 04de 5C       		.byte	0x5c
 1414 04df CA000000 		.4byte	0xca
 1415 04e3 00       		.byte	0
 1416 04e4 18       		.uleb128 0x18
 1417 04e5 08030000 		.4byte	.LASF118
ARM GAS  C:\Users\eric\AppData\Local\Temp\ccZFBEId.s 			page 26


 1418 04e9 02       		.byte	0x2
 1419 04ea 0B03     		.2byte	0x30b
 1420 04ec 25000000 		.4byte	0x25
 1421 04f0 03       		.byte	0x3
 1422 04f1 11       		.uleb128 0x11
 1423 04f2 EA030000 		.4byte	.LASF79
 1424 04f6 01       		.byte	0x1
 1425 04f7 6A       		.byte	0x6a
 1426 04f8 25000000 		.4byte	0x25
 1427 04fc 03       		.byte	0x3
 1428 04fd 23050000 		.4byte	0x523
 1429 0501 15       		.uleb128 0x15
 1430 0502 20000000 		.4byte	.LASF62
 1431 0506 01       		.byte	0x1
 1432 0507 6A       		.byte	0x6a
 1433 0508 25000000 		.4byte	0x25
 1434 050c 16       		.uleb128 0x16
 1435 050d 73617700 		.ascii	"saw\000"
 1436 0511 01       		.byte	0x1
 1437 0512 6B       		.byte	0x6b
 1438 0513 25000000 		.4byte	0x25
 1439 0517 16       		.uleb128 0x16
 1440 0518 73717200 		.ascii	"sqr\000"
 1441 051c 01       		.byte	0x1
 1442 051d 6C       		.byte	0x6c
 1443 051e 25000000 		.4byte	0x25
 1444 0522 00       		.byte	0
 1445 0523 13       		.uleb128 0x13
 1446 0524 93020000 		.4byte	.LASF80
 1447 0528 02       		.byte	0x2
 1448 0529 9F02     		.2byte	0x29f
 1449 052b 25000000 		.4byte	0x25
 1450 052f 03       		.byte	0x3
 1451 0530 49050000 		.4byte	0x549
 1452 0534 14       		.uleb128 0x14
 1453 0535 6300     		.ascii	"c\000"
 1454 0537 02       		.byte	0x2
 1455 0538 9F02     		.2byte	0x29f
 1456 053a 33030000 		.4byte	0x333
 1457 053e 14       		.uleb128 0x14
 1458 053f 7800     		.ascii	"x\000"
 1459 0541 02       		.byte	0x2
 1460 0542 9F02     		.2byte	0x29f
 1461 0544 25000000 		.4byte	0x25
 1462 0548 00       		.byte	0
 1463 0549 11       		.uleb128 0x11
 1464 054a D7030000 		.4byte	.LASF81
 1465 054e 01       		.byte	0x1
 1466 054f 70       		.byte	0x70
 1467 0550 25000000 		.4byte	0x25
 1468 0554 03       		.byte	0x3
 1469 0555 65050000 		.4byte	0x565
 1470 0559 12       		.uleb128 0x12
 1471 055a 73696700 		.ascii	"sig\000"
 1472 055e 01       		.byte	0x1
 1473 055f 70       		.byte	0x70
 1474 0560 25000000 		.4byte	0x25
ARM GAS  C:\Users\eric\AppData\Local\Temp\ccZFBEId.s 			page 27


 1475 0564 00       		.byte	0
 1476 0565 19       		.uleb128 0x19
 1477 0566 C8040000 		.4byte	.LASF83
 1478 056a 01       		.byte	0x1
 1479 056b 49       		.byte	0x49
 1480 056c 00000000 		.4byte	.LFB239
 1481 0570 2C000000 		.4byte	.LFE239-.LFB239
 1482 0574 01       		.uleb128 0x1
 1483 0575 9C       		.byte	0x9c
 1484 0576 97050000 		.4byte	0x597
 1485 057a 1A       		.uleb128 0x1a
 1486 057b 78010000 		.4byte	.LASF82
 1487 057f 01       		.byte	0x1
 1488 0580 49       		.byte	0x49
 1489 0581 D5000000 		.4byte	0xd5
 1490 0585 01       		.uleb128 0x1
 1491 0586 50       		.byte	0x50
 1492 0587 1B       		.uleb128 0x1b
 1493 0588 61706900 		.ascii	"api\000"
 1494 058c 01       		.byte	0x1
 1495 058d 49       		.byte	0x49
 1496 058e D5000000 		.4byte	0xd5
 1497 0592 00000000 		.4byte	.LLST0
 1498 0596 00       		.byte	0
 1499 0597 19       		.uleb128 0x19
 1500 0598 7B020000 		.4byte	.LASF84
 1501 059c 01       		.byte	0x1
 1502 059d 79       		.byte	0x79
 1503 059e 2C000000 		.4byte	.LFB243
 1504 05a2 90020000 		.4byte	.LFE243-.LFB243
 1505 05a6 01       		.uleb128 0x1
 1506 05a7 9C       		.byte	0x9c
 1507 05a8 3F090000 		.4byte	0x93f
 1508 05ac 1C       		.uleb128 0x1c
 1509 05ad 00000000 		.4byte	.LASF85
 1510 05b1 01       		.byte	0x1
 1511 05b2 79       		.byte	0x79
 1512 05b3 3F090000 		.4byte	0x93f
 1513 05b7 21000000 		.4byte	.LLST1
 1514 05bb 1B       		.uleb128 0x1b
 1515 05bc 796E00   		.ascii	"yn\000"
 1516 05bf 01       		.byte	0x1
 1517 05c0 7A       		.byte	0x7a
 1518 05c1 1E010000 		.4byte	0x11e
 1519 05c5 42000000 		.4byte	.LLST2
 1520 05c9 1C       		.uleb128 0x1c
 1521 05ca AD030000 		.4byte	.LASF86
 1522 05ce 01       		.byte	0x1
 1523 05cf 7B       		.byte	0x7b
 1524 05d0 B7030000 		.4byte	0x3b7
 1525 05d4 6E000000 		.4byte	.LLST3
 1526 05d8 1D       		.uleb128 0x1d
 1527 05d9 2D000000 		.4byte	.LASF51
 1528 05dd 01       		.byte	0x1
 1529 05de 7D       		.byte	0x7d
 1530 05df 44090000 		.4byte	0x944
 1531 05e3 8F000000 		.4byte	.LLST4
ARM GAS  C:\Users\eric\AppData\Local\Temp\ccZFBEId.s 			page 28


 1532 05e7 1E       		.uleb128 0x1e
 1533 05e8 6F030000 		.4byte	.LASF49
 1534 05ec 01       		.byte	0x1
 1535 05ed 80       		.byte	0x80
 1536 05ee 33030000 		.4byte	0x333
 1537 05f2 02       		.uleb128 0x2
 1538 05f3 90       		.byte	0x90
 1539 05f4 51       		.uleb128 0x51
 1540 05f5 16       		.uleb128 0x16
 1541 05f6 6C666F00 		.ascii	"lfo\000"
 1542 05fa 01       		.byte	0x1
 1543 05fb 82       		.byte	0x82
 1544 05fc 33030000 		.4byte	0x333
 1545 0600 1D       		.uleb128 0x1d
 1546 0601 6C050000 		.4byte	.LASF50
 1547 0605 01       		.byte	0x1
 1548 0606 83       		.byte	0x83
 1549 0607 25000000 		.4byte	0x25
 1550 060b B1000000 		.4byte	.LLST5
 1551 060f 1D       		.uleb128 0x1d
 1552 0610 17040000 		.4byte	.LASF87
 1553 0614 01       		.byte	0x1
 1554 0615 84       		.byte	0x84
 1555 0616 33030000 		.4byte	0x333
 1556 061a D4000000 		.4byte	.LLST6
 1557 061e 1F       		.uleb128 0x1f
 1558 061f 7900     		.ascii	"y\000"
 1559 0621 01       		.byte	0x1
 1560 0622 86       		.byte	0x86
 1561 0623 0D010000 		.4byte	0x10d
 1562 0627 E8000000 		.4byte	.LLST7
 1563 062b 1F       		.uleb128 0x1f
 1564 062c 795F6500 		.ascii	"y_e\000"
 1565 0630 01       		.byte	0x1
 1566 0631 87       		.byte	0x87
 1567 0632 13010000 		.4byte	0x113
 1568 0636 13010000 		.4byte	.LLST8
 1569 063a 1D       		.uleb128 0x1d
 1570 063b 26000000 		.4byte	.LASF52
 1571 063f 01       		.byte	0x1
 1572 0640 89       		.byte	0x89
 1573 0641 B4000000 		.4byte	0xb4
 1574 0645 3A010000 		.4byte	.LLST9
 1575 0649 1D       		.uleb128 0x1d
 1576 064a 1F040000 		.4byte	.LASF54
 1577 064e 01       		.byte	0x1
 1578 064f 8A       		.byte	0x8a
 1579 0650 B4000000 		.4byte	0xb4
 1580 0654 4D010000 		.4byte	.LLST10
 1581 0658 1D       		.uleb128 0x1d
 1582 0659 8A010000 		.4byte	.LASF32
 1583 065d 01       		.byte	0x1
 1584 065e 8D       		.byte	0x8d
 1585 065f B4000000 		.4byte	0xb4
 1586 0663 60010000 		.4byte	.LLST11
 1587 0667 1F       		.uleb128 0x1f
 1588 0668 6D6F6400 		.ascii	"mod\000"
ARM GAS  C:\Users\eric\AppData\Local\Temp\ccZFBEId.s 			page 29


 1589 066c 01       		.byte	0x1
 1590 066d 8E       		.byte	0x8e
 1591 066e B4000000 		.4byte	0xb4
 1592 0672 73010000 		.4byte	.LLST12
 1593 0676 1F       		.uleb128 0x1f
 1594 0677 6900     		.ascii	"i\000"
 1595 0679 01       		.byte	0x1
 1596 067a 8F       		.byte	0x8f
 1597 067b 2C000000 		.4byte	0x2c
 1598 067f 86010000 		.4byte	.LLST13
 1599 0683 20       		.uleb128 0x20
 1600 0684 00000000 		.4byte	.Ldebug_ranges0+0
 1601 0688 07080000 		.4byte	0x807
 1602 068c 1D       		.uleb128 0x1d
 1603 068d 67030000 		.4byte	.LASF88
 1604 0691 01       		.byte	0x1
 1605 0692 91       		.byte	0x91
 1606 0693 CA000000 		.4byte	0xca
 1607 0697 A5010000 		.4byte	.LLST14
 1608 069b 1E       		.uleb128 0x1e
 1609 069c 44060000 		.4byte	.LASF89
 1610 06a0 01       		.byte	0x1
 1611 06a1 92       		.byte	0x92
 1612 06a2 BF000000 		.4byte	0xbf
 1613 06a6 01       		.uleb128 0x1
 1614 06a7 53       		.byte	0x53
 1615 06a8 21       		.uleb128 0x21
 1616 06a9 4D040000 		.4byte	0x44d
 1617 06ad 3E000000 		.4byte	.LBB86
 1618 06b1 20000000 		.4byte	.Ldebug_ranges0+0x20
 1619 06b5 01       		.byte	0x1
 1620 06b6 93       		.byte	0x93
 1621 06b7 9D070000 		.4byte	0x79d
 1622 06bb 22       		.uleb128 0x22
 1623 06bc 68040000 		.4byte	0x468
 1624 06c0 FB010000 		.4byte	.LLST15
 1625 06c4 23       		.uleb128 0x23
 1626 06c5 5D040000 		.4byte	0x45d
 1627 06c9 24       		.uleb128 0x24
 1628 06ca 20000000 		.4byte	.Ldebug_ranges0+0x20
 1629 06ce 25       		.uleb128 0x25
 1630 06cf 73040000 		.4byte	0x473
 1631 06d3 25       		.uleb128 0x25
 1632 06d4 7D040000 		.4byte	0x47d
 1633 06d8 25       		.uleb128 0x25
 1634 06d9 87040000 		.4byte	0x487
 1635 06dd 21       		.uleb128 0x21
 1636 06de 15040000 		.4byte	0x415
 1637 06e2 3E000000 		.4byte	.LBB88
 1638 06e6 58000000 		.4byte	.Ldebug_ranges0+0x58
 1639 06ea 02       		.byte	0x2
 1640 06eb 7D       		.byte	0x7d
 1641 06ec F6060000 		.4byte	0x6f6
 1642 06f0 23       		.uleb128 0x23
 1643 06f1 25040000 		.4byte	0x425
 1644 06f5 00       		.byte	0
 1645 06f6 21       		.uleb128 0x21
ARM GAS  C:\Users\eric\AppData\Local\Temp\ccZFBEId.s 			page 30


 1646 06f7 E2030000 		.4byte	0x3e2
 1647 06fb 92000000 		.4byte	.LBB94
 1648 06ff 88000000 		.4byte	.Ldebug_ranges0+0x88
 1649 0703 02       		.byte	0x2
 1650 0704 80       		.byte	0x80
 1651 0705 1D070000 		.4byte	0x71d
 1652 0709 23       		.uleb128 0x23
 1653 070a 09040000 		.4byte	0x409
 1654 070e 23       		.uleb128 0x23
 1655 070f FE030000 		.4byte	0x3fe
 1656 0713 22       		.uleb128 0x22
 1657 0714 F3030000 		.4byte	0x3f3
 1658 0718 1E030000 		.4byte	.LLST16
 1659 071c 00       		.byte	0
 1660 071d 21       		.uleb128 0x21
 1661 071e 15040000 		.4byte	0x415
 1662 0722 EA000000 		.4byte	.LBB100
 1663 0726 A8000000 		.4byte	.Ldebug_ranges0+0xa8
 1664 072a 02       		.byte	0x2
 1665 072b 7E       		.byte	0x7e
 1666 072c 36070000 		.4byte	0x736
 1667 0730 23       		.uleb128 0x23
 1668 0731 25040000 		.4byte	0x425
 1669 0735 00       		.byte	0
 1670 0736 26       		.uleb128 0x26
 1671 0737 BC030000 		.4byte	0x3bc
 1672 073b 1A010000 		.4byte	.LBB110
 1673 073f 12000000 		.4byte	.LBE110-.LBB110
 1674 0743 02       		.byte	0x2
 1675 0744 80       		.byte	0x80
 1676 0745 22       		.uleb128 0x22
 1677 0746 D7030000 		.4byte	0x3d7
 1678 074a 72040000 		.4byte	.LLST17
 1679 074e 23       		.uleb128 0x23
 1680 074f CD030000 		.4byte	0x3cd
 1681 0753 27       		.uleb128 0x27
 1682 0754 38030000 		.4byte	0x338
 1683 0758 1A010000 		.4byte	.LBB111
 1684 075c 12000000 		.4byte	.LBE111-.LBB111
 1685 0760 03       		.byte	0x3
 1686 0761 8601     		.2byte	0x186
 1687 0763 22       		.uleb128 0x22
 1688 0764 53030000 		.4byte	0x353
 1689 0768 72040000 		.4byte	.LLST17
 1690 076c 23       		.uleb128 0x23
 1691 076d 49030000 		.4byte	0x349
 1692 0771 27       		.uleb128 0x27
 1693 0772 07030000 		.4byte	0x307
 1694 0776 1A010000 		.4byte	.LBB112
 1695 077a 12000000 		.4byte	.LBE112-.LBB112
 1696 077e 03       		.byte	0x3
 1697 077f 4B01     		.2byte	0x14b
 1698 0781 23       		.uleb128 0x23
 1699 0782 29030000 		.4byte	0x329
 1700 0786 22       		.uleb128 0x22
 1701 0787 20030000 		.4byte	0x320
 1702 078b 72040000 		.4byte	.LLST17
ARM GAS  C:\Users\eric\AppData\Local\Temp\ccZFBEId.s 			page 31


 1703 078f 22       		.uleb128 0x22
 1704 0790 17030000 		.4byte	0x317
 1705 0794 8A040000 		.4byte	.LLST20
 1706 0798 00       		.byte	0
 1707 0799 00       		.byte	0
 1708 079a 00       		.byte	0
 1709 079b 00       		.byte	0
 1710 079c 00       		.byte	0
 1711 079d 28       		.uleb128 0x28
 1712 079e 91040000 		.4byte	0x491
 1713 07a2 9E000000 		.4byte	.LBB120
 1714 07a6 30000000 		.4byte	.LBE120-.LBB120
 1715 07aa 01       		.byte	0x1
 1716 07ab 92       		.byte	0x92
 1717 07ac ED070000 		.4byte	0x7ed
 1718 07b0 22       		.uleb128 0x22
 1719 07b1 B7040000 		.4byte	0x4b7
 1720 07b5 A8040000 		.4byte	.LLST21
 1721 07b9 22       		.uleb128 0x22
 1722 07ba AC040000 		.4byte	0x4ac
 1723 07be E3040000 		.4byte	.LLST22
 1724 07c2 23       		.uleb128 0x23
 1725 07c3 A1040000 		.4byte	0x4a1
 1726 07c7 29       		.uleb128 0x29
 1727 07c8 9E000000 		.4byte	.LBB121
 1728 07cc 30000000 		.4byte	.LBE121-.LBB121
 1729 07d0 2A       		.uleb128 0x2a
 1730 07d1 C2040000 		.4byte	0x4c2
 1731 07d5 01050000 		.4byte	.LLST23
 1732 07d9 2A       		.uleb128 0x2a
 1733 07da CD040000 		.4byte	0x4cd
 1734 07de 27050000 		.4byte	.LLST24
 1735 07e2 2A       		.uleb128 0x2a
 1736 07e3 D8040000 		.4byte	0x4d8
 1737 07e7 3A050000 		.4byte	.LLST25
 1738 07eb 00       		.byte	0
 1739 07ec 00       		.byte	0
 1740 07ed 26       		.uleb128 0x26
 1741 07ee E4040000 		.4byte	0x4e4
 1742 07f2 46010000 		.4byte	.LBB126
 1743 07f6 04000000 		.4byte	.LBE126-.LBB126
 1744 07fa 01       		.byte	0x1
 1745 07fb 95       		.byte	0x95
 1746 07fc 2B       		.uleb128 0x2b
 1747 07fd 4A010000 		.4byte	.LVL26
 1748 0801 230B0000 		.4byte	0xb23
 1749 0805 00       		.byte	0
 1750 0806 00       		.byte	0
 1751 0807 24       		.uleb128 0x24
 1752 0808 C8000000 		.4byte	.Ldebug_ranges0+0xc8
 1753 080c 1D       		.uleb128 0x1d
 1754 080d 33000000 		.4byte	.LASF90
 1755 0811 01       		.byte	0x1
 1756 0812 9B       		.byte	0x9b
 1757 0813 25000000 		.4byte	0x25
 1758 0817 5D050000 		.4byte	.LLST26
 1759 081b 16       		.uleb128 0x16
ARM GAS  C:\Users\eric\AppData\Local\Temp\ccZFBEId.s 			page 32


 1760 081c 73696700 		.ascii	"sig\000"
 1761 0820 01       		.byte	0x1
 1762 0821 A6       		.byte	0xa6
 1763 0822 33030000 		.4byte	0x333
 1764 0826 20       		.uleb128 0x20
 1765 0827 E0000000 		.4byte	.Ldebug_ranges0+0xe0
 1766 082b 6F080000 		.4byte	0x86f
 1767 082f 1D       		.uleb128 0x1d
 1768 0830 20000000 		.4byte	.LASF62
 1769 0834 01       		.byte	0x1
 1770 0835 9D       		.byte	0x9d
 1771 0836 25000000 		.4byte	0x25
 1772 083a 89050000 		.4byte	.LLST27
 1773 083e 2C       		.uleb128 0x2c
 1774 083f F1040000 		.4byte	0x4f1
 1775 0843 7A010000 		.4byte	.LBB136
 1776 0847 F8000000 		.4byte	.Ldebug_ranges0+0xf8
 1777 084b 01       		.byte	0x1
 1778 084c 9E       		.byte	0x9e
 1779 084d 22       		.uleb128 0x22
 1780 084e 01050000 		.4byte	0x501
 1781 0852 BB050000 		.4byte	.LLST28
 1782 0856 24       		.uleb128 0x24
 1783 0857 F8000000 		.4byte	.Ldebug_ranges0+0xf8
 1784 085b 2A       		.uleb128 0x2a
 1785 085c 0C050000 		.4byte	0x50c
 1786 0860 CF050000 		.4byte	.LLST29
 1787 0864 2D       		.uleb128 0x2d
 1788 0865 17050000 		.4byte	0x517
 1789 0869 02       		.uleb128 0x2
 1790 086a 90       		.byte	0x90
 1791 086b 4E       		.uleb128 0x4e
 1792 086c 00       		.byte	0
 1793 086d 00       		.byte	0
 1794 086e 00       		.byte	0
 1795 086f 28       		.uleb128 0x28
 1796 0870 E4040000 		.4byte	0x4e4
 1797 0874 EA010000 		.4byte	.LBB143
 1798 0878 04000000 		.4byte	.LBE143-.LBB143
 1799 087c 01       		.byte	0x1
 1800 087d A4       		.byte	0xa4
 1801 087e 8C080000 		.4byte	0x88c
 1802 0882 2B       		.uleb128 0x2b
 1803 0883 EE010000 		.4byte	.LVL41
 1804 0887 230B0000 		.4byte	0xb23
 1805 088b 00       		.byte	0
 1806 088c 21       		.uleb128 0x21
 1807 088d 49050000 		.4byte	0x549
 1808 0891 F2010000 		.4byte	.LBB145
 1809 0895 18010000 		.4byte	.Ldebug_ranges0+0x118
 1810 0899 01       		.byte	0x1
 1811 089a A5       		.byte	0xa5
 1812 089b A9080000 		.4byte	0x8a9
 1813 089f 22       		.uleb128 0x22
 1814 08a0 59050000 		.4byte	0x559
 1815 08a4 E3050000 		.4byte	.LLST30
 1816 08a8 00       		.byte	0
ARM GAS  C:\Users\eric\AppData\Local\Temp\ccZFBEId.s 			page 33


 1817 08a9 2C       		.uleb128 0x2c
 1818 08aa 23050000 		.4byte	0x523
 1819 08ae 44020000 		.4byte	.LBB149
 1820 08b2 30010000 		.4byte	.Ldebug_ranges0+0x130
 1821 08b6 01       		.byte	0x1
 1822 08b7 A6       		.byte	0xa6
 1823 08b8 22       		.uleb128 0x22
 1824 08b9 3E050000 		.4byte	0x53e
 1825 08bd F7050000 		.4byte	.LLST31
 1826 08c1 22       		.uleb128 0x22
 1827 08c2 34050000 		.4byte	0x534
 1828 08c6 17060000 		.4byte	.LLST32
 1829 08ca 2E       		.uleb128 0x2e
 1830 08cb 31040000 		.4byte	0x431
 1831 08cf 44020000 		.4byte	.LBB151
 1832 08d3 48010000 		.4byte	.Ldebug_ranges0+0x148
 1833 08d7 02       		.byte	0x2
 1834 08d8 A102     		.2byte	0x2a1
 1835 08da 22       		.uleb128 0x22
 1836 08db 42040000 		.4byte	0x442
 1837 08df F7050000 		.4byte	.LLST31
 1838 08e3 2E       		.uleb128 0x2e
 1839 08e4 60030000 		.4byte	0x360
 1840 08e8 44020000 		.4byte	.LBB152
 1841 08ec 60010000 		.4byte	.Ldebug_ranges0+0x160
 1842 08f0 03       		.byte	0x3
 1843 08f1 B001     		.2byte	0x1b0
 1844 08f3 22       		.uleb128 0x22
 1845 08f4 87030000 		.4byte	0x387
 1846 08f8 2F060000 		.4byte	.LLST34
 1847 08fc 22       		.uleb128 0x22
 1848 08fd 7D030000 		.4byte	0x37d
 1849 0901 47060000 		.4byte	.LLST35
 1850 0905 22       		.uleb128 0x22
 1851 0906 71030000 		.4byte	0x371
 1852 090a 67060000 		.4byte	.LLST36
 1853 090e 2E       		.uleb128 0x2e
 1854 090f 07030000 		.4byte	0x307
 1855 0913 44020000 		.4byte	.LBB153
 1856 0917 78010000 		.4byte	.Ldebug_ranges0+0x178
 1857 091b 03       		.byte	0x3
 1858 091c 3E01     		.2byte	0x13e
 1859 091e 22       		.uleb128 0x22
 1860 091f 29030000 		.4byte	0x329
 1861 0923 7F060000 		.4byte	.LLST37
 1862 0927 22       		.uleb128 0x22
 1863 0928 20030000 		.4byte	0x320
 1864 092c 47060000 		.4byte	.LLST35
 1865 0930 22       		.uleb128 0x22
 1866 0931 17030000 		.4byte	0x317
 1867 0935 A7060000 		.4byte	.LLST39
 1868 0939 00       		.byte	0
 1869 093a 00       		.byte	0
 1870 093b 00       		.byte	0
 1871 093c 00       		.byte	0
 1872 093d 00       		.byte	0
 1873 093e 00       		.byte	0
ARM GAS  C:\Users\eric\AppData\Local\Temp\ccZFBEId.s 			page 34


 1874 093f 08       		.uleb128 0x8
 1875 0940 0B020000 		.4byte	0x20b
 1876 0944 08       		.uleb128 0x8
 1877 0945 B4000000 		.4byte	0xb4
 1878 0949 19       		.uleb128 0x19
 1879 094a 1D030000 		.4byte	.LASF91
 1880 094e 01       		.byte	0x1
 1881 094f AE       		.byte	0xae
 1882 0950 BC020000 		.4byte	.LFB244
 1883 0954 10000000 		.4byte	.LFE244-.LFB244
 1884 0958 01       		.uleb128 0x1
 1885 0959 9C       		.byte	0x9c
 1886 095a 6C090000 		.4byte	0x96c
 1887 095e 1A       		.uleb128 0x1a
 1888 095f 00000000 		.4byte	.LASF85
 1889 0963 01       		.byte	0x1
 1890 0964 AE       		.byte	0xae
 1891 0965 3F090000 		.4byte	0x93f
 1892 0969 01       		.uleb128 0x1
 1893 096a 50       		.byte	0x50
 1894 096b 00       		.byte	0
 1895 096c 19       		.uleb128 0x19
 1896 096d A3030000 		.4byte	.LASF92
 1897 0971 01       		.byte	0x1
 1898 0972 B3       		.byte	0xb3
 1899 0973 CC020000 		.4byte	.LFB245
 1900 0977 02000000 		.4byte	.LFE245-.LFB245
 1901 097b 01       		.uleb128 0x1
 1902 097c 9C       		.byte	0x9c
 1903 097d 8F090000 		.4byte	0x98f
 1904 0981 1A       		.uleb128 0x1a
 1905 0982 00000000 		.4byte	.LASF85
 1906 0986 01       		.byte	0x1
 1907 0987 B3       		.byte	0xb3
 1908 0988 3F090000 		.4byte	0x93f
 1909 098c 01       		.uleb128 0x1
 1910 098d 50       		.byte	0x50
 1911 098e 00       		.byte	0
 1912 098f 19       		.uleb128 0x19
 1913 0990 07000000 		.4byte	.LASF93
 1914 0994 01       		.byte	0x1
 1915 0995 B8       		.byte	0xb8
 1916 0996 CE020000 		.4byte	.LFB246
 1917 099a 9A000000 		.4byte	.LFE246-.LFB246
 1918 099e 01       		.uleb128 0x1
 1919 099f 9C       		.byte	0x9c
 1920 09a0 D0090000 		.4byte	0x9d0
 1921 09a4 1A       		.uleb128 0x1a
 1922 09a5 D7020000 		.4byte	.LASF94
 1923 09a9 01       		.byte	0x1
 1924 09aa B8       		.byte	0xb8
 1925 09ab BF000000 		.4byte	0xbf
 1926 09af 01       		.uleb128 0x1
 1927 09b0 50       		.byte	0x50
 1928 09b1 1C       		.uleb128 0x1c
 1929 09b2 35030000 		.4byte	.LASF95
 1930 09b6 01       		.byte	0x1
ARM GAS  C:\Users\eric\AppData\Local\Temp\ccZFBEId.s 			page 35


 1931 09b7 B8       		.byte	0xb8
 1932 09b8 BF000000 		.4byte	0xbf
 1933 09bc DB060000 		.4byte	.LLST40
 1934 09c0 1D       		.uleb128 0x1d
 1935 09c1 BB020000 		.4byte	.LASF96
 1936 09c5 01       		.byte	0x1
 1937 09c6 BA       		.byte	0xba
 1938 09c7 33030000 		.4byte	0x333
 1939 09cb 20070000 		.4byte	.LLST41
 1940 09cf 00       		.byte	0
 1941 09d0 2F       		.uleb128 0x2f
 1942 09d1 CD060000 		.4byte	.LASF97
 1943 09d5 02       		.byte	0x2
 1944 09d6 45       		.byte	0x45
 1945 09d7 B7030000 		.4byte	0x3b7
 1946 09db 2F       		.uleb128 0x2f
 1947 09dc 8F050000 		.4byte	.LASF98
 1948 09e0 02       		.byte	0x2
 1949 09e1 4A       		.byte	0x4a
 1950 09e2 B7030000 		.4byte	0x3b7
 1951 09e6 0D       		.uleb128 0xd
 1952 09e7 33030000 		.4byte	0x333
 1953 09eb F6090000 		.4byte	0x9f6
 1954 09ef 0E       		.uleb128 0xe
 1955 09f0 EC000000 		.4byte	0xec
 1956 09f4 97       		.byte	0x97
 1957 09f5 00       		.byte	0
 1958 09f6 2F       		.uleb128 0x2f
 1959 09f7 C0020000 		.4byte	.LASF99
 1960 09fb 02       		.byte	0x2
 1961 09fc 67       		.byte	0x67
 1962 09fd 010A0000 		.4byte	0xa01
 1963 0a01 08       		.uleb128 0x8
 1964 0a02 E6090000 		.4byte	0x9e6
 1965 0a06 0D       		.uleb128 0xd
 1966 0a07 33030000 		.4byte	0x333
 1967 0a0b 160A0000 		.4byte	0xa16
 1968 0a0f 0E       		.uleb128 0xe
 1969 0a10 EC000000 		.4byte	0xec
 1970 0a14 80       		.byte	0x80
 1971 0a15 00       		.byte	0
 1972 0a16 2F       		.uleb128 0x2f
 1973 0a17 E6050000 		.4byte	.LASF100
 1974 0a1b 02       		.byte	0x2
 1975 0a1c 94       		.byte	0x94
 1976 0a1d 210A0000 		.4byte	0xa21
 1977 0a21 08       		.uleb128 0x8
 1978 0a22 060A0000 		.4byte	0xa06
 1979 0a26 0D       		.uleb128 0xd
 1980 0a27 33030000 		.4byte	0x333
 1981 0a2b 370A0000 		.4byte	0xa37
 1982 0a2f 30       		.uleb128 0x30
 1983 0a30 EC000000 		.4byte	0xec
 1984 0a34 8603     		.2byte	0x386
 1985 0a36 00       		.byte	0
 1986 0a37 2F       		.uleb128 0x2f
 1987 0a38 A6050000 		.4byte	.LASF101
ARM GAS  C:\Users\eric\AppData\Local\Temp\ccZFBEId.s 			page 36


 1988 0a3c 02       		.byte	0x2
 1989 0a3d C6       		.byte	0xc6
 1990 0a3e 420A0000 		.4byte	0xa42
 1991 0a42 08       		.uleb128 0x8
 1992 0a43 260A0000 		.4byte	0xa26
 1993 0a47 31       		.uleb128 0x31
 1994 0a48 FC040000 		.4byte	.LASF102
 1995 0a4c 02       		.byte	0x2
 1996 0a4d 3801     		.2byte	0x138
 1997 0a4f 530A0000 		.4byte	0xa53
 1998 0a53 08       		.uleb128 0x8
 1999 0a54 260A0000 		.4byte	0xa26
 2000 0a58 31       		.uleb128 0x31
 2001 0a59 13000000 		.4byte	.LASF103
 2002 0a5d 02       		.byte	0x2
 2003 0a5e AB01     		.2byte	0x1ab
 2004 0a60 640A0000 		.4byte	0xa64
 2005 0a64 08       		.uleb128 0x8
 2006 0a65 260A0000 		.4byte	0xa26
 2007 0a69 0D       		.uleb128 0xd
 2008 0a6a 33030000 		.4byte	0x333
 2009 0a6e 7A0A0000 		.4byte	0xa7a
 2010 0a72 30       		.uleb128 0x30
 2011 0a73 EC000000 		.4byte	0xec
 2012 0a77 0001     		.2byte	0x100
 2013 0a79 00       		.byte	0
 2014 0a7a 31       		.uleb128 0x31
 2015 0a7b E0030000 		.4byte	.LASF104
 2016 0a7f 02       		.byte	0x2
 2017 0a80 4C02     		.2byte	0x24c
 2018 0a82 860A0000 		.4byte	0xa86
 2019 0a86 08       		.uleb128 0x8
 2020 0a87 690A0000 		.4byte	0xa69
 2021 0a8b 31       		.uleb128 0x31
 2022 0a8c 87020000 		.4byte	.LASF105
 2023 0a90 02       		.byte	0x2
 2024 0a91 6302     		.2byte	0x263
 2025 0a93 970A0000 		.4byte	0xa97
 2026 0a97 08       		.uleb128 0x8
 2027 0a98 690A0000 		.4byte	0xa69
 2028 0a9c 31       		.uleb128 0x31
 2029 0a9d DD040000 		.4byte	.LASF106
 2030 0aa1 02       		.byte	0x2
 2031 0aa2 7B02     		.2byte	0x27b
 2032 0aa4 A80A0000 		.4byte	0xaa8
 2033 0aa8 08       		.uleb128 0x8
 2034 0aa9 690A0000 		.4byte	0xa69
 2035 0aad 31       		.uleb128 0x31
 2036 0aae ED040000 		.4byte	.LASF107
 2037 0ab2 02       		.byte	0x2
 2038 0ab3 AA02     		.2byte	0x2aa
 2039 0ab5 B90A0000 		.4byte	0xab9
 2040 0ab9 08       		.uleb128 0x8
 2041 0aba 060A0000 		.4byte	0xa06
 2042 0abe 31       		.uleb128 0x31
 2043 0abf B4030000 		.4byte	.LASF108
 2044 0ac3 02       		.byte	0x2
ARM GAS  C:\Users\eric\AppData\Local\Temp\ccZFBEId.s 			page 37


 2045 0ac4 BF02     		.2byte	0x2bf
 2046 0ac6 CA0A0000 		.4byte	0xaca
 2047 0aca 08       		.uleb128 0x8
 2048 0acb 060A0000 		.4byte	0xa06
 2049 0acf 31       		.uleb128 0x31
 2050 0ad0 61010000 		.4byte	.LASF109
 2051 0ad4 02       		.byte	0x2
 2052 0ad5 DC02     		.2byte	0x2dc
 2053 0ad7 DB0A0000 		.4byte	0xadb
 2054 0adb 08       		.uleb128 0x8
 2055 0adc 060A0000 		.4byte	0xa06
 2056 0ae0 1E       		.uleb128 0x1e
 2057 0ae1 28020000 		.4byte	.LASF110
 2058 0ae5 01       		.byte	0x1
 2059 0ae6 3A       		.byte	0x3a
 2060 0ae7 BF020000 		.4byte	0x2bf
 2061 0aeb 05       		.uleb128 0x5
 2062 0aec 03       		.byte	0x3
 2063 0aed 00000000 		.4byte	_ZL7s_state
 2064 0af1 32       		.uleb128 0x32
 2065 0af2 81010000 		.4byte	.LASF111
 2066 0af6 01       		.byte	0x1
 2067 0af7 41       		.byte	0x41
 2068 0af8 2C000000 		.4byte	0x2c
 2069 0afc 05       		.uleb128 0x5
 2070 0afd 03       		.byte	0x3
 2071 0afe 00000000 		.4byte	maxVoice
 2072 0b02 0D       		.uleb128 0xd
 2073 0b03 CA020000 		.4byte	0x2ca
 2074 0b07 120B0000 		.4byte	0xb12
 2075 0b0b 0E       		.uleb128 0xe
 2076 0b0c EC000000 		.4byte	0xec
 2077 0b10 0B       		.byte	0xb
 2078 0b11 00       		.byte	0
 2079 0b12 32       		.uleb128 0x32
 2080 0b13 71050000 		.4byte	.LASF112
 2081 0b17 01       		.byte	0x1
 2082 0b18 42       		.byte	0x42
 2083 0b19 020B0000 		.4byte	0xb02
 2084 0b1d 05       		.uleb128 0x5
 2085 0b1e 03       		.byte	0x3
 2086 0b1f 00000000 		.4byte	instances
 2087 0b23 33       		.uleb128 0x33
 2088 0b24 AC060000 		.4byte	.LASF119
 2089 0b28 AC060000 		.4byte	.LASF119
 2090 0b2c 02       		.byte	0x2
 2091 0b2d 0903     		.2byte	0x309
 2092 0b2f 00       		.byte	0
 2093              		.section	.debug_abbrev,"",%progbits
 2094              	.Ldebug_abbrev0:
 2095 0000 01       		.uleb128 0x1
 2096 0001 11       		.uleb128 0x11
 2097 0002 01       		.byte	0x1
 2098 0003 25       		.uleb128 0x25
 2099 0004 0E       		.uleb128 0xe
 2100 0005 13       		.uleb128 0x13
 2101 0006 0B       		.uleb128 0xb
ARM GAS  C:\Users\eric\AppData\Local\Temp\ccZFBEId.s 			page 38


 2102 0007 03       		.uleb128 0x3
 2103 0008 0E       		.uleb128 0xe
 2104 0009 1B       		.uleb128 0x1b
 2105 000a 0E       		.uleb128 0xe
 2106 000b 11       		.uleb128 0x11
 2107 000c 01       		.uleb128 0x1
 2108 000d 12       		.uleb128 0x12
 2109 000e 06       		.uleb128 0x6
 2110 000f 10       		.uleb128 0x10
 2111 0010 17       		.uleb128 0x17
 2112 0011 00       		.byte	0
 2113 0012 00       		.byte	0
 2114 0013 02       		.uleb128 0x2
 2115 0014 24       		.uleb128 0x24
 2116 0015 00       		.byte	0
 2117 0016 0B       		.uleb128 0xb
 2118 0017 0B       		.uleb128 0xb
 2119 0018 3E       		.uleb128 0x3e
 2120 0019 0B       		.uleb128 0xb
 2121 001a 03       		.uleb128 0x3
 2122 001b 0E       		.uleb128 0xe
 2123 001c 00       		.byte	0
 2124 001d 00       		.byte	0
 2125 001e 03       		.uleb128 0x3
 2126 001f 24       		.uleb128 0x24
 2127 0020 00       		.byte	0
 2128 0021 0B       		.uleb128 0xb
 2129 0022 0B       		.uleb128 0xb
 2130 0023 3E       		.uleb128 0x3e
 2131 0024 0B       		.uleb128 0xb
 2132 0025 03       		.uleb128 0x3
 2133 0026 08       		.uleb128 0x8
 2134 0027 00       		.byte	0
 2135 0028 00       		.byte	0
 2136 0029 04       		.uleb128 0x4
 2137 002a 16       		.uleb128 0x16
 2138 002b 00       		.byte	0
 2139 002c 03       		.uleb128 0x3
 2140 002d 0E       		.uleb128 0xe
 2141 002e 3A       		.uleb128 0x3a
 2142 002f 0B       		.uleb128 0xb
 2143 0030 3B       		.uleb128 0x3b
 2144 0031 0B       		.uleb128 0xb
 2145 0032 49       		.uleb128 0x49
 2146 0033 13       		.uleb128 0x13
 2147 0034 00       		.byte	0
 2148 0035 00       		.byte	0
 2149 0036 05       		.uleb128 0x5
 2150 0037 3B       		.uleb128 0x3b
 2151 0038 00       		.byte	0
 2152 0039 03       		.uleb128 0x3
 2153 003a 0E       		.uleb128 0xe
 2154 003b 00       		.byte	0
 2155 003c 00       		.byte	0
 2156 003d 06       		.uleb128 0x6
 2157 003e 16       		.uleb128 0x16
 2158 003f 00       		.byte	0
ARM GAS  C:\Users\eric\AppData\Local\Temp\ccZFBEId.s 			page 39


 2159 0040 03       		.uleb128 0x3
 2160 0041 0E       		.uleb128 0xe
 2161 0042 3A       		.uleb128 0x3a
 2162 0043 0B       		.uleb128 0xb
 2163 0044 3B       		.uleb128 0x3b
 2164 0045 05       		.uleb128 0x5
 2165 0046 49       		.uleb128 0x49
 2166 0047 13       		.uleb128 0x13
 2167 0048 00       		.byte	0
 2168 0049 00       		.byte	0
 2169 004a 07       		.uleb128 0x7
 2170 004b 0F       		.uleb128 0xf
 2171 004c 00       		.byte	0
 2172 004d 0B       		.uleb128 0xb
 2173 004e 0B       		.uleb128 0xb
 2174 004f 49       		.uleb128 0x49
 2175 0050 13       		.uleb128 0x13
 2176 0051 00       		.byte	0
 2177 0052 00       		.byte	0
 2178 0053 08       		.uleb128 0x8
 2179 0054 26       		.uleb128 0x26
 2180 0055 00       		.byte	0
 2181 0056 49       		.uleb128 0x49
 2182 0057 13       		.uleb128 0x13
 2183 0058 00       		.byte	0
 2184 0059 00       		.byte	0
 2185 005a 09       		.uleb128 0x9
 2186 005b 04       		.uleb128 0x4
 2187 005c 01       		.byte	0x1
 2188 005d 0B       		.uleb128 0xb
 2189 005e 0B       		.uleb128 0xb
 2190 005f 49       		.uleb128 0x49
 2191 0060 13       		.uleb128 0x13
 2192 0061 3A       		.uleb128 0x3a
 2193 0062 0B       		.uleb128 0xb
 2194 0063 3B       		.uleb128 0x3b
 2195 0064 0B       		.uleb128 0xb
 2196 0065 01       		.uleb128 0x1
 2197 0066 13       		.uleb128 0x13
 2198 0067 00       		.byte	0
 2199 0068 00       		.byte	0
 2200 0069 0A       		.uleb128 0xa
 2201 006a 28       		.uleb128 0x28
 2202 006b 00       		.byte	0
 2203 006c 03       		.uleb128 0x3
 2204 006d 0E       		.uleb128 0xe
 2205 006e 1C       		.uleb128 0x1c
 2206 006f 0B       		.uleb128 0xb
 2207 0070 00       		.byte	0
 2208 0071 00       		.byte	0
 2209 0072 0B       		.uleb128 0xb
 2210 0073 13       		.uleb128 0x13
 2211 0074 01       		.byte	0x1
 2212 0075 03       		.uleb128 0x3
 2213 0076 0E       		.uleb128 0xe
 2214 0077 0B       		.uleb128 0xb
 2215 0078 0B       		.uleb128 0xb
ARM GAS  C:\Users\eric\AppData\Local\Temp\ccZFBEId.s 			page 40


 2216 0079 3A       		.uleb128 0x3a
 2217 007a 0B       		.uleb128 0xb
 2218 007b 3B       		.uleb128 0x3b
 2219 007c 0B       		.uleb128 0xb
 2220 007d 01       		.uleb128 0x1
 2221 007e 13       		.uleb128 0x13
 2222 007f 00       		.byte	0
 2223 0080 00       		.byte	0
 2224 0081 0C       		.uleb128 0xc
 2225 0082 0D       		.uleb128 0xd
 2226 0083 00       		.byte	0
 2227 0084 03       		.uleb128 0x3
 2228 0085 0E       		.uleb128 0xe
 2229 0086 3A       		.uleb128 0x3a
 2230 0087 0B       		.uleb128 0xb
 2231 0088 3B       		.uleb128 0x3b
 2232 0089 0B       		.uleb128 0xb
 2233 008a 49       		.uleb128 0x49
 2234 008b 13       		.uleb128 0x13
 2235 008c 38       		.uleb128 0x38
 2236 008d 0B       		.uleb128 0xb
 2237 008e 00       		.byte	0
 2238 008f 00       		.byte	0
 2239 0090 0D       		.uleb128 0xd
 2240 0091 01       		.uleb128 0x1
 2241 0092 01       		.byte	0x1
 2242 0093 49       		.uleb128 0x49
 2243 0094 13       		.uleb128 0x13
 2244 0095 01       		.uleb128 0x1
 2245 0096 13       		.uleb128 0x13
 2246 0097 00       		.byte	0
 2247 0098 00       		.byte	0
 2248 0099 0E       		.uleb128 0xe
 2249 009a 21       		.uleb128 0x21
 2250 009b 00       		.byte	0
 2251 009c 49       		.uleb128 0x49
 2252 009d 13       		.uleb128 0x13
 2253 009e 2F       		.uleb128 0x2f
 2254 009f 0B       		.uleb128 0xb
 2255 00a0 00       		.byte	0
 2256 00a1 00       		.byte	0
 2257 00a2 0F       		.uleb128 0xf
 2258 00a3 04       		.uleb128 0x4
 2259 00a4 01       		.byte	0x1
 2260 00a5 0B       		.uleb128 0xb
 2261 00a6 0B       		.uleb128 0xb
 2262 00a7 49       		.uleb128 0x49
 2263 00a8 13       		.uleb128 0x13
 2264 00a9 3A       		.uleb128 0x3a
 2265 00aa 0B       		.uleb128 0xb
 2266 00ab 3B       		.uleb128 0x3b
 2267 00ac 0B       		.uleb128 0xb
 2268 00ad 6E       		.uleb128 0x6e
 2269 00ae 0E       		.uleb128 0xe
 2270 00af 01       		.uleb128 0x1
 2271 00b0 13       		.uleb128 0x13
 2272 00b1 00       		.byte	0
ARM GAS  C:\Users\eric\AppData\Local\Temp\ccZFBEId.s 			page 41


 2273 00b2 00       		.byte	0
 2274 00b3 10       		.uleb128 0x10
 2275 00b4 0D       		.uleb128 0xd
 2276 00b5 00       		.byte	0
 2277 00b6 03       		.uleb128 0x3
 2278 00b7 08       		.uleb128 0x8
 2279 00b8 3A       		.uleb128 0x3a
 2280 00b9 0B       		.uleb128 0xb
 2281 00ba 3B       		.uleb128 0x3b
 2282 00bb 0B       		.uleb128 0xb
 2283 00bc 49       		.uleb128 0x49
 2284 00bd 13       		.uleb128 0x13
 2285 00be 38       		.uleb128 0x38
 2286 00bf 0B       		.uleb128 0xb
 2287 00c0 00       		.byte	0
 2288 00c1 00       		.byte	0
 2289 00c2 11       		.uleb128 0x11
 2290 00c3 2E       		.uleb128 0x2e
 2291 00c4 01       		.byte	0x1
 2292 00c5 03       		.uleb128 0x3
 2293 00c6 0E       		.uleb128 0xe
 2294 00c7 3A       		.uleb128 0x3a
 2295 00c8 0B       		.uleb128 0xb
 2296 00c9 3B       		.uleb128 0x3b
 2297 00ca 0B       		.uleb128 0xb
 2298 00cb 49       		.uleb128 0x49
 2299 00cc 13       		.uleb128 0x13
 2300 00cd 20       		.uleb128 0x20
 2301 00ce 0B       		.uleb128 0xb
 2302 00cf 01       		.uleb128 0x1
 2303 00d0 13       		.uleb128 0x13
 2304 00d1 00       		.byte	0
 2305 00d2 00       		.byte	0
 2306 00d3 12       		.uleb128 0x12
 2307 00d4 05       		.uleb128 0x5
 2308 00d5 00       		.byte	0
 2309 00d6 03       		.uleb128 0x3
 2310 00d7 08       		.uleb128 0x8
 2311 00d8 3A       		.uleb128 0x3a
 2312 00d9 0B       		.uleb128 0xb
 2313 00da 3B       		.uleb128 0x3b
 2314 00db 0B       		.uleb128 0xb
 2315 00dc 49       		.uleb128 0x49
 2316 00dd 13       		.uleb128 0x13
 2317 00de 00       		.byte	0
 2318 00df 00       		.byte	0
 2319 00e0 13       		.uleb128 0x13
 2320 00e1 2E       		.uleb128 0x2e
 2321 00e2 01       		.byte	0x1
 2322 00e3 03       		.uleb128 0x3
 2323 00e4 0E       		.uleb128 0xe
 2324 00e5 3A       		.uleb128 0x3a
 2325 00e6 0B       		.uleb128 0xb
 2326 00e7 3B       		.uleb128 0x3b
 2327 00e8 05       		.uleb128 0x5
 2328 00e9 49       		.uleb128 0x49
 2329 00ea 13       		.uleb128 0x13
ARM GAS  C:\Users\eric\AppData\Local\Temp\ccZFBEId.s 			page 42


 2330 00eb 20       		.uleb128 0x20
 2331 00ec 0B       		.uleb128 0xb
 2332 00ed 01       		.uleb128 0x1
 2333 00ee 13       		.uleb128 0x13
 2334 00ef 00       		.byte	0
 2335 00f0 00       		.byte	0
 2336 00f1 14       		.uleb128 0x14
 2337 00f2 05       		.uleb128 0x5
 2338 00f3 00       		.byte	0
 2339 00f4 03       		.uleb128 0x3
 2340 00f5 08       		.uleb128 0x8
 2341 00f6 3A       		.uleb128 0x3a
 2342 00f7 0B       		.uleb128 0xb
 2343 00f8 3B       		.uleb128 0x3b
 2344 00f9 05       		.uleb128 0x5
 2345 00fa 49       		.uleb128 0x49
 2346 00fb 13       		.uleb128 0x13
 2347 00fc 00       		.byte	0
 2348 00fd 00       		.byte	0
 2349 00fe 15       		.uleb128 0x15
 2350 00ff 05       		.uleb128 0x5
 2351 0100 00       		.byte	0
 2352 0101 03       		.uleb128 0x3
 2353 0102 0E       		.uleb128 0xe
 2354 0103 3A       		.uleb128 0x3a
 2355 0104 0B       		.uleb128 0xb
 2356 0105 3B       		.uleb128 0x3b
 2357 0106 0B       		.uleb128 0xb
 2358 0107 49       		.uleb128 0x49
 2359 0108 13       		.uleb128 0x13
 2360 0109 00       		.byte	0
 2361 010a 00       		.byte	0
 2362 010b 16       		.uleb128 0x16
 2363 010c 34       		.uleb128 0x34
 2364 010d 00       		.byte	0
 2365 010e 03       		.uleb128 0x3
 2366 010f 08       		.uleb128 0x8
 2367 0110 3A       		.uleb128 0x3a
 2368 0111 0B       		.uleb128 0xb
 2369 0112 3B       		.uleb128 0x3b
 2370 0113 0B       		.uleb128 0xb
 2371 0114 49       		.uleb128 0x49
 2372 0115 13       		.uleb128 0x13
 2373 0116 00       		.byte	0
 2374 0117 00       		.byte	0
 2375 0118 17       		.uleb128 0x17
 2376 0119 34       		.uleb128 0x34
 2377 011a 00       		.byte	0
 2378 011b 03       		.uleb128 0x3
 2379 011c 0E       		.uleb128 0xe
 2380 011d 3A       		.uleb128 0x3a
 2381 011e 0B       		.uleb128 0xb
 2382 011f 3B       		.uleb128 0x3b
 2383 0120 0B       		.uleb128 0xb
 2384 0121 49       		.uleb128 0x49
 2385 0122 13       		.uleb128 0x13
 2386 0123 00       		.byte	0
ARM GAS  C:\Users\eric\AppData\Local\Temp\ccZFBEId.s 			page 43


 2387 0124 00       		.byte	0
 2388 0125 18       		.uleb128 0x18
 2389 0126 2E       		.uleb128 0x2e
 2390 0127 00       		.byte	0
 2391 0128 03       		.uleb128 0x3
 2392 0129 0E       		.uleb128 0xe
 2393 012a 3A       		.uleb128 0x3a
 2394 012b 0B       		.uleb128 0xb
 2395 012c 3B       		.uleb128 0x3b
 2396 012d 05       		.uleb128 0x5
 2397 012e 49       		.uleb128 0x49
 2398 012f 13       		.uleb128 0x13
 2399 0130 20       		.uleb128 0x20
 2400 0131 0B       		.uleb128 0xb
 2401 0132 00       		.byte	0
 2402 0133 00       		.byte	0
 2403 0134 19       		.uleb128 0x19
 2404 0135 2E       		.uleb128 0x2e
 2405 0136 01       		.byte	0x1
 2406 0137 3F       		.uleb128 0x3f
 2407 0138 19       		.uleb128 0x19
 2408 0139 03       		.uleb128 0x3
 2409 013a 0E       		.uleb128 0xe
 2410 013b 3A       		.uleb128 0x3a
 2411 013c 0B       		.uleb128 0xb
 2412 013d 3B       		.uleb128 0x3b
 2413 013e 0B       		.uleb128 0xb
 2414 013f 11       		.uleb128 0x11
 2415 0140 01       		.uleb128 0x1
 2416 0141 12       		.uleb128 0x12
 2417 0142 06       		.uleb128 0x6
 2418 0143 40       		.uleb128 0x40
 2419 0144 18       		.uleb128 0x18
 2420 0145 9742     		.uleb128 0x2117
 2421 0147 19       		.uleb128 0x19
 2422 0148 01       		.uleb128 0x1
 2423 0149 13       		.uleb128 0x13
 2424 014a 00       		.byte	0
 2425 014b 00       		.byte	0
 2426 014c 1A       		.uleb128 0x1a
 2427 014d 05       		.uleb128 0x5
 2428 014e 00       		.byte	0
 2429 014f 03       		.uleb128 0x3
 2430 0150 0E       		.uleb128 0xe
 2431 0151 3A       		.uleb128 0x3a
 2432 0152 0B       		.uleb128 0xb
 2433 0153 3B       		.uleb128 0x3b
 2434 0154 0B       		.uleb128 0xb
 2435 0155 49       		.uleb128 0x49
 2436 0156 13       		.uleb128 0x13
 2437 0157 02       		.uleb128 0x2
 2438 0158 18       		.uleb128 0x18
 2439 0159 00       		.byte	0
 2440 015a 00       		.byte	0
 2441 015b 1B       		.uleb128 0x1b
 2442 015c 05       		.uleb128 0x5
 2443 015d 00       		.byte	0
ARM GAS  C:\Users\eric\AppData\Local\Temp\ccZFBEId.s 			page 44


 2444 015e 03       		.uleb128 0x3
 2445 015f 08       		.uleb128 0x8
 2446 0160 3A       		.uleb128 0x3a
 2447 0161 0B       		.uleb128 0xb
 2448 0162 3B       		.uleb128 0x3b
 2449 0163 0B       		.uleb128 0xb
 2450 0164 49       		.uleb128 0x49
 2451 0165 13       		.uleb128 0x13
 2452 0166 02       		.uleb128 0x2
 2453 0167 17       		.uleb128 0x17
 2454 0168 00       		.byte	0
 2455 0169 00       		.byte	0
 2456 016a 1C       		.uleb128 0x1c
 2457 016b 05       		.uleb128 0x5
 2458 016c 00       		.byte	0
 2459 016d 03       		.uleb128 0x3
 2460 016e 0E       		.uleb128 0xe
 2461 016f 3A       		.uleb128 0x3a
 2462 0170 0B       		.uleb128 0xb
 2463 0171 3B       		.uleb128 0x3b
 2464 0172 0B       		.uleb128 0xb
 2465 0173 49       		.uleb128 0x49
 2466 0174 13       		.uleb128 0x13
 2467 0175 02       		.uleb128 0x2
 2468 0176 17       		.uleb128 0x17
 2469 0177 00       		.byte	0
 2470 0178 00       		.byte	0
 2471 0179 1D       		.uleb128 0x1d
 2472 017a 34       		.uleb128 0x34
 2473 017b 00       		.byte	0
 2474 017c 03       		.uleb128 0x3
 2475 017d 0E       		.uleb128 0xe
 2476 017e 3A       		.uleb128 0x3a
 2477 017f 0B       		.uleb128 0xb
 2478 0180 3B       		.uleb128 0x3b
 2479 0181 0B       		.uleb128 0xb
 2480 0182 49       		.uleb128 0x49
 2481 0183 13       		.uleb128 0x13
 2482 0184 02       		.uleb128 0x2
 2483 0185 17       		.uleb128 0x17
 2484 0186 00       		.byte	0
 2485 0187 00       		.byte	0
 2486 0188 1E       		.uleb128 0x1e
 2487 0189 34       		.uleb128 0x34
 2488 018a 00       		.byte	0
 2489 018b 03       		.uleb128 0x3
 2490 018c 0E       		.uleb128 0xe
 2491 018d 3A       		.uleb128 0x3a
 2492 018e 0B       		.uleb128 0xb
 2493 018f 3B       		.uleb128 0x3b
 2494 0190 0B       		.uleb128 0xb
 2495 0191 49       		.uleb128 0x49
 2496 0192 13       		.uleb128 0x13
 2497 0193 02       		.uleb128 0x2
 2498 0194 18       		.uleb128 0x18
 2499 0195 00       		.byte	0
 2500 0196 00       		.byte	0
ARM GAS  C:\Users\eric\AppData\Local\Temp\ccZFBEId.s 			page 45


 2501 0197 1F       		.uleb128 0x1f
 2502 0198 34       		.uleb128 0x34
 2503 0199 00       		.byte	0
 2504 019a 03       		.uleb128 0x3
 2505 019b 08       		.uleb128 0x8
 2506 019c 3A       		.uleb128 0x3a
 2507 019d 0B       		.uleb128 0xb
 2508 019e 3B       		.uleb128 0x3b
 2509 019f 0B       		.uleb128 0xb
 2510 01a0 49       		.uleb128 0x49
 2511 01a1 13       		.uleb128 0x13
 2512 01a2 02       		.uleb128 0x2
 2513 01a3 17       		.uleb128 0x17
 2514 01a4 00       		.byte	0
 2515 01a5 00       		.byte	0
 2516 01a6 20       		.uleb128 0x20
 2517 01a7 0B       		.uleb128 0xb
 2518 01a8 01       		.byte	0x1
 2519 01a9 55       		.uleb128 0x55
 2520 01aa 17       		.uleb128 0x17
 2521 01ab 01       		.uleb128 0x1
 2522 01ac 13       		.uleb128 0x13
 2523 01ad 00       		.byte	0
 2524 01ae 00       		.byte	0
 2525 01af 21       		.uleb128 0x21
 2526 01b0 1D       		.uleb128 0x1d
 2527 01b1 01       		.byte	0x1
 2528 01b2 31       		.uleb128 0x31
 2529 01b3 13       		.uleb128 0x13
 2530 01b4 52       		.uleb128 0x52
 2531 01b5 01       		.uleb128 0x1
 2532 01b6 55       		.uleb128 0x55
 2533 01b7 17       		.uleb128 0x17
 2534 01b8 58       		.uleb128 0x58
 2535 01b9 0B       		.uleb128 0xb
 2536 01ba 59       		.uleb128 0x59
 2537 01bb 0B       		.uleb128 0xb
 2538 01bc 01       		.uleb128 0x1
 2539 01bd 13       		.uleb128 0x13
 2540 01be 00       		.byte	0
 2541 01bf 00       		.byte	0
 2542 01c0 22       		.uleb128 0x22
 2543 01c1 05       		.uleb128 0x5
 2544 01c2 00       		.byte	0
 2545 01c3 31       		.uleb128 0x31
 2546 01c4 13       		.uleb128 0x13
 2547 01c5 02       		.uleb128 0x2
 2548 01c6 17       		.uleb128 0x17
 2549 01c7 00       		.byte	0
 2550 01c8 00       		.byte	0
 2551 01c9 23       		.uleb128 0x23
 2552 01ca 05       		.uleb128 0x5
 2553 01cb 00       		.byte	0
 2554 01cc 31       		.uleb128 0x31
 2555 01cd 13       		.uleb128 0x13
 2556 01ce 00       		.byte	0
 2557 01cf 00       		.byte	0
ARM GAS  C:\Users\eric\AppData\Local\Temp\ccZFBEId.s 			page 46


 2558 01d0 24       		.uleb128 0x24
 2559 01d1 0B       		.uleb128 0xb
 2560 01d2 01       		.byte	0x1
 2561 01d3 55       		.uleb128 0x55
 2562 01d4 17       		.uleb128 0x17
 2563 01d5 00       		.byte	0
 2564 01d6 00       		.byte	0
 2565 01d7 25       		.uleb128 0x25
 2566 01d8 34       		.uleb128 0x34
 2567 01d9 00       		.byte	0
 2568 01da 31       		.uleb128 0x31
 2569 01db 13       		.uleb128 0x13
 2570 01dc 00       		.byte	0
 2571 01dd 00       		.byte	0
 2572 01de 26       		.uleb128 0x26
 2573 01df 1D       		.uleb128 0x1d
 2574 01e0 01       		.byte	0x1
 2575 01e1 31       		.uleb128 0x31
 2576 01e2 13       		.uleb128 0x13
 2577 01e3 11       		.uleb128 0x11
 2578 01e4 01       		.uleb128 0x1
 2579 01e5 12       		.uleb128 0x12
 2580 01e6 06       		.uleb128 0x6
 2581 01e7 58       		.uleb128 0x58
 2582 01e8 0B       		.uleb128 0xb
 2583 01e9 59       		.uleb128 0x59
 2584 01ea 0B       		.uleb128 0xb
 2585 01eb 00       		.byte	0
 2586 01ec 00       		.byte	0
 2587 01ed 27       		.uleb128 0x27
 2588 01ee 1D       		.uleb128 0x1d
 2589 01ef 01       		.byte	0x1
 2590 01f0 31       		.uleb128 0x31
 2591 01f1 13       		.uleb128 0x13
 2592 01f2 11       		.uleb128 0x11
 2593 01f3 01       		.uleb128 0x1
 2594 01f4 12       		.uleb128 0x12
 2595 01f5 06       		.uleb128 0x6
 2596 01f6 58       		.uleb128 0x58
 2597 01f7 0B       		.uleb128 0xb
 2598 01f8 59       		.uleb128 0x59
 2599 01f9 05       		.uleb128 0x5
 2600 01fa 00       		.byte	0
 2601 01fb 00       		.byte	0
 2602 01fc 28       		.uleb128 0x28
 2603 01fd 1D       		.uleb128 0x1d
 2604 01fe 01       		.byte	0x1
 2605 01ff 31       		.uleb128 0x31
 2606 0200 13       		.uleb128 0x13
 2607 0201 11       		.uleb128 0x11
 2608 0202 01       		.uleb128 0x1
 2609 0203 12       		.uleb128 0x12
 2610 0204 06       		.uleb128 0x6
 2611 0205 58       		.uleb128 0x58
 2612 0206 0B       		.uleb128 0xb
 2613 0207 59       		.uleb128 0x59
 2614 0208 0B       		.uleb128 0xb
ARM GAS  C:\Users\eric\AppData\Local\Temp\ccZFBEId.s 			page 47


 2615 0209 01       		.uleb128 0x1
 2616 020a 13       		.uleb128 0x13
 2617 020b 00       		.byte	0
 2618 020c 00       		.byte	0
 2619 020d 29       		.uleb128 0x29
 2620 020e 0B       		.uleb128 0xb
 2621 020f 01       		.byte	0x1
 2622 0210 11       		.uleb128 0x11
 2623 0211 01       		.uleb128 0x1
 2624 0212 12       		.uleb128 0x12
 2625 0213 06       		.uleb128 0x6
 2626 0214 00       		.byte	0
 2627 0215 00       		.byte	0
 2628 0216 2A       		.uleb128 0x2a
 2629 0217 34       		.uleb128 0x34
 2630 0218 00       		.byte	0
 2631 0219 31       		.uleb128 0x31
 2632 021a 13       		.uleb128 0x13
 2633 021b 02       		.uleb128 0x2
 2634 021c 17       		.uleb128 0x17
 2635 021d 00       		.byte	0
 2636 021e 00       		.byte	0
 2637 021f 2B       		.uleb128 0x2b
 2638 0220 898201   		.uleb128 0x4109
 2639 0223 00       		.byte	0
 2640 0224 11       		.uleb128 0x11
 2641 0225 01       		.uleb128 0x1
 2642 0226 31       		.uleb128 0x31
 2643 0227 13       		.uleb128 0x13
 2644 0228 00       		.byte	0
 2645 0229 00       		.byte	0
 2646 022a 2C       		.uleb128 0x2c
 2647 022b 1D       		.uleb128 0x1d
 2648 022c 01       		.byte	0x1
 2649 022d 31       		.uleb128 0x31
 2650 022e 13       		.uleb128 0x13
 2651 022f 52       		.uleb128 0x52
 2652 0230 01       		.uleb128 0x1
 2653 0231 55       		.uleb128 0x55
 2654 0232 17       		.uleb128 0x17
 2655 0233 58       		.uleb128 0x58
 2656 0234 0B       		.uleb128 0xb
 2657 0235 59       		.uleb128 0x59
 2658 0236 0B       		.uleb128 0xb
 2659 0237 00       		.byte	0
 2660 0238 00       		.byte	0
 2661 0239 2D       		.uleb128 0x2d
 2662 023a 34       		.uleb128 0x34
 2663 023b 00       		.byte	0
 2664 023c 31       		.uleb128 0x31
 2665 023d 13       		.uleb128 0x13
 2666 023e 02       		.uleb128 0x2
 2667 023f 18       		.uleb128 0x18
 2668 0240 00       		.byte	0
 2669 0241 00       		.byte	0
 2670 0242 2E       		.uleb128 0x2e
 2671 0243 1D       		.uleb128 0x1d
ARM GAS  C:\Users\eric\AppData\Local\Temp\ccZFBEId.s 			page 48


 2672 0244 01       		.byte	0x1
 2673 0245 31       		.uleb128 0x31
 2674 0246 13       		.uleb128 0x13
 2675 0247 52       		.uleb128 0x52
 2676 0248 01       		.uleb128 0x1
 2677 0249 55       		.uleb128 0x55
 2678 024a 17       		.uleb128 0x17
 2679 024b 58       		.uleb128 0x58
 2680 024c 0B       		.uleb128 0xb
 2681 024d 59       		.uleb128 0x59
 2682 024e 05       		.uleb128 0x5
 2683 024f 00       		.byte	0
 2684 0250 00       		.byte	0
 2685 0251 2F       		.uleb128 0x2f
 2686 0252 34       		.uleb128 0x34
 2687 0253 00       		.byte	0
 2688 0254 03       		.uleb128 0x3
 2689 0255 0E       		.uleb128 0xe
 2690 0256 3A       		.uleb128 0x3a
 2691 0257 0B       		.uleb128 0xb
 2692 0258 3B       		.uleb128 0x3b
 2693 0259 0B       		.uleb128 0xb
 2694 025a 49       		.uleb128 0x49
 2695 025b 13       		.uleb128 0x13
 2696 025c 3F       		.uleb128 0x3f
 2697 025d 19       		.uleb128 0x19
 2698 025e 3C       		.uleb128 0x3c
 2699 025f 19       		.uleb128 0x19
 2700 0260 00       		.byte	0
 2701 0261 00       		.byte	0
 2702 0262 30       		.uleb128 0x30
 2703 0263 21       		.uleb128 0x21
 2704 0264 00       		.byte	0
 2705 0265 49       		.uleb128 0x49
 2706 0266 13       		.uleb128 0x13
 2707 0267 2F       		.uleb128 0x2f
 2708 0268 05       		.uleb128 0x5
 2709 0269 00       		.byte	0
 2710 026a 00       		.byte	0
 2711 026b 31       		.uleb128 0x31
 2712 026c 34       		.uleb128 0x34
 2713 026d 00       		.byte	0
 2714 026e 03       		.uleb128 0x3
 2715 026f 0E       		.uleb128 0xe
 2716 0270 3A       		.uleb128 0x3a
 2717 0271 0B       		.uleb128 0xb
 2718 0272 3B       		.uleb128 0x3b
 2719 0273 05       		.uleb128 0x5
 2720 0274 49       		.uleb128 0x49
 2721 0275 13       		.uleb128 0x13
 2722 0276 3F       		.uleb128 0x3f
 2723 0277 19       		.uleb128 0x19
 2724 0278 3C       		.uleb128 0x3c
 2725 0279 19       		.uleb128 0x19
 2726 027a 00       		.byte	0
 2727 027b 00       		.byte	0
 2728 027c 32       		.uleb128 0x32
ARM GAS  C:\Users\eric\AppData\Local\Temp\ccZFBEId.s 			page 49


 2729 027d 34       		.uleb128 0x34
 2730 027e 00       		.byte	0
 2731 027f 03       		.uleb128 0x3
 2732 0280 0E       		.uleb128 0xe
 2733 0281 3A       		.uleb128 0x3a
 2734 0282 0B       		.uleb128 0xb
 2735 0283 3B       		.uleb128 0x3b
 2736 0284 0B       		.uleb128 0xb
 2737 0285 49       		.uleb128 0x49
 2738 0286 13       		.uleb128 0x13
 2739 0287 3F       		.uleb128 0x3f
 2740 0288 19       		.uleb128 0x19
 2741 0289 02       		.uleb128 0x2
 2742 028a 18       		.uleb128 0x18
 2743 028b 00       		.byte	0
 2744 028c 00       		.byte	0
 2745 028d 33       		.uleb128 0x33
 2746 028e 2E       		.uleb128 0x2e
 2747 028f 00       		.byte	0
 2748 0290 3F       		.uleb128 0x3f
 2749 0291 19       		.uleb128 0x19
 2750 0292 3C       		.uleb128 0x3c
 2751 0293 19       		.uleb128 0x19
 2752 0294 6E       		.uleb128 0x6e
 2753 0295 0E       		.uleb128 0xe
 2754 0296 03       		.uleb128 0x3
 2755 0297 0E       		.uleb128 0xe
 2756 0298 3A       		.uleb128 0x3a
 2757 0299 0B       		.uleb128 0xb
 2758 029a 3B       		.uleb128 0x3b
 2759 029b 05       		.uleb128 0x5
 2760 029c 00       		.byte	0
 2761 029d 00       		.byte	0
 2762 029e 00       		.byte	0
 2763              		.section	.debug_loc,"",%progbits
 2764              	.Ldebug_loc0:
 2765              	.LLST0:
 2766 0000 00000000 		.4byte	.LVL0-.Ltext0
 2767 0004 08000000 		.4byte	.LVL1-.Ltext0
 2768 0008 0100     		.2byte	0x1
 2769 000a 51       		.byte	0x51
 2770 000b 08000000 		.4byte	.LVL1-.Ltext0
 2771 000f 2C000000 		.4byte	.LFE239-.Ltext0
 2772 0013 0400     		.2byte	0x4
 2773 0015 F3       		.byte	0xf3
 2774 0016 01       		.uleb128 0x1
 2775 0017 51       		.byte	0x51
 2776 0018 9F       		.byte	0x9f
 2777 0019 00000000 		.4byte	0
 2778 001d 00000000 		.4byte	0
 2779              	.LLST1:
 2780 0021 2C000000 		.4byte	.LVL2-.Ltext0
 2781 0025 8E000000 		.4byte	.LVL7-.Ltext0
 2782 0029 0100     		.2byte	0x1
 2783 002b 50       		.byte	0x50
 2784 002c 8E000000 		.4byte	.LVL7-.Ltext0
 2785 0030 BC020000 		.4byte	.LFE243-.Ltext0
ARM GAS  C:\Users\eric\AppData\Local\Temp\ccZFBEId.s 			page 50


 2786 0034 0400     		.2byte	0x4
 2787 0036 F3       		.byte	0xf3
 2788 0037 01       		.uleb128 0x1
 2789 0038 50       		.byte	0x50
 2790 0039 9F       		.byte	0x9f
 2791 003a 00000000 		.4byte	0
 2792 003e 00000000 		.4byte	0
 2793              	.LLST2:
 2794 0042 2C000000 		.4byte	.LVL2-.Ltext0
 2795 0046 80000000 		.4byte	.LVL6-.Ltext0
 2796 004a 0100     		.2byte	0x1
 2797 004c 51       		.byte	0x51
 2798 004d 80000000 		.4byte	.LVL6-.Ltext0
 2799 0051 74010000 		.4byte	.LVL31-.Ltext0
 2800 0055 0100     		.2byte	0x1
 2801 0057 55       		.byte	0x55
 2802 0058 74010000 		.4byte	.LVL31-.Ltext0
 2803 005c BC020000 		.4byte	.LFE243-.Ltext0
 2804 0060 0400     		.2byte	0x4
 2805 0062 F3       		.byte	0xf3
 2806 0063 01       		.uleb128 0x1
 2807 0064 51       		.byte	0x51
 2808 0065 9F       		.byte	0x9f
 2809 0066 00000000 		.4byte	0
 2810 006a 00000000 		.4byte	0
 2811              	.LLST3:
 2812 006e 2C000000 		.4byte	.LVL2-.Ltext0
 2813 0072 7E000000 		.4byte	.LVL5-.Ltext0
 2814 0076 0100     		.2byte	0x1
 2815 0078 52       		.byte	0x52
 2816 0079 7E000000 		.4byte	.LVL5-.Ltext0
 2817 007d BC020000 		.4byte	.LFE243-.Ltext0
 2818 0081 0400     		.2byte	0x4
 2819 0083 F3       		.byte	0xf3
 2820 0084 01       		.uleb128 0x1
 2821 0085 52       		.byte	0x52
 2822 0086 9F       		.byte	0x9f
 2823 0087 00000000 		.4byte	0
 2824 008b 00000000 		.4byte	0
 2825              	.LLST4:
 2826 008f 3A000000 		.4byte	.LVL3-.Ltext0
 2827 0093 7A000000 		.4byte	.LVL4-.Ltext0
 2828 0097 0100     		.2byte	0x1
 2829 0099 59       		.byte	0x59
 2830 009a 7A000000 		.4byte	.LVL4-.Ltext0
 2831 009e 96000000 		.4byte	.LVL9-.Ltext0
 2832 00a2 0500     		.2byte	0x5
 2833 00a4 03       		.byte	0x3
 2834 00a5 0C000000 		.4byte	_ZL7s_state+12
 2835 00a9 00000000 		.4byte	0
 2836 00ad 00000000 		.4byte	0
 2837              	.LLST5:
 2838 00b1 92000000 		.4byte	.LVL8-.Ltext0
 2839 00b5 92020000 		.4byte	.LVL55-.Ltext0
 2840 00b9 0200     		.2byte	0x2
 2841 00bb 90       		.byte	0x90
 2842 00bc 52       		.uleb128 0x52
ARM GAS  C:\Users\eric\AppData\Local\Temp\ccZFBEId.s 			page 51


 2843 00bd 92020000 		.4byte	.LVL55-.Ltext0
 2844 00c1 BC020000 		.4byte	.LFE243-.Ltext0
 2845 00c5 0500     		.2byte	0x5
 2846 00c7 03       		.byte	0x3
 2847 00c8 08000000 		.4byte	_ZL7s_state+8
 2848 00cc 00000000 		.4byte	0
 2849 00d0 00000000 		.4byte	0
 2850              	.LLST6:
 2851 00d4 92000000 		.4byte	.LVL8-.Ltext0
 2852 00d8 92020000 		.4byte	.LVL55-.Ltext0
 2853 00dc 0200     		.2byte	0x2
 2854 00de 90       		.byte	0x90
 2855 00df 50       		.uleb128 0x50
 2856 00e0 00000000 		.4byte	0
 2857 00e4 00000000 		.4byte	0
 2858              	.LLST7:
 2859 00e8 74010000 		.4byte	.LVL31-.Ltext0
 2860 00ec 86020000 		.4byte	.LVL53-.Ltext0
 2861 00f0 0100     		.2byte	0x1
 2862 00f2 55       		.byte	0x55
 2863 00f3 86020000 		.4byte	.LVL53-.Ltext0
 2864 00f7 88020000 		.4byte	.LVL54-.Ltext0
 2865 00fb 0300     		.2byte	0x3
 2866 00fd 75       		.byte	0x75
 2867 00fe 7C       		.sleb128 -4
 2868 00ff 9F       		.byte	0x9f
 2869 0100 88020000 		.4byte	.LVL54-.Ltext0
 2870 0104 96020000 		.4byte	.LVL56-.Ltext0
 2871 0108 0100     		.2byte	0x1
 2872 010a 55       		.byte	0x55
 2873 010b 00000000 		.4byte	0
 2874 010f 00000000 		.4byte	0
 2875              	.LLST8:
 2876 0113 92000000 		.4byte	.LVL8-.Ltext0
 2877 0117 96020000 		.4byte	.LVL56-.Ltext0
 2878 011b 0100     		.2byte	0x1
 2879 011d 59       		.byte	0x59
 2880 011e 96020000 		.4byte	.LVL56-.Ltext0
 2881 0122 BC020000 		.4byte	.LFE243-.Ltext0
 2882 0126 0A00     		.2byte	0xa
 2883 0128 F3       		.byte	0xf3
 2884 0129 01       		.uleb128 0x1
 2885 012a 52       		.byte	0x52
 2886 012b 32       		.byte	0x32
 2887 012c 24       		.byte	0x24
 2888 012d F3       		.byte	0xf3
 2889 012e 01       		.uleb128 0x1
 2890 012f 51       		.byte	0x51
 2891 0130 22       		.byte	0x22
 2892 0131 9F       		.byte	0x9f
 2893 0132 00000000 		.4byte	0
 2894 0136 00000000 		.4byte	0
 2895              	.LLST9:
 2896 013a 92000000 		.4byte	.LVL8-.Ltext0
 2897 013e 96000000 		.4byte	.LVL9-.Ltext0
 2898 0142 0100     		.2byte	0x1
 2899 0144 51       		.byte	0x51
ARM GAS  C:\Users\eric\AppData\Local\Temp\ccZFBEId.s 			page 52


 2900 0145 00000000 		.4byte	0
 2901 0149 00000000 		.4byte	0
 2902              	.LLST10:
 2903 014d 92000000 		.4byte	.LVL8-.Ltext0
 2904 0151 96000000 		.4byte	.LVL9-.Ltext0
 2905 0155 0100     		.2byte	0x1
 2906 0157 52       		.byte	0x52
 2907 0158 00000000 		.4byte	0
 2908 015c 00000000 		.4byte	0
 2909              	.LLST11:
 2910 0160 92000000 		.4byte	.LVL8-.Ltext0
 2911 0164 96020000 		.4byte	.LVL56-.Ltext0
 2912 0168 0100     		.2byte	0x1
 2913 016a 5B       		.byte	0x5b
 2914 016b 00000000 		.4byte	0
 2915 016f 00000000 		.4byte	0
 2916              	.LLST12:
 2917 0173 92000000 		.4byte	.LVL8-.Ltext0
 2918 0177 96020000 		.4byte	.LVL56-.Ltext0
 2919 017b 0100     		.2byte	0x1
 2920 017d 58       		.byte	0x58
 2921 017e 00000000 		.4byte	0
 2922 0182 00000000 		.4byte	0
 2923              	.LLST13:
 2924 0186 92000000 		.4byte	.LVL8-.Ltext0
 2925 018a 96000000 		.4byte	.LVL9-.Ltext0
 2926 018e 0200     		.2byte	0x2
 2927 0190 30       		.byte	0x30
 2928 0191 9F       		.byte	0x9f
 2929 0192 96000000 		.4byte	.LVL9-.Ltext0
 2930 0196 62010000 		.4byte	.LVL30-.Ltext0
 2931 019a 0100     		.2byte	0x1
 2932 019c 57       		.byte	0x57
 2933 019d 00000000 		.4byte	0
 2934 01a1 00000000 		.4byte	0
 2935              	.LLST14:
 2936 01a5 9E000000 		.4byte	.LVL10-.Ltext0
 2937 01a9 A2000000 		.4byte	.LVL11-.Ltext0
 2938 01ad 0E00     		.2byte	0xe
 2939 01af 72       		.byte	0x72
 2940 01b0 00       		.sleb128 0
 2941 01b1 08       		.byte	0x8
 2942 01b2 FF       		.byte	0xff
 2943 01b3 1A       		.byte	0x1a
 2944 01b4 77       		.byte	0x77
 2945 01b5 00       		.sleb128 0
 2946 01b6 7E       		.byte	0x7e
 2947 01b7 00       		.sleb128 0
 2948 01b8 1C       		.byte	0x1c
 2949 01b9 31       		.byte	0x31
 2950 01ba 26       		.byte	0x26
 2951 01bb 1E       		.byte	0x1e
 2952 01bc 9F       		.byte	0x9f
 2953 01bd A2000000 		.4byte	.LVL11-.Ltext0
 2954 01c1 49010000 		.4byte	.LVL26-1-.Ltext0
 2955 01c5 1100     		.2byte	0x11
 2956 01c7 72       		.byte	0x72
ARM GAS  C:\Users\eric\AppData\Local\Temp\ccZFBEId.s 			page 53


 2957 01c8 00       		.sleb128 0
 2958 01c9 08       		.byte	0x8
 2959 01ca FF       		.byte	0xff
 2960 01cb 1A       		.byte	0x1a
 2961 01cc 77       		.byte	0x77
 2962 01cd 00       		.sleb128 0
 2963 01ce 71       		.byte	0x71
 2964 01cf 00       		.sleb128 0
 2965 01d0 08       		.byte	0x8
 2966 01d1 FF       		.byte	0xff
 2967 01d2 1A       		.byte	0x1a
 2968 01d3 1C       		.byte	0x1c
 2969 01d4 31       		.byte	0x31
 2970 01d5 26       		.byte	0x26
 2971 01d6 1E       		.byte	0x1e
 2972 01d7 9F       		.byte	0x9f
 2973 01d8 52010000 		.4byte	.LVL27-.Ltext0
 2974 01dc 56010000 		.4byte	.LVL28-.Ltext0
 2975 01e0 1100     		.2byte	0x11
 2976 01e2 72       		.byte	0x72
 2977 01e3 00       		.sleb128 0
 2978 01e4 08       		.byte	0x8
 2979 01e5 FF       		.byte	0xff
 2980 01e6 1A       		.byte	0x1a
 2981 01e7 77       		.byte	0x77
 2982 01e8 00       		.sleb128 0
 2983 01e9 71       		.byte	0x71
 2984 01ea 00       		.sleb128 0
 2985 01eb 08       		.byte	0x8
 2986 01ec FF       		.byte	0xff
 2987 01ed 1A       		.byte	0x1a
 2988 01ee 1C       		.byte	0x1c
 2989 01ef 31       		.byte	0x31
 2990 01f0 26       		.byte	0x26
 2991 01f1 1E       		.byte	0x1e
 2992 01f2 9F       		.byte	0x9f
 2993 01f3 00000000 		.4byte	0
 2994 01f7 00000000 		.4byte	0
 2995              	.LLST15:
 2996 01fb F2000000 		.4byte	.LVL20-.Ltext0
 2997 01ff 0A010000 		.4byte	.LVL22-.Ltext0
 2998 0203 0100     		.2byte	0x1
 2999 0205 53       		.byte	0x53
 3000 0206 0A010000 		.4byte	.LVL22-.Ltext0
 3001 020a 0E010000 		.4byte	.LVL23-.Ltext0
 3002 020e 0200     		.2byte	0x2
 3003 0210 90       		.byte	0x90
 3004 0211 4F       		.uleb128 0x4f
 3005 0212 0E010000 		.4byte	.LVL23-.Ltext0
 3006 0216 2C010000 		.4byte	.LVL25-.Ltext0
 3007 021a FA00     		.2byte	0xfa
 3008 021c 77       		.byte	0x77
 3009 021d 00       		.sleb128 0
 3010 021e 71       		.byte	0x71
 3011 021f 00       		.sleb128 0
 3012 0220 08       		.byte	0x8
 3013 0221 FF       		.byte	0xff
ARM GAS  C:\Users\eric\AppData\Local\Temp\ccZFBEId.s 			page 54


 3014 0222 1A       		.byte	0x1a
 3015 0223 1C       		.byte	0x1c
 3016 0224 31       		.byte	0x31
 3017 0225 26       		.byte	0x26
 3018 0226 72       		.byte	0x72
 3019 0227 00       		.sleb128 0
 3020 0228 08       		.byte	0x8
 3021 0229 FF       		.byte	0xff
 3022 022a 1A       		.byte	0x1a
 3023 022b 1E       		.byte	0x1e
 3024 022c 78       		.byte	0x78
 3025 022d 00       		.sleb128 0
 3026 022e 22       		.byte	0x22
 3027 022f 08       		.byte	0x8
 3028 0230 FF       		.byte	0xff
 3029 0231 1B       		.byte	0x1b
 3030 0232 31       		.byte	0x31
 3031 0233 1C       		.byte	0x1c
 3032 0234 77       		.byte	0x77
 3033 0235 00       		.sleb128 0
 3034 0236 71       		.byte	0x71
 3035 0237 00       		.sleb128 0
 3036 0238 08       		.byte	0x8
 3037 0239 FF       		.byte	0xff
 3038 023a 1A       		.byte	0x1a
 3039 023b 1C       		.byte	0x1c
 3040 023c 31       		.byte	0x31
 3041 023d 26       		.byte	0x26
 3042 023e 72       		.byte	0x72
 3043 023f 00       		.sleb128 0
 3044 0240 08       		.byte	0x8
 3045 0241 FF       		.byte	0xff
 3046 0242 1A       		.byte	0x1a
 3047 0243 1E       		.byte	0x1e
 3048 0244 78       		.byte	0x78
 3049 0245 00       		.sleb128 0
 3050 0246 22       		.byte	0x22
 3051 0247 08       		.byte	0x8
 3052 0248 FF       		.byte	0xff
 3053 0249 1B       		.byte	0x1b
 3054 024a 77       		.byte	0x77
 3055 024b 00       		.sleb128 0
 3056 024c 71       		.byte	0x71
 3057 024d 00       		.sleb128 0
 3058 024e 08       		.byte	0x8
 3059 024f FF       		.byte	0xff
 3060 0250 1A       		.byte	0x1a
 3061 0251 1C       		.byte	0x1c
 3062 0252 31       		.byte	0x31
 3063 0253 26       		.byte	0x26
 3064 0254 72       		.byte	0x72
 3065 0255 00       		.sleb128 0
 3066 0256 08       		.byte	0x8
 3067 0257 FF       		.byte	0xff
 3068 0258 1A       		.byte	0x1a
 3069 0259 1E       		.byte	0x1e
 3070 025a 77       		.byte	0x77
ARM GAS  C:\Users\eric\AppData\Local\Temp\ccZFBEId.s 			page 55


 3071 025b 00       		.sleb128 0
 3072 025c 71       		.byte	0x71
 3073 025d 00       		.sleb128 0
 3074 025e 08       		.byte	0x8
 3075 025f FF       		.byte	0xff
 3076 0260 1A       		.byte	0x1a
 3077 0261 1C       		.byte	0x1c
 3078 0262 31       		.byte	0x31
 3079 0263 26       		.byte	0x26
 3080 0264 72       		.byte	0x72
 3081 0265 00       		.sleb128 0
 3082 0266 08       		.byte	0x8
 3083 0267 FF       		.byte	0xff
 3084 0268 1A       		.byte	0x1a
 3085 0269 1E       		.byte	0x1e
 3086 026a 78       		.byte	0x78
 3087 026b 00       		.sleb128 0
 3088 026c 22       		.byte	0x22
 3089 026d 08       		.byte	0x8
 3090 026e FF       		.byte	0xff
 3091 026f 1B       		.byte	0x1b
 3092 0270 08       		.byte	0x8
 3093 0271 FF       		.byte	0xff
 3094 0272 1E       		.byte	0x1e
 3095 0273 1C       		.byte	0x1c
 3096 0274 78       		.byte	0x78
 3097 0275 00       		.sleb128 0
 3098 0276 22       		.byte	0x22
 3099 0277 30       		.byte	0x30
 3100 0278 2D       		.byte	0x2d
 3101 0279 28       		.byte	0x28
 3102 027a 0100     		.2byte	0x1
 3103 027c 16       		.byte	0x16
 3104 027d 13       		.byte	0x13
 3105 027e 7B       		.byte	0x7b
 3106 027f 00       		.sleb128 0
 3107 0280 22       		.byte	0x22
 3108 0281 38       		.byte	0x38
 3109 0282 24       		.byte	0x24
 3110 0283 77       		.byte	0x77
 3111 0284 00       		.sleb128 0
 3112 0285 71       		.byte	0x71
 3113 0286 00       		.sleb128 0
 3114 0287 08       		.byte	0x8
 3115 0288 FF       		.byte	0xff
 3116 0289 1A       		.byte	0x1a
 3117 028a 1C       		.byte	0x1c
 3118 028b 31       		.byte	0x31
 3119 028c 26       		.byte	0x26
 3120 028d 72       		.byte	0x72
 3121 028e 00       		.sleb128 0
 3122 028f 08       		.byte	0x8
 3123 0290 FF       		.byte	0xff
 3124 0291 1A       		.byte	0x1a
 3125 0292 1E       		.byte	0x1e
 3126 0293 77       		.byte	0x77
 3127 0294 00       		.sleb128 0
ARM GAS  C:\Users\eric\AppData\Local\Temp\ccZFBEId.s 			page 56


 3128 0295 71       		.byte	0x71
 3129 0296 00       		.sleb128 0
 3130 0297 08       		.byte	0x8
 3131 0298 FF       		.byte	0xff
 3132 0299 1A       		.byte	0x1a
 3133 029a 1C       		.byte	0x1c
 3134 029b 31       		.byte	0x31
 3135 029c 26       		.byte	0x26
 3136 029d 72       		.byte	0x72
 3137 029e 00       		.sleb128 0
 3138 029f 08       		.byte	0x8
 3139 02a0 FF       		.byte	0xff
 3140 02a1 1A       		.byte	0x1a
 3141 02a2 1E       		.byte	0x1e
 3142 02a3 78       		.byte	0x78
 3143 02a4 00       		.sleb128 0
 3144 02a5 22       		.byte	0x22
 3145 02a6 08       		.byte	0x8
 3146 02a7 FF       		.byte	0xff
 3147 02a8 1B       		.byte	0x1b
 3148 02a9 08       		.byte	0x8
 3149 02aa FF       		.byte	0xff
 3150 02ab 1E       		.byte	0x1e
 3151 02ac 1C       		.byte	0x1c
 3152 02ad 78       		.byte	0x78
 3153 02ae 00       		.sleb128 0
 3154 02af 22       		.byte	0x22
 3155 02b0 23       		.byte	0x23
 3156 02b1 FF01     		.uleb128 0xff
 3157 02b3 77       		.byte	0x77
 3158 02b4 00       		.sleb128 0
 3159 02b5 71       		.byte	0x71
 3160 02b6 00       		.sleb128 0
 3161 02b7 08       		.byte	0x8
 3162 02b8 FF       		.byte	0xff
 3163 02b9 1A       		.byte	0x1a
 3164 02ba 1C       		.byte	0x1c
 3165 02bb 31       		.byte	0x31
 3166 02bc 26       		.byte	0x26
 3167 02bd 72       		.byte	0x72
 3168 02be 00       		.sleb128 0
 3169 02bf 08       		.byte	0x8
 3170 02c0 FF       		.byte	0xff
 3171 02c1 1A       		.byte	0x1a
 3172 02c2 1E       		.byte	0x1e
 3173 02c3 77       		.byte	0x77
 3174 02c4 00       		.sleb128 0
 3175 02c5 71       		.byte	0x71
 3176 02c6 00       		.sleb128 0
 3177 02c7 08       		.byte	0x8
 3178 02c8 FF       		.byte	0xff
 3179 02c9 1A       		.byte	0x1a
 3180 02ca 1C       		.byte	0x1c
 3181 02cb 31       		.byte	0x31
 3182 02cc 26       		.byte	0x26
 3183 02cd 72       		.byte	0x72
 3184 02ce 00       		.sleb128 0
ARM GAS  C:\Users\eric\AppData\Local\Temp\ccZFBEId.s 			page 57


 3185 02cf 08       		.byte	0x8
 3186 02d0 FF       		.byte	0xff
 3187 02d1 1A       		.byte	0x1a
 3188 02d2 1E       		.byte	0x1e
 3189 02d3 78       		.byte	0x78
 3190 02d4 00       		.sleb128 0
 3191 02d5 22       		.byte	0x22
 3192 02d6 08       		.byte	0x8
 3193 02d7 FF       		.byte	0xff
 3194 02d8 1B       		.byte	0x1b
 3195 02d9 08       		.byte	0x8
 3196 02da FF       		.byte	0xff
 3197 02db 1E       		.byte	0x1e
 3198 02dc 1C       		.byte	0x1c
 3199 02dd 78       		.byte	0x78
 3200 02de 00       		.sleb128 0
 3201 02df 22       		.byte	0x22
 3202 02e0 77       		.byte	0x77
 3203 02e1 00       		.sleb128 0
 3204 02e2 71       		.byte	0x71
 3205 02e3 00       		.sleb128 0
 3206 02e4 08       		.byte	0x8
 3207 02e5 FF       		.byte	0xff
 3208 02e6 1A       		.byte	0x1a
 3209 02e7 1C       		.byte	0x1c
 3210 02e8 31       		.byte	0x31
 3211 02e9 26       		.byte	0x26
 3212 02ea 72       		.byte	0x72
 3213 02eb 00       		.sleb128 0
 3214 02ec 08       		.byte	0x8
 3215 02ed FF       		.byte	0xff
 3216 02ee 1A       		.byte	0x1a
 3217 02ef 1E       		.byte	0x1e
 3218 02f0 77       		.byte	0x77
 3219 02f1 00       		.sleb128 0
 3220 02f2 71       		.byte	0x71
 3221 02f3 00       		.sleb128 0
 3222 02f4 08       		.byte	0x8
 3223 02f5 FF       		.byte	0xff
 3224 02f6 1A       		.byte	0x1a
 3225 02f7 1C       		.byte	0x1c
 3226 02f8 31       		.byte	0x31
 3227 02f9 26       		.byte	0x26
 3228 02fa 72       		.byte	0x72
 3229 02fb 00       		.sleb128 0
 3230 02fc 08       		.byte	0x8
 3231 02fd FF       		.byte	0xff
 3232 02fe 1A       		.byte	0x1a
 3233 02ff 1E       		.byte	0x1e
 3234 0300 78       		.byte	0x78
 3235 0301 00       		.sleb128 0
 3236 0302 22       		.byte	0x22
 3237 0303 08       		.byte	0x8
 3238 0304 FF       		.byte	0xff
 3239 0305 1B       		.byte	0x1b
 3240 0306 08       		.byte	0x8
 3241 0307 FF       		.byte	0xff
ARM GAS  C:\Users\eric\AppData\Local\Temp\ccZFBEId.s 			page 58


 3242 0308 1E       		.byte	0x1e
 3243 0309 1C       		.byte	0x1c
 3244 030a 78       		.byte	0x78
 3245 030b 00       		.sleb128 0
 3246 030c 22       		.byte	0x22
 3247 030d 30       		.byte	0x30
 3248 030e 2D       		.byte	0x2d
 3249 030f 28       		.byte	0x28
 3250 0310 0100     		.2byte	0x1
 3251 0312 16       		.byte	0x16
 3252 0313 13       		.byte	0x13
 3253 0314 21       		.byte	0x21
 3254 0315 9F       		.byte	0x9f
 3255 0316 00000000 		.4byte	0
 3256 031a 00000000 		.4byte	0
 3257              	.LLST16:
 3258 031e 04010000 		.4byte	.LVL21-.Ltext0
 3259 0322 0A010000 		.4byte	.LVL22-.Ltext0
 3260 0326 1200     		.2byte	0x12
 3261 0328 73       		.byte	0x73
 3262 0329 00       		.sleb128 0
 3263 032a 08       		.byte	0x8
 3264 032b FF       		.byte	0xff
 3265 032c 1A       		.byte	0x1a
 3266 032d F7       		.byte	0xf7
 3267 032e 2C       		.uleb128 0x2c
 3268 032f F7       		.byte	0xf7
 3269 0330 25       		.uleb128 0x25
 3270 0331 F4       		.byte	0xf4
 3271 0332 25       		.uleb128 0x25
 3272 0333 04       		.byte	0x4
 3273 0334 8180803B 		.4byte	0x3b808081
 3274 0338 1E       		.byte	0x1e
 3275 0339 9F       		.byte	0x9f
 3276 033a 0A010000 		.4byte	.LVL22-.Ltext0
 3277 033e 0E010000 		.4byte	.LVL23-.Ltext0
 3278 0342 1300     		.2byte	0x13
 3279 0344 92       		.byte	0x92
 3280 0345 4F       		.uleb128 0x4f
 3281 0346 00       		.sleb128 0
 3282 0347 08       		.byte	0x8
 3283 0348 FF       		.byte	0xff
 3284 0349 1A       		.byte	0x1a
 3285 034a F7       		.byte	0xf7
 3286 034b 2C       		.uleb128 0x2c
 3287 034c F7       		.byte	0xf7
 3288 034d 25       		.uleb128 0x25
 3289 034e F4       		.byte	0xf4
 3290 034f 25       		.uleb128 0x25
 3291 0350 04       		.byte	0x4
 3292 0351 8180803B 		.4byte	0x3b808081
 3293 0355 1E       		.byte	0x1e
 3294 0356 9F       		.byte	0x9f
 3295 0357 0E010000 		.4byte	.LVL23-.Ltext0
 3296 035b 1A010000 		.4byte	.LVL24-.Ltext0
 3297 035f 0901     		.2byte	0x109
 3298 0361 77       		.byte	0x77
ARM GAS  C:\Users\eric\AppData\Local\Temp\ccZFBEId.s 			page 59


 3299 0362 00       		.sleb128 0
 3300 0363 71       		.byte	0x71
 3301 0364 00       		.sleb128 0
 3302 0365 08       		.byte	0x8
 3303 0366 FF       		.byte	0xff
 3304 0367 1A       		.byte	0x1a
 3305 0368 1C       		.byte	0x1c
 3306 0369 31       		.byte	0x31
 3307 036a 26       		.byte	0x26
 3308 036b 72       		.byte	0x72
 3309 036c 00       		.sleb128 0
 3310 036d 08       		.byte	0x8
 3311 036e FF       		.byte	0xff
 3312 036f 1A       		.byte	0x1a
 3313 0370 1E       		.byte	0x1e
 3314 0371 78       		.byte	0x78
 3315 0372 00       		.sleb128 0
 3316 0373 22       		.byte	0x22
 3317 0374 08       		.byte	0x8
 3318 0375 FF       		.byte	0xff
 3319 0376 1B       		.byte	0x1b
 3320 0377 31       		.byte	0x31
 3321 0378 1C       		.byte	0x1c
 3322 0379 77       		.byte	0x77
 3323 037a 00       		.sleb128 0
 3324 037b 71       		.byte	0x71
 3325 037c 00       		.sleb128 0
 3326 037d 08       		.byte	0x8
 3327 037e FF       		.byte	0xff
 3328 037f 1A       		.byte	0x1a
 3329 0380 1C       		.byte	0x1c
 3330 0381 31       		.byte	0x31
 3331 0382 26       		.byte	0x26
 3332 0383 72       		.byte	0x72
 3333 0384 00       		.sleb128 0
 3334 0385 08       		.byte	0x8
 3335 0386 FF       		.byte	0xff
 3336 0387 1A       		.byte	0x1a
 3337 0388 1E       		.byte	0x1e
 3338 0389 78       		.byte	0x78
 3339 038a 00       		.sleb128 0
 3340 038b 22       		.byte	0x22
 3341 038c 08       		.byte	0x8
 3342 038d FF       		.byte	0xff
 3343 038e 1B       		.byte	0x1b
 3344 038f 77       		.byte	0x77
 3345 0390 00       		.sleb128 0
 3346 0391 71       		.byte	0x71
 3347 0392 00       		.sleb128 0
 3348 0393 08       		.byte	0x8
 3349 0394 FF       		.byte	0xff
 3350 0395 1A       		.byte	0x1a
 3351 0396 1C       		.byte	0x1c
 3352 0397 31       		.byte	0x31
 3353 0398 26       		.byte	0x26
 3354 0399 72       		.byte	0x72
 3355 039a 00       		.sleb128 0
ARM GAS  C:\Users\eric\AppData\Local\Temp\ccZFBEId.s 			page 60


 3356 039b 08       		.byte	0x8
 3357 039c FF       		.byte	0xff
 3358 039d 1A       		.byte	0x1a
 3359 039e 1E       		.byte	0x1e
 3360 039f 77       		.byte	0x77
 3361 03a0 00       		.sleb128 0
 3362 03a1 71       		.byte	0x71
 3363 03a2 00       		.sleb128 0
 3364 03a3 08       		.byte	0x8
 3365 03a4 FF       		.byte	0xff
 3366 03a5 1A       		.byte	0x1a
 3367 03a6 1C       		.byte	0x1c
 3368 03a7 31       		.byte	0x31
 3369 03a8 26       		.byte	0x26
 3370 03a9 72       		.byte	0x72
 3371 03aa 00       		.sleb128 0
 3372 03ab 08       		.byte	0x8
 3373 03ac FF       		.byte	0xff
 3374 03ad 1A       		.byte	0x1a
 3375 03ae 1E       		.byte	0x1e
 3376 03af 78       		.byte	0x78
 3377 03b0 00       		.sleb128 0
 3378 03b1 22       		.byte	0x22
 3379 03b2 08       		.byte	0x8
 3380 03b3 FF       		.byte	0xff
 3381 03b4 1B       		.byte	0x1b
 3382 03b5 08       		.byte	0x8
 3383 03b6 FF       		.byte	0xff
 3384 03b7 1E       		.byte	0x1e
 3385 03b8 1C       		.byte	0x1c
 3386 03b9 78       		.byte	0x78
 3387 03ba 00       		.sleb128 0
 3388 03bb 22       		.byte	0x22
 3389 03bc 30       		.byte	0x30
 3390 03bd 2D       		.byte	0x2d
 3391 03be 28       		.byte	0x28
 3392 03bf 0100     		.2byte	0x1
 3393 03c1 16       		.byte	0x16
 3394 03c2 13       		.byte	0x13
 3395 03c3 7B       		.byte	0x7b
 3396 03c4 00       		.sleb128 0
 3397 03c5 22       		.byte	0x22
 3398 03c6 38       		.byte	0x38
 3399 03c7 24       		.byte	0x24
 3400 03c8 77       		.byte	0x77
 3401 03c9 00       		.sleb128 0
 3402 03ca 71       		.byte	0x71
 3403 03cb 00       		.sleb128 0
 3404 03cc 08       		.byte	0x8
 3405 03cd FF       		.byte	0xff
 3406 03ce 1A       		.byte	0x1a
 3407 03cf 1C       		.byte	0x1c
 3408 03d0 31       		.byte	0x31
 3409 03d1 26       		.byte	0x26
 3410 03d2 72       		.byte	0x72
 3411 03d3 00       		.sleb128 0
 3412 03d4 08       		.byte	0x8
ARM GAS  C:\Users\eric\AppData\Local\Temp\ccZFBEId.s 			page 61


 3413 03d5 FF       		.byte	0xff
 3414 03d6 1A       		.byte	0x1a
 3415 03d7 1E       		.byte	0x1e
 3416 03d8 77       		.byte	0x77
 3417 03d9 00       		.sleb128 0
 3418 03da 71       		.byte	0x71
 3419 03db 00       		.sleb128 0
 3420 03dc 08       		.byte	0x8
 3421 03dd FF       		.byte	0xff
 3422 03de 1A       		.byte	0x1a
 3423 03df 1C       		.byte	0x1c
 3424 03e0 31       		.byte	0x31
 3425 03e1 26       		.byte	0x26
 3426 03e2 72       		.byte	0x72
 3427 03e3 00       		.sleb128 0
 3428 03e4 08       		.byte	0x8
 3429 03e5 FF       		.byte	0xff
 3430 03e6 1A       		.byte	0x1a
 3431 03e7 1E       		.byte	0x1e
 3432 03e8 78       		.byte	0x78
 3433 03e9 00       		.sleb128 0
 3434 03ea 22       		.byte	0x22
 3435 03eb 08       		.byte	0x8
 3436 03ec FF       		.byte	0xff
 3437 03ed 1B       		.byte	0x1b
 3438 03ee 08       		.byte	0x8
 3439 03ef FF       		.byte	0xff
 3440 03f0 1E       		.byte	0x1e
 3441 03f1 1C       		.byte	0x1c
 3442 03f2 78       		.byte	0x78
 3443 03f3 00       		.sleb128 0
 3444 03f4 22       		.byte	0x22
 3445 03f5 23       		.byte	0x23
 3446 03f6 FF01     		.uleb128 0xff
 3447 03f8 77       		.byte	0x77
 3448 03f9 00       		.sleb128 0
 3449 03fa 71       		.byte	0x71
 3450 03fb 00       		.sleb128 0
 3451 03fc 08       		.byte	0x8
 3452 03fd FF       		.byte	0xff
 3453 03fe 1A       		.byte	0x1a
 3454 03ff 1C       		.byte	0x1c
 3455 0400 31       		.byte	0x31
 3456 0401 26       		.byte	0x26
 3457 0402 72       		.byte	0x72
 3458 0403 00       		.sleb128 0
 3459 0404 08       		.byte	0x8
 3460 0405 FF       		.byte	0xff
 3461 0406 1A       		.byte	0x1a
 3462 0407 1E       		.byte	0x1e
 3463 0408 77       		.byte	0x77
 3464 0409 00       		.sleb128 0
 3465 040a 71       		.byte	0x71
 3466 040b 00       		.sleb128 0
 3467 040c 08       		.byte	0x8
 3468 040d FF       		.byte	0xff
 3469 040e 1A       		.byte	0x1a
ARM GAS  C:\Users\eric\AppData\Local\Temp\ccZFBEId.s 			page 62


 3470 040f 1C       		.byte	0x1c
 3471 0410 31       		.byte	0x31
 3472 0411 26       		.byte	0x26
 3473 0412 72       		.byte	0x72
 3474 0413 00       		.sleb128 0
 3475 0414 08       		.byte	0x8
 3476 0415 FF       		.byte	0xff
 3477 0416 1A       		.byte	0x1a
 3478 0417 1E       		.byte	0x1e
 3479 0418 78       		.byte	0x78
 3480 0419 00       		.sleb128 0
 3481 041a 22       		.byte	0x22
 3482 041b 08       		.byte	0x8
 3483 041c FF       		.byte	0xff
 3484 041d 1B       		.byte	0x1b
 3485 041e 08       		.byte	0x8
 3486 041f FF       		.byte	0xff
 3487 0420 1E       		.byte	0x1e
 3488 0421 1C       		.byte	0x1c
 3489 0422 78       		.byte	0x78
 3490 0423 00       		.sleb128 0
 3491 0424 22       		.byte	0x22
 3492 0425 77       		.byte	0x77
 3493 0426 00       		.sleb128 0
 3494 0427 71       		.byte	0x71
 3495 0428 00       		.sleb128 0
 3496 0429 08       		.byte	0x8
 3497 042a FF       		.byte	0xff
 3498 042b 1A       		.byte	0x1a
 3499 042c 1C       		.byte	0x1c
 3500 042d 31       		.byte	0x31
 3501 042e 26       		.byte	0x26
 3502 042f 72       		.byte	0x72
 3503 0430 00       		.sleb128 0
 3504 0431 08       		.byte	0x8
 3505 0432 FF       		.byte	0xff
 3506 0433 1A       		.byte	0x1a
 3507 0434 1E       		.byte	0x1e
 3508 0435 77       		.byte	0x77
 3509 0436 00       		.sleb128 0
 3510 0437 71       		.byte	0x71
 3511 0438 00       		.sleb128 0
 3512 0439 08       		.byte	0x8
 3513 043a FF       		.byte	0xff
 3514 043b 1A       		.byte	0x1a
 3515 043c 1C       		.byte	0x1c
 3516 043d 31       		.byte	0x31
 3517 043e 26       		.byte	0x26
 3518 043f 72       		.byte	0x72
 3519 0440 00       		.sleb128 0
 3520 0441 08       		.byte	0x8
 3521 0442 FF       		.byte	0xff
 3522 0443 1A       		.byte	0x1a
 3523 0444 1E       		.byte	0x1e
 3524 0445 78       		.byte	0x78
 3525 0446 00       		.sleb128 0
 3526 0447 22       		.byte	0x22
ARM GAS  C:\Users\eric\AppData\Local\Temp\ccZFBEId.s 			page 63


 3527 0448 08       		.byte	0x8
 3528 0449 FF       		.byte	0xff
 3529 044a 1B       		.byte	0x1b
 3530 044b 08       		.byte	0x8
 3531 044c FF       		.byte	0xff
 3532 044d 1E       		.byte	0x1e
 3533 044e 1C       		.byte	0x1c
 3534 044f 78       		.byte	0x78
 3535 0450 00       		.sleb128 0
 3536 0451 22       		.byte	0x22
 3537 0452 30       		.byte	0x30
 3538 0453 2D       		.byte	0x2d
 3539 0454 28       		.byte	0x28
 3540 0455 0100     		.2byte	0x1
 3541 0457 16       		.byte	0x16
 3542 0458 13       		.byte	0x13
 3543 0459 21       		.byte	0x21
 3544 045a 08       		.byte	0x8
 3545 045b FF       		.byte	0xff
 3546 045c 1A       		.byte	0x1a
 3547 045d F7       		.byte	0xf7
 3548 045e 2C       		.uleb128 0x2c
 3549 045f F7       		.byte	0xf7
 3550 0460 25       		.uleb128 0x25
 3551 0461 F4       		.byte	0xf4
 3552 0462 25       		.uleb128 0x25
 3553 0463 04       		.byte	0x4
 3554 0464 8180803B 		.4byte	0x3b808081
 3555 0468 1E       		.byte	0x1e
 3556 0469 9F       		.byte	0x9f
 3557 046a 00000000 		.4byte	0
 3558 046e 00000000 		.4byte	0
 3559              	.LLST17:
 3560 0472 1A010000 		.4byte	.LVL24-.Ltext0
 3561 0476 2C010000 		.4byte	.LVL25-.Ltext0
 3562 047a 0600     		.2byte	0x6
 3563 047c 9E       		.byte	0x9e
 3564 047d 04       		.uleb128 0x4
 3565 047e 49FFB846 		.4byte	0x46b8ff49
 3566 0482 00000000 		.4byte	0
 3567 0486 00000000 		.4byte	0
 3568              	.LLST20:
 3569 048a 1A010000 		.4byte	.LVL24-.Ltext0
 3570 048e 2C010000 		.4byte	.LVL25-.Ltext0
 3571 0492 0C00     		.2byte	0xc
 3572 0494 F5       		.byte	0xf5
 3573 0495 4E       		.uleb128 0x4e
 3574 0496 25       		.uleb128 0x25
 3575 0497 F4       		.byte	0xf4
 3576 0498 25       		.uleb128 0x25
 3577 0499 04       		.byte	0x4
 3578 049a 49FFB846 		.4byte	0x46b8ff49
 3579 049e 1C       		.byte	0x1c
 3580 049f 9F       		.byte	0x9f
 3581 04a0 00000000 		.4byte	0
 3582 04a4 00000000 		.4byte	0
 3583              	.LLST21:
ARM GAS  C:\Users\eric\AppData\Local\Temp\ccZFBEId.s 			page 64


 3584 04a8 9E000000 		.4byte	.LVL10-.Ltext0
 3585 04ac A2000000 		.4byte	.LVL11-.Ltext0
 3586 04b0 0E00     		.2byte	0xe
 3587 04b2 72       		.byte	0x72
 3588 04b3 00       		.sleb128 0
 3589 04b4 08       		.byte	0x8
 3590 04b5 FF       		.byte	0xff
 3591 04b6 1A       		.byte	0x1a
 3592 04b7 77       		.byte	0x77
 3593 04b8 00       		.sleb128 0
 3594 04b9 7E       		.byte	0x7e
 3595 04ba 00       		.sleb128 0
 3596 04bb 1C       		.byte	0x1c
 3597 04bc 31       		.byte	0x31
 3598 04bd 26       		.byte	0x26
 3599 04be 1E       		.byte	0x1e
 3600 04bf 9F       		.byte	0x9f
 3601 04c0 A2000000 		.4byte	.LVL11-.Ltext0
 3602 04c4 CE000000 		.4byte	.LVL19-.Ltext0
 3603 04c8 1100     		.2byte	0x11
 3604 04ca 72       		.byte	0x72
 3605 04cb 00       		.sleb128 0
 3606 04cc 08       		.byte	0x8
 3607 04cd FF       		.byte	0xff
 3608 04ce 1A       		.byte	0x1a
 3609 04cf 77       		.byte	0x77
 3610 04d0 00       		.sleb128 0
 3611 04d1 71       		.byte	0x71
 3612 04d2 00       		.sleb128 0
 3613 04d3 08       		.byte	0x8
 3614 04d4 FF       		.byte	0xff
 3615 04d5 1A       		.byte	0x1a
 3616 04d6 1C       		.byte	0x1c
 3617 04d7 31       		.byte	0x31
 3618 04d8 26       		.byte	0x26
 3619 04d9 1E       		.byte	0x1e
 3620 04da 9F       		.byte	0x9f
 3621 04db 00000000 		.4byte	0
 3622 04df 00000000 		.4byte	0
 3623              	.LLST22:
 3624 04e3 9E000000 		.4byte	.LVL10-.Ltext0
 3625 04e7 C8000000 		.4byte	.LVL17-.Ltext0
 3626 04eb 0100     		.2byte	0x1
 3627 04ed 58       		.byte	0x58
 3628 04ee C8000000 		.4byte	.LVL17-.Ltext0
 3629 04f2 CC000000 		.4byte	.LVL18-.Ltext0
 3630 04f6 0100     		.2byte	0x1
 3631 04f8 53       		.byte	0x53
 3632 04f9 00000000 		.4byte	0
 3633 04fd 00000000 		.4byte	0
 3634              	.LLST23:
 3635 0501 9E000000 		.4byte	.LVL10-.Ltext0
 3636 0505 C8000000 		.4byte	.LVL17-.Ltext0
 3637 0509 0200     		.2byte	0x2
 3638 050b 30       		.byte	0x30
 3639 050c 9F       		.byte	0x9f
 3640 050d C8000000 		.4byte	.LVL17-.Ltext0
ARM GAS  C:\Users\eric\AppData\Local\Temp\ccZFBEId.s 			page 65


 3641 0511 CE000000 		.4byte	.LVL19-.Ltext0
 3642 0515 0800     		.2byte	0x8
 3643 0517 7C       		.byte	0x7c
 3644 0518 00       		.sleb128 0
 3645 0519 08       		.byte	0x8
 3646 051a FF       		.byte	0xff
 3647 051b 1A       		.byte	0x1a
 3648 051c 38       		.byte	0x38
 3649 051d 24       		.byte	0x24
 3650 051e 9F       		.byte	0x9f
 3651 051f 00000000 		.4byte	0
 3652 0523 00000000 		.4byte	0
 3653              	.LLST24:
 3654 0527 B4000000 		.4byte	.LVL12-.Ltext0
 3655 052b C4000000 		.4byte	.LVL16-.Ltext0
 3656 052f 0100     		.2byte	0x1
 3657 0531 5C       		.byte	0x5c
 3658 0532 00000000 		.4byte	0
 3659 0536 00000000 		.4byte	0
 3660              	.LLST25:
 3661 053a B8000000 		.4byte	.LVL13-.Ltext0
 3662 053e BC000000 		.4byte	.LVL14-.Ltext0
 3663 0542 0600     		.2byte	0x6
 3664 0544 7E       		.byte	0x7e
 3665 0545 00       		.sleb128 0
 3666 0546 73       		.byte	0x73
 3667 0547 00       		.sleb128 0
 3668 0548 1C       		.byte	0x1c
 3669 0549 9F       		.byte	0x9f
 3670 054a BC000000 		.4byte	.LVL14-.Ltext0
 3671 054e CC000000 		.4byte	.LVL18-.Ltext0
 3672 0552 0100     		.2byte	0x1
 3673 0554 53       		.byte	0x53
 3674 0555 00000000 		.4byte	0
 3675 0559 00000000 		.4byte	0
 3676              	.LLST26:
 3677 055d 94010000 		.4byte	.LVL32-.Ltext0
 3678 0561 02020000 		.4byte	.LVL42-.Ltext0
 3679 0565 0200     		.2byte	0x2
 3680 0567 90       		.byte	0x90
 3681 0568 55       		.uleb128 0x55
 3682 0569 02020000 		.4byte	.LVL42-.Ltext0
 3683 056d 1C020000 		.4byte	.LVL43-.Ltext0
 3684 0571 0200     		.2byte	0x2
 3685 0573 90       		.byte	0x90
 3686 0574 40       		.uleb128 0x40
 3687 0575 1E020000 		.4byte	.LVL44-.Ltext0
 3688 0579 30020000 		.4byte	.LVL45-.Ltext0
 3689 057d 0200     		.2byte	0x2
 3690 057f 90       		.byte	0x90
 3691 0580 40       		.uleb128 0x40
 3692 0581 00000000 		.4byte	0
 3693 0585 00000000 		.4byte	0
 3694              	.LLST27:
 3695 0589 9C010000 		.4byte	.LVL33-.Ltext0
 3696 058d DC010000 		.4byte	.LVL38-.Ltext0
 3697 0591 0200     		.2byte	0x2
ARM GAS  C:\Users\eric\AppData\Local\Temp\ccZFBEId.s 			page 66


 3698 0593 90       		.byte	0x90
 3699 0594 4F       		.uleb128 0x4f
 3700 0595 DC010000 		.4byte	.LVL38-.Ltext0
 3701 0599 E0010000 		.4byte	.LVL39-.Ltext0
 3702 059d 0800     		.2byte	0x8
 3703 059f F5       		.byte	0xf5
 3704 05a0 4F       		.uleb128 0x4f
 3705 05a1 25       		.uleb128 0x25
 3706 05a2 F5       		.byte	0xf5
 3707 05a3 4E       		.uleb128 0x4e
 3708 05a4 25       		.uleb128 0x25
 3709 05a5 1C       		.byte	0x1c
 3710 05a6 9F       		.byte	0x9f
 3711 05a7 E0010000 		.4byte	.LVL39-.Ltext0
 3712 05ab E6010000 		.4byte	.LVL40-.Ltext0
 3713 05af 0200     		.2byte	0x2
 3714 05b1 90       		.byte	0x90
 3715 05b2 4F       		.uleb128 0x4f
 3716 05b3 00000000 		.4byte	0
 3717 05b7 00000000 		.4byte	0
 3718              	.LLST28:
 3719 05bb 9C010000 		.4byte	.LVL33-.Ltext0
 3720 05bf BC010000 		.4byte	.LVL35-.Ltext0
 3721 05c3 0200     		.2byte	0x2
 3722 05c5 90       		.byte	0x90
 3723 05c6 4F       		.uleb128 0x4f
 3724 05c7 00000000 		.4byte	0
 3725 05cb 00000000 		.4byte	0
 3726              	.LLST29:
 3727 05cf AC010000 		.4byte	.LVL34-.Ltext0
 3728 05d3 BC010000 		.4byte	.LVL35-.Ltext0
 3729 05d7 0200     		.2byte	0x2
 3730 05d9 90       		.byte	0x90
 3731 05da 49       		.uleb128 0x49
 3732 05db 00000000 		.4byte	0
 3733 05df 00000000 		.4byte	0
 3734              	.LLST30:
 3735 05e3 02020000 		.4byte	.LVL42-.Ltext0
 3736 05e7 30020000 		.4byte	.LVL45-.Ltext0
 3737 05eb 0200     		.2byte	0x2
 3738 05ed 90       		.byte	0x90
 3739 05ee 40       		.uleb128 0x40
 3740 05ef 00000000 		.4byte	0
 3741 05f3 00000000 		.4byte	0
 3742              	.LLST31:
 3743 05f7 4C020000 		.4byte	.LVL47-.Ltext0
 3744 05fb 64020000 		.4byte	.LVL49-.Ltext0
 3745 05ff 0200     		.2byte	0x2
 3746 0601 90       		.byte	0x90
 3747 0602 40       		.uleb128 0x40
 3748 0603 66020000 		.4byte	.LVL50-.Ltext0
 3749 0607 6A020000 		.4byte	.LVL51-.Ltext0
 3750 060b 0200     		.2byte	0x2
 3751 060d 90       		.byte	0x90
 3752 060e 40       		.uleb128 0x40
 3753 060f 00000000 		.4byte	0
 3754 0613 00000000 		.4byte	0
ARM GAS  C:\Users\eric\AppData\Local\Temp\ccZFBEId.s 			page 67


 3755              	.LLST32:
 3756 0617 4C020000 		.4byte	.LVL47-.Ltext0
 3757 061b 6A020000 		.4byte	.LVL51-.Ltext0
 3758 061f 0600     		.2byte	0x6
 3759 0621 9E       		.byte	0x9e
 3760 0622 04       		.uleb128 0x4
 3761 0623 CDCC4C3D 		.4byte	0x3d4ccccd
 3762 0627 00000000 		.4byte	0
 3763 062b 00000000 		.4byte	0
 3764              	.LLST34:
 3765 062f 4C020000 		.4byte	.LVL47-.Ltext0
 3766 0633 6A020000 		.4byte	.LVL51-.Ltext0
 3767 0637 0600     		.2byte	0x6
 3768 0639 9E       		.byte	0x9e
 3769 063a 04       		.uleb128 0x4
 3770 063b 0000803F 		.4byte	0x3f800000
 3771 063f 00000000 		.4byte	0
 3772 0643 00000000 		.4byte	0
 3773              	.LLST35:
 3774 0647 4C020000 		.4byte	.LVL47-.Ltext0
 3775 064b 56020000 		.4byte	.LVL48-.Ltext0
 3776 064f 0200     		.2byte	0x2
 3777 0651 90       		.byte	0x90
 3778 0652 40       		.uleb128 0x40
 3779 0653 66020000 		.4byte	.LVL50-.Ltext0
 3780 0657 6A020000 		.4byte	.LVL51-.Ltext0
 3781 065b 0200     		.2byte	0x2
 3782 065d 90       		.byte	0x90
 3783 065e 40       		.uleb128 0x40
 3784 065f 00000000 		.4byte	0
 3785 0663 00000000 		.4byte	0
 3786              	.LLST36:
 3787 0667 4C020000 		.4byte	.LVL47-.Ltext0
 3788 066b 6A020000 		.4byte	.LVL51-.Ltext0
 3789 066f 0600     		.2byte	0x6
 3790 0671 9E       		.byte	0x9e
 3791 0672 04       		.uleb128 0x4
 3792 0673 000080BF 		.4byte	0xbf800000
 3793 0677 00000000 		.4byte	0
 3794 067b 00000000 		.4byte	0
 3795              	.LLST37:
 3796 067f 4C020000 		.4byte	.LVL47-.Ltext0
 3797 0683 56020000 		.4byte	.LVL48-.Ltext0
 3798 0687 0600     		.2byte	0x6
 3799 0689 9E       		.byte	0x9e
 3800 068a 04       		.uleb128 0x4
 3801 068b 000080BF 		.4byte	0xbf800000
 3802 068f 66020000 		.4byte	.LVL50-.Ltext0
 3803 0693 6A020000 		.4byte	.LVL51-.Ltext0
 3804 0697 0600     		.2byte	0x6
 3805 0699 9E       		.byte	0x9e
 3806 069a 04       		.uleb128 0x4
 3807 069b 000080BF 		.4byte	0xbf800000
 3808 069f 00000000 		.4byte	0
 3809 06a3 00000000 		.4byte	0
 3810              	.LLST39:
 3811 06a7 4C020000 		.4byte	.LVL47-.Ltext0
ARM GAS  C:\Users\eric\AppData\Local\Temp\ccZFBEId.s 			page 68


 3812 06ab 56020000 		.4byte	.LVL48-.Ltext0
 3813 06af 0C00     		.2byte	0xc
 3814 06b1 F5       		.byte	0xf5
 3815 06b2 40       		.uleb128 0x40
 3816 06b3 25       		.uleb128 0x25
 3817 06b4 F4       		.byte	0xf4
 3818 06b5 25       		.uleb128 0x25
 3819 06b6 04       		.byte	0x4
 3820 06b7 0000803F 		.4byte	0x3f800000
 3821 06bb 22       		.byte	0x22
 3822 06bc 9F       		.byte	0x9f
 3823 06bd 66020000 		.4byte	.LVL50-.Ltext0
 3824 06c1 6A020000 		.4byte	.LVL51-.Ltext0
 3825 06c5 0C00     		.2byte	0xc
 3826 06c7 F5       		.byte	0xf5
 3827 06c8 40       		.uleb128 0x40
 3828 06c9 25       		.uleb128 0x25
 3829 06ca F4       		.byte	0xf4
 3830 06cb 25       		.uleb128 0x25
 3831 06cc 04       		.byte	0x4
 3832 06cd 0000803F 		.4byte	0x3f800000
 3833 06d1 22       		.byte	0x22
 3834 06d2 9F       		.byte	0x9f
 3835 06d3 00000000 		.4byte	0
 3836 06d7 00000000 		.4byte	0
 3837              	.LLST40:
 3838 06db CE020000 		.4byte	.LVL59-.Ltext0
 3839 06df E8020000 		.4byte	.LVL61-.Ltext0
 3840 06e3 0100     		.2byte	0x1
 3841 06e5 51       		.byte	0x51
 3842 06e6 E8020000 		.4byte	.LVL61-.Ltext0
 3843 06ea 02030000 		.4byte	.LVL63-.Ltext0
 3844 06ee 0400     		.2byte	0x4
 3845 06f0 F3       		.byte	0xf3
 3846 06f1 01       		.uleb128 0x1
 3847 06f2 51       		.byte	0x51
 3848 06f3 9F       		.byte	0x9f
 3849 06f4 02030000 		.4byte	.LVL63-.Ltext0
 3850 06f8 06030000 		.4byte	.LVL64-.Ltext0
 3851 06fc 0100     		.2byte	0x1
 3852 06fe 51       		.byte	0x51
 3853 06ff 06030000 		.4byte	.LVL64-.Ltext0
 3854 0703 0A030000 		.4byte	.LVL65-.Ltext0
 3855 0707 0400     		.2byte	0x4
 3856 0709 F3       		.byte	0xf3
 3857 070a 01       		.uleb128 0x1
 3858 070b 51       		.byte	0x51
 3859 070c 9F       		.byte	0x9f
 3860 070d 0A030000 		.4byte	.LVL65-.Ltext0
 3861 0711 68030000 		.4byte	.LFE246-.Ltext0
 3862 0715 0100     		.2byte	0x1
 3863 0717 51       		.byte	0x51
 3864 0718 00000000 		.4byte	0
 3865 071c 00000000 		.4byte	0
 3866              	.LLST41:
 3867 0720 D6020000 		.4byte	.LVL60-.Ltext0
 3868 0724 EC020000 		.4byte	.LVL62-.Ltext0
ARM GAS  C:\Users\eric\AppData\Local\Temp\ccZFBEId.s 			page 69


 3869 0728 0C00     		.2byte	0xc
 3870 072a F5       		.byte	0xf5
 3871 072b 4F       		.uleb128 0x4f
 3872 072c 25       		.uleb128 0x25
 3873 072d F4       		.byte	0xf4
 3874 072e 25       		.uleb128 0x25
 3875 072f 04       		.byte	0x4
 3876 0730 0820803A 		.4byte	0x3a802008
 3877 0734 1E       		.byte	0x1e
 3878 0735 9F       		.byte	0x9f
 3879 0736 EC020000 		.4byte	.LVL62-.Ltext0
 3880 073a 02030000 		.4byte	.LVL63-.Ltext0
 3881 073e 0F00     		.2byte	0xf
 3882 0740 71       		.byte	0x71
 3883 0741 7F       		.sleb128 -1
 3884 0742 F7       		.byte	0xf7
 3885 0743 2C       		.uleb128 0x2c
 3886 0744 F7       		.byte	0xf7
 3887 0745 25       		.uleb128 0x25
 3888 0746 F4       		.byte	0xf4
 3889 0747 25       		.uleb128 0x25
 3890 0748 04       		.byte	0x4
 3891 0749 0820803A 		.4byte	0x3a802008
 3892 074d 1E       		.byte	0x1e
 3893 074e 9F       		.byte	0x9f
 3894 074f 02030000 		.4byte	.LVL63-.Ltext0
 3895 0753 30030000 		.4byte	.LVL66-.Ltext0
 3896 0757 0C00     		.2byte	0xc
 3897 0759 F5       		.byte	0xf5
 3898 075a 4F       		.uleb128 0x4f
 3899 075b 25       		.uleb128 0x25
 3900 075c F4       		.byte	0xf4
 3901 075d 25       		.uleb128 0x25
 3902 075e 04       		.byte	0x4
 3903 075f 0820803A 		.4byte	0x3a802008
 3904 0763 1E       		.byte	0x1e
 3905 0764 9F       		.byte	0x9f
 3906 0765 30030000 		.4byte	.LVL66-.Ltext0
 3907 0769 4A030000 		.4byte	.LVL67-.Ltext0
 3908 076d 0F00     		.2byte	0xf
 3909 076f 71       		.byte	0x71
 3910 0770 00       		.sleb128 0
 3911 0771 F7       		.byte	0xf7
 3912 0772 2C       		.uleb128 0x2c
 3913 0773 F7       		.byte	0xf7
 3914 0774 25       		.uleb128 0x25
 3915 0775 F4       		.byte	0xf4
 3916 0776 25       		.uleb128 0x25
 3917 0777 04       		.byte	0x4
 3918 0778 0820803A 		.4byte	0x3a802008
 3919 077c 1E       		.byte	0x1e
 3920 077d 9F       		.byte	0x9f
 3921 077e 4A030000 		.4byte	.LVL67-.Ltext0
 3922 0782 54030000 		.4byte	.LVL68-.Ltext0
 3923 0786 0C00     		.2byte	0xc
 3924 0788 F5       		.byte	0xf5
 3925 0789 4F       		.uleb128 0x4f
ARM GAS  C:\Users\eric\AppData\Local\Temp\ccZFBEId.s 			page 70


 3926 078a 25       		.uleb128 0x25
 3927 078b F4       		.byte	0xf4
 3928 078c 25       		.uleb128 0x25
 3929 078d 04       		.byte	0x4
 3930 078e 0820803A 		.4byte	0x3a802008
 3931 0792 1E       		.byte	0x1e
 3932 0793 9F       		.byte	0x9f
 3933 0794 54030000 		.4byte	.LVL68-.Ltext0
 3934 0798 68030000 		.4byte	.LFE246-.Ltext0
 3935 079c 0F00     		.2byte	0xf
 3936 079e 71       		.byte	0x71
 3937 079f 00       		.sleb128 0
 3938 07a0 F7       		.byte	0xf7
 3939 07a1 2C       		.uleb128 0x2c
 3940 07a2 F7       		.byte	0xf7
 3941 07a3 25       		.uleb128 0x25
 3942 07a4 F4       		.byte	0xf4
 3943 07a5 25       		.uleb128 0x25
 3944 07a6 04       		.byte	0x4
 3945 07a7 0820803A 		.4byte	0x3a802008
 3946 07ab 1E       		.byte	0x1e
 3947 07ac 9F       		.byte	0x9f
 3948 07ad 00000000 		.4byte	0
 3949 07b1 00000000 		.4byte	0
 3950              		.section	.debug_aranges,"",%progbits
 3951 0000 1C000000 		.4byte	0x1c
 3952 0004 0200     		.2byte	0x2
 3953 0006 00000000 		.4byte	.Ldebug_info0
 3954 000a 04       		.byte	0x4
 3955 000b 00       		.byte	0
 3956 000c 0000     		.2byte	0
 3957 000e 0000     		.2byte	0
 3958 0010 00000000 		.4byte	.Ltext0
 3959 0014 68030000 		.4byte	.Letext0-.Ltext0
 3960 0018 00000000 		.4byte	0
 3961 001c 00000000 		.4byte	0
 3962              		.section	.debug_ranges,"",%progbits
 3963              	.Ldebug_ranges0:
 3964 0000 3E000000 		.4byte	.LBB85-.Ltext0
 3965 0004 42000000 		.4byte	.LBE85-.Ltext0
 3966 0008 92000000 		.4byte	.LBB128-.Ltext0
 3967 000c 9A000000 		.4byte	.LBE128-.Ltext0
 3968 0010 9E000000 		.4byte	.LBB129-.Ltext0
 3969 0014 5A010000 		.4byte	.LBE129-.Ltext0
 3970 0018 00000000 		.4byte	0
 3971 001c 00000000 		.4byte	0
 3972 0020 3E000000 		.4byte	.LBB86-.Ltext0
 3973 0024 42000000 		.4byte	.LBE86-.Ltext0
 3974 0028 92000000 		.4byte	.LBB119-.Ltext0
 3975 002c 9A000000 		.4byte	.LBE119-.Ltext0
 3976 0030 D2000000 		.4byte	.LBB122-.Ltext0
 3977 0034 E2000000 		.4byte	.LBE122-.Ltext0
 3978 0038 E4000000 		.4byte	.LBB123-.Ltext0
 3979 003c EE000000 		.4byte	.LBE123-.Ltext0
 3980 0040 F2000000 		.4byte	.LBB124-.Ltext0
 3981 0044 08010000 		.4byte	.LBE124-.Ltext0
 3982 0048 0A010000 		.4byte	.LBB125-.Ltext0
ARM GAS  C:\Users\eric\AppData\Local\Temp\ccZFBEId.s 			page 71


 3983 004c 2C010000 		.4byte	.LBE125-.Ltext0
 3984 0050 00000000 		.4byte	0
 3985 0054 00000000 		.4byte	0
 3986 0058 3E000000 		.4byte	.LBB88-.Ltext0
 3987 005c 42000000 		.4byte	.LBE88-.Ltext0
 3988 0060 D2000000 		.4byte	.LBB98-.Ltext0
 3989 0064 DA000000 		.4byte	.LBE98-.Ltext0
 3990 0068 E4000000 		.4byte	.LBB99-.Ltext0
 3991 006c EA000000 		.4byte	.LBE99-.Ltext0
 3992 0070 F8000000 		.4byte	.LBB105-.Ltext0
 3993 0074 FC000000 		.4byte	.LBE105-.Ltext0
 3994 0078 00010000 		.4byte	.LBB107-.Ltext0
 3995 007c 04010000 		.4byte	.LBE107-.Ltext0
 3996 0080 00000000 		.4byte	0
 3997 0084 00000000 		.4byte	0
 3998 0088 92000000 		.4byte	.LBB94-.Ltext0
 3999 008c 9A000000 		.4byte	.LBE94-.Ltext0
 4000 0090 04010000 		.4byte	.LBB108-.Ltext0
 4001 0094 08010000 		.4byte	.LBE108-.Ltext0
 4002 0098 0A010000 		.4byte	.LBB109-.Ltext0
 4003 009c 1A010000 		.4byte	.LBE109-.Ltext0
 4004 00a0 00000000 		.4byte	0
 4005 00a4 00000000 		.4byte	0
 4006 00a8 EA000000 		.4byte	.LBB100-.Ltext0
 4007 00ac EE000000 		.4byte	.LBE100-.Ltext0
 4008 00b0 F2000000 		.4byte	.LBB104-.Ltext0
 4009 00b4 F8000000 		.4byte	.LBE104-.Ltext0
 4010 00b8 FC000000 		.4byte	.LBB106-.Ltext0
 4011 00bc 00010000 		.4byte	.LBE106-.Ltext0
 4012 00c0 00000000 		.4byte	0
 4013 00c4 00000000 		.4byte	0
 4014 00c8 72010000 		.4byte	.LBB133-.Ltext0
 4015 00cc 74010000 		.4byte	.LBE133-.Ltext0
 4016 00d0 7A010000 		.4byte	.LBB161-.Ltext0
 4017 00d4 86020000 		.4byte	.LBE161-.Ltext0
 4018 00d8 00000000 		.4byte	0
 4019 00dc 00000000 		.4byte	0
 4020 00e0 7A010000 		.4byte	.LBB135-.Ltext0
 4021 00e4 94010000 		.4byte	.LBE135-.Ltext0
 4022 00e8 98010000 		.4byte	.LBB142-.Ltext0
 4023 00ec E4010000 		.4byte	.LBE142-.Ltext0
 4024 00f0 00000000 		.4byte	0
 4025 00f4 00000000 		.4byte	0
 4026 00f8 7A010000 		.4byte	.LBB136-.Ltext0
 4027 00fc 7E010000 		.4byte	.LBE136-.Ltext0
 4028 0100 8C010000 		.4byte	.LBB140-.Ltext0
 4029 0104 94010000 		.4byte	.LBE140-.Ltext0
 4030 0108 9C010000 		.4byte	.LBB141-.Ltext0
 4031 010c BC010000 		.4byte	.LBE141-.Ltext0
 4032 0110 00000000 		.4byte	0
 4033 0114 00000000 		.4byte	0
 4034 0118 F2010000 		.4byte	.LBB145-.Ltext0
 4035 011c F6010000 		.4byte	.LBE145-.Ltext0
 4036 0120 02020000 		.4byte	.LBB148-.Ltext0
 4037 0124 3C020000 		.4byte	.LBE148-.Ltext0
 4038 0128 00000000 		.4byte	0
 4039 012c 00000000 		.4byte	0
ARM GAS  C:\Users\eric\AppData\Local\Temp\ccZFBEId.s 			page 72


 4040 0130 44020000 		.4byte	.LBB149-.Ltext0
 4041 0134 48020000 		.4byte	.LBE149-.Ltext0
 4042 0138 4C020000 		.4byte	.LBB160-.Ltext0
 4043 013c 6A020000 		.4byte	.LBE160-.Ltext0
 4044 0140 00000000 		.4byte	0
 4045 0144 00000000 		.4byte	0
 4046 0148 44020000 		.4byte	.LBB151-.Ltext0
 4047 014c 48020000 		.4byte	.LBE151-.Ltext0
 4048 0150 4C020000 		.4byte	.LBB158-.Ltext0
 4049 0154 6A020000 		.4byte	.LBE158-.Ltext0
 4050 0158 00000000 		.4byte	0
 4051 015c 00000000 		.4byte	0
 4052 0160 44020000 		.4byte	.LBB152-.Ltext0
 4053 0164 48020000 		.4byte	.LBE152-.Ltext0
 4054 0168 4C020000 		.4byte	.LBB157-.Ltext0
 4055 016c 6A020000 		.4byte	.LBE157-.Ltext0
 4056 0170 00000000 		.4byte	0
 4057 0174 00000000 		.4byte	0
 4058 0178 44020000 		.4byte	.LBB153-.Ltext0
 4059 017c 48020000 		.4byte	.LBE153-.Ltext0
 4060 0180 4C020000 		.4byte	.LBB156-.Ltext0
 4061 0184 6A020000 		.4byte	.LBE156-.Ltext0
 4062 0188 00000000 		.4byte	0
 4063 018c 00000000 		.4byte	0
 4064              		.section	.debug_line,"",%progbits
 4065              	.Ldebug_line0:
 4066 0000 E6020000 		.section	.debug_str,"MS",%progbits,1
 4066      02007F01 
 4066      00000201 
 4066      FB0E0D00 
 4066      01010101 
 4067              	.LASF85:
 4068 0000 70617261 		.ascii	"params\000"
 4068      6D7300
 4069              	.LASF93:
 4070 0007 5F686F6F 		.ascii	"_hook_param\000"
 4070      6B5F7061 
 4070      72616D00 
 4071              	.LASF103:
 4072 0013 77745F70 		.ascii	"wt_par_lut_f\000"
 4072      61725F6C 
 4072      75745F66 
 4072      00
 4073              	.LASF62:
 4074 0020 70686173 		.ascii	"phase\000"
 4074      6500
 4075              	.LASF52:
 4076 0026 766F6963 		.ascii	"voices\000"
 4076      657300
 4077              	.LASF51:
 4078 002d 666C6167 		.ascii	"flags\000"
 4078      7300
 4079              	.LASF90:
 4080 0033 746F7461 		.ascii	"totalSig\000"
 4080      6C536967 
 4080      00
 4081              	.LASF113:
ARM GAS  C:\Users\eric\AppData\Local\Temp\ccZFBEId.s 			page 73


 4082 003c 474E5520 		.ascii	"GNU C++11 5.4.1 20160919 (release) [ARM/embedded-5-"
 4082      432B2B31 
 4082      3120352E 
 4082      342E3120 
 4082      32303136 
 4083 006f 6272616E 		.ascii	"branch revision 240496] -mcpu=cortex-m4 -mthumb -mn"
 4083      63682072 
 4083      65766973 
 4083      696F6E20 
 4083      32343034 
 4084 00a2 6F2D7468 		.ascii	"o-thumb-interwork -mlittle-endian -mfloat-abi=hard "
 4084      756D622D 
 4084      696E7465 
 4084      72776F72 
 4084      6B202D6D 
 4085 00d5 2D6D6670 		.ascii	"-mfpu=fpv4-sp-d16 -g -Os -std=c++11 -fsingle-precis"
 4085      753D6670 
 4085      76342D73 
 4085      702D6431 
 4085      36202D67 
 4086 0108 696F6E2D 		.ascii	"ion-constant -fcheck-new -fno-rtti -fno-exceptions "
 4086      636F6E73 
 4086      74616E74 
 4086      202D6663 
 4086      6865636B 
 4087 013b 2D666E6F 		.ascii	"-fno-non-call-exceptions\000"
 4087      2D6E6F6E 
 4087      2D63616C 
 4087      6C2D6578 
 4087      63657074 
 4088              	.LASF14:
 4089 0154 756E7369 		.ascii	"unsigned int\000"
 4089      676E6564 
 4089      20696E74 
 4089      00
 4090              	.LASF109:
 4091 0161 62697472 		.ascii	"bitres_lut_f\000"
 4091      65735F6C 
 4091      75745F66 
 4091      00
 4092              	.LASF8:
 4093 016e 5F5F696E 		.ascii	"__int32_t\000"
 4093      7433325F 
 4093      7400
 4094              	.LASF82:
 4095 0178 706C6174 		.ascii	"platform\000"
 4095      666F726D 
 4095      00
 4096              	.LASF111:
 4097 0181 6D617856 		.ascii	"maxVoice\000"
 4097      6F696365 
 4097      00
 4098              	.LASF32:
 4099 018a 70697463 		.ascii	"pitch\000"
 4099      6800
 4100              	.LASF46:
 4101 0190 75736572 		.ascii	"user_osc_param_id_t\000"
ARM GAS  C:\Users\eric\AppData\Local\Temp\ccZFBEId.s 			page 74


 4101      5F6F7363 
 4101      5F706172 
 4101      616D5F69 
 4101      645F7400 
 4102              	.LASF48:
 4103 01a4 53746174 		.ascii	"State\000"
 4103      6500
 4104              	.LASF37:
 4105 01aa 6B5F7573 		.ascii	"k_user_osc_param_id1\000"
 4105      65725F6F 
 4105      73635F70 
 4105      6172616D 
 4105      5F696431 
 4106              	.LASF38:
 4107 01bf 6B5F7573 		.ascii	"k_user_osc_param_id2\000"
 4107      65725F6F 
 4107      73635F70 
 4107      6172616D 
 4107      5F696432 
 4108              	.LASF39:
 4109 01d4 6B5F7573 		.ascii	"k_user_osc_param_id3\000"
 4109      65725F6F 
 4109      73635F70 
 4109      6172616D 
 4109      5F696433 
 4110              	.LASF40:
 4111 01e9 6B5F7573 		.ascii	"k_user_osc_param_id4\000"
 4111      65725F6F 
 4111      73635F70 
 4111      6172616D 
 4111      5F696434 
 4112              	.LASF41:
 4113 01fe 6B5F7573 		.ascii	"k_user_osc_param_id5\000"
 4113      65725F6F 
 4113      73635F70 
 4113      6172616D 
 4113      5F696435 
 4114              	.LASF42:
 4115 0213 6B5F7573 		.ascii	"k_user_osc_param_id6\000"
 4115      65725F6F 
 4115      73635F70 
 4115      6172616D 
 4115      5F696436 
 4116              	.LASF110:
 4117 0228 735F7374 		.ascii	"s_state\000"
 4117      61746500 
 4118              	.LASF115:
 4119 0230 433A5C55 		.ascii	"C:\\Users\\eric\\logue-sdk\\platform\\prologue\\sup"
 4119      73657273 
 4119      5C657269 
 4119      635C6C6F 
 4119      6775652D 
 4120 025d 65727361 		.ascii	"ersaw\000"
 4120      7700
 4121              	.LASF45:
 4122 0263 6B5F6E75 		.ascii	"k_num_user_osc_param_id\000"
 4122      6D5F7573 
ARM GAS  C:\Users\eric\AppData\Local\Temp\ccZFBEId.s 			page 75


 4122      65725F6F 
 4122      73635F70 
 4122      6172616D 
 4123              	.LASF84:
 4124 027b 5F686F6F 		.ascii	"_hook_cycle\000"
 4124      6B5F6379 
 4124      636C6500 
 4125              	.LASF105:
 4126 0287 74616E70 		.ascii	"tanpi_lut_f\000"
 4126      695F6C75 
 4126      745F6600 
 4127              	.LASF80:
 4128 0293 6F73635F 		.ascii	"osc_softclipf\000"
 4128      736F6674 
 4128      636C6970 
 4128      6600
 4129              	.LASF67:
 4130 02a1 636C616D 		.ascii	"clampfsel\000"
 4130      70667365 
 4130      6C00
 4131              	.LASF19:
 4132 02ab 75696E74 		.ascii	"uint32_t\000"
 4132      33325F74 
 4132      00
 4133              	.LASF15:
 4134 02b4 696E7438 		.ascii	"int8_t\000"
 4134      5F7400
 4135              	.LASF96:
 4136 02bb 76616C66 		.ascii	"valf\000"
 4136      00
 4137              	.LASF99:
 4138 02c0 6D696469 		.ascii	"midi_to_hz_lut_f\000"
 4138      5F746F5F 
 4138      687A5F6C 
 4138      75745F66 
 4138      00
 4139              	.LASF0:
 4140 02d1 666C6F61 		.ascii	"float\000"
 4140      7400
 4141              	.LASF94:
 4142 02d7 696E6465 		.ascii	"index\000"
 4142      7800
 4143              	.LASF27:
 4144 02dd 6B5F7573 		.ascii	"k_user_module_delfx\000"
 4144      65725F6D 
 4144      6F64756C 
 4144      655F6465 
 4144      6C667800 
 4145              	.LASF13:
 4146 02f1 6C6F6E67 		.ascii	"long long unsigned int\000"
 4146      206C6F6E 
 4146      6720756E 
 4146      7369676E 
 4146      65642069 
 4147              	.LASF118:
 4148 0308 6F73635F 		.ascii	"osc_white\000"
 4148      77686974 
ARM GAS  C:\Users\eric\AppData\Local\Temp\ccZFBEId.s 			page 76


 4148      6500
 4149              	.LASF6:
 4150 0312 5F5F7569 		.ascii	"__uint16_t\000"
 4150      6E743136 
 4150      5F7400
 4151              	.LASF91:
 4152 031d 5F686F6F 		.ascii	"_hook_on\000"
 4152      6B5F6F6E 
 4152      00
 4153              	.LASF47:
 4154 0326 75736572 		.ascii	"user_osc_param\000"
 4154      5F6F7363 
 4154      5F706172 
 4154      616D00
 4155              	.LASF95:
 4156 0335 76616C75 		.ascii	"value\000"
 4156      6500
 4157              	.LASF75:
 4158 033b 61646A75 		.ascii	"adjustPitch\000"
 4158      73745069 
 4158      74636800 
 4159              	.LASF28:
 4160 0347 6B5F7573 		.ascii	"k_user_module_revfx\000"
 4160      65725F6D 
 4160      6F64756C 
 4160      655F7265 
 4160      76667800 
 4161              	.LASF77:
 4162 035b 70697463 		.ascii	"pitchChange\000"
 4162      68436861 
 4162      6E676500 
 4163              	.LASF88:
 4164 0367 66696E65 		.ascii	"fineAdj\000"
 4164      41646A00 
 4165              	.LASF49:
 4166 036f 64726976 		.ascii	"drive\000"
 4166      6500
 4167              	.LASF61:
 4168 0375 696E7374 		.ascii	"instance\000"
 4168      616E6365 
 4168      00
 4169              	.LASF33:
 4170 037e 6375746F 		.ascii	"cutoff\000"
 4170      666600
 4171              	.LASF22:
 4172 0385 63686172 		.ascii	"char\000"
 4172      00
 4173              	.LASF78:
 4174 038a 61646A75 		.ascii	"adjustedMod\000"
 4174      73746564 
 4174      4D6F6400 
 4175              	.LASF63:
 4176 0396 6B5F666C 		.ascii	"k_flags_none\000"
 4176      6167735F 
 4176      6E6F6E65 
 4176      00
 4177              	.LASF92:
ARM GAS  C:\Users\eric\AppData\Local\Temp\ccZFBEId.s 			page 77


 4178 03a3 5F686F6F 		.ascii	"_hook_off\000"
 4178      6B5F6F66 
 4178      6600
 4179              	.LASF86:
 4180 03ad 6672616D 		.ascii	"frames\000"
 4180      657300
 4181              	.LASF108:
 4182 03b4 73636865 		.ascii	"schetzen_lut_f\000"
 4182      747A656E 
 4182      5F6C7574 
 4182      5F6600
 4183              	.LASF16:
 4184 03c3 75696E74 		.ascii	"uint8_t\000"
 4184      385F7400 
 4185              	.LASF71:
 4186 03cb 6F73635F 		.ascii	"osc_notehzf\000"
 4186      6E6F7465 
 4186      687A6600 
 4187              	.LASF81:
 4188 03d7 636F6D70 		.ascii	"compress\000"
 4188      72657373 
 4188      00
 4189              	.LASF104:
 4190 03e0 6C6F675F 		.ascii	"log_lut_f\000"
 4190      6C75745F 
 4190      6600
 4191              	.LASF79:
 4192 03ea 67656E65 		.ascii	"generate\000"
 4192      72617465 
 4192      00
 4193              	.LASF69:
 4194 03f3 636C6970 		.ascii	"clipmaxf\000"
 4194      6D617866 
 4194      00
 4195              	.LASF12:
 4196 03fc 6C6F6E67 		.ascii	"long long int\000"
 4196      206C6F6E 
 4196      6720696E 
 4196      7400
 4197              	.LASF64:
 4198 040a 6B5F666C 		.ascii	"k_flag_reset\000"
 4198      61675F72 
 4198      65736574 
 4198      00
 4199              	.LASF87:
 4200 0417 6C666F5F 		.ascii	"lfo_inc\000"
 4200      696E6300 
 4201              	.LASF54:
 4202 041f 64657475 		.ascii	"detune\000"
 4202      6E6500
 4203              	.LASF34:
 4204 0426 7265736F 		.ascii	"resonance\000"
 4204      6E616E63 
 4204      6500
 4205              	.LASF30:
 4206 0430 6B5F6E75 		.ascii	"k_num_user_modules\000"
 4206      6D5F7573 
ARM GAS  C:\Users\eric\AppData\Local\Temp\ccZFBEId.s 			page 78


 4206      65725F6D 
 4206      6F64756C 
 4206      657300
 4207              	.LASF68:
 4208 0443 636C6970 		.ascii	"clipmaxu32\000"
 4208      6D617875 
 4208      333200
 4209              	.LASF76:
 4210 044e 66696E65 		.ascii	"fineAdjust\000"
 4210      41646A75 
 4210      737400
 4211              	.LASF53:
 4212 0459 766F6963 		.ascii	"voiceLevel\000"
 4212      654C6576 
 4212      656C00
 4213              	.LASF58:
 4214 0464 636F6D70 		.ascii	"compThreshold\000"
 4214      54687265 
 4214      73686F6C 
 4214      6400
 4215              	.LASF2:
 4216 0472 5F5F696E 		.ascii	"__int8_t\000"
 4216      74385F74 
 4216      00
 4217              	.LASF29:
 4218 047b 6B5F7573 		.ascii	"k_user_module_osc\000"
 4218      65725F6D 
 4218      6F64756C 
 4218      655F6F73 
 4218      6300
 4219              	.LASF20:
 4220 048d 6C6F6E67 		.ascii	"long double\000"
 4220      20646F75 
 4220      626C6500 
 4221              	.LASF17:
 4222 0499 75696E74 		.ascii	"uint16_t\000"
 4222      31365F74 
 4222      00
 4223              	.LASF57:
 4224 04a2 70686173 		.ascii	"phaseSync\000"
 4224      6553796E 
 4224      6300
 4225              	.LASF44:
 4226 04ac 6B5F7573 		.ascii	"k_user_osc_param_shiftshape\000"
 4226      65725F6F 
 4226      73635F70 
 4226      6172616D 
 4226      5F736869 
 4227              	.LASF83:
 4228 04c8 5F686F6F 		.ascii	"_hook_init\000"
 4228      6B5F696E 
 4228      697400
 4229              	.LASF5:
 4230 04d3 73686F72 		.ascii	"short int\000"
 4230      7420696E 
 4230      7400
 4231              	.LASF106:
ARM GAS  C:\Users\eric\AppData\Local\Temp\ccZFBEId.s 			page 79


 4232 04dd 73717274 		.ascii	"sqrtm2log_lut_f\000"
 4232      6D326C6F 
 4232      675F6C75 
 4232      745F6600 
 4233              	.LASF107:
 4234 04ed 63756269 		.ascii	"cubicsat_lut_f\000"
 4234      63736174 
 4234      5F6C7574 
 4234      5F6600
 4235              	.LASF102:
 4236 04fc 77745F73 		.ascii	"wt_sqr_lut_f\000"
 4236      71725F6C 
 4236      75745F66 
 4236      00
 4237              	.LASF9:
 4238 0509 6C6F6E67 		.ascii	"long int\000"
 4238      20696E74 
 4238      00
 4239              	.LASF60:
 4240 0512 636F6D70 		.ascii	"compRatio\000"
 4240      52617469 
 4240      6F00
 4241              	.LASF56:
 4242 051c 73686170 		.ascii	"shape\000"
 4242      6500
 4243              	.LASF26:
 4244 0522 6B5F7573 		.ascii	"k_user_module_modfx\000"
 4244      65725F6D 
 4244      6F64756C 
 4244      655F6D6F 
 4244      64667800 
 4245              	.LASF43:
 4246 0536 6B5F7573 		.ascii	"k_user_osc_param_shape\000"
 4246      65725F6F 
 4246      73635F70 
 4246      6172616D 
 4246      5F736861 
 4247              	.LASF117:
 4248 054d 31397573 		.ascii	"19user_osc_param_id_t\000"
 4248      65725F6F 
 4248      73635F70 
 4248      6172616D 
 4248      5F69645F 
 4249              	.LASF59:
 4250 0563 636F6D70 		.ascii	"compGain\000"
 4250      4761696E 
 4250      00
 4251              	.LASF50:
 4252 056c 6C666F7A 		.ascii	"lfoz\000"
 4252      00
 4253              	.LASF112:
 4254 0571 696E7374 		.ascii	"instances\000"
 4254      616E6365 
 4254      7300
 4255              	.LASF35:
 4256 057b 72657365 		.ascii	"reserved0\000"
 4256      72766564 
ARM GAS  C:\Users\eric\AppData\Local\Temp\ccZFBEId.s 			page 80


 4256      3000
 4257              	.LASF3:
 4258 0585 5F5F7569 		.ascii	"__uint8_t\000"
 4258      6E74385F 
 4258      7400
 4259              	.LASF98:
 4260 058f 6B5F6F73 		.ascii	"k_osc_api_version\000"
 4260      635F6170 
 4260      695F7665 
 4260      7273696F 
 4260      6E00
 4261              	.LASF65:
 4262 05a1 6673656C 		.ascii	"fsel\000"
 4262      00
 4263              	.LASF101:
 4264 05a6 77745F73 		.ascii	"wt_saw_lut_f\000"
 4264      61775F6C 
 4264      75745F66 
 4264      00
 4265              	.LASF72:
 4266 05b3 6E6F7465 		.ascii	"note\000"
 4266      00
 4267              	.LASF114:
 4268 05b8 73757065 		.ascii	"supersaw.cpp\000"
 4268      72736177 
 4268      2E637070 
 4268      00
 4269              	.LASF24:
 4270 05c5 7133315F 		.ascii	"q31_t\000"
 4270      7400
 4271              	.LASF21:
 4272 05cb 73697A65 		.ascii	"sizetype\000"
 4272      74797065 
 4272      00
 4273              	.LASF11:
 4274 05d4 6C6F6E67 		.ascii	"long unsigned int\000"
 4274      20756E73 
 4274      69676E65 
 4274      6420696E 
 4274      7400
 4275              	.LASF100:
 4276 05e6 77745F73 		.ascii	"wt_sine_lut_f\000"
 4276      696E655F 
 4276      6C75745F 
 4276      6600
 4277              	.LASF18:
 4278 05f4 696E7433 		.ascii	"int32_t\000"
 4278      325F7400 
 4279              	.LASF70:
 4280 05fc 6C696E69 		.ascii	"linintf\000"
 4280      6E746600 
 4281              	.LASF4:
 4282 0604 756E7369 		.ascii	"unsigned char\000"
 4282      676E6564 
 4282      20636861 
 4282      7200
 4283              	.LASF10:
ARM GAS  C:\Users\eric\AppData\Local\Temp\ccZFBEId.s 			page 81


 4284 0612 5F5F7569 		.ascii	"__uint32_t\000"
 4284      6E743332 
 4284      5F7400
 4285              	.LASF25:
 4286 061d 6B5F7573 		.ascii	"k_user_module_global\000"
 4286      65725F6D 
 4286      6F64756C 
 4286      655F676C 
 4286      6F62616C 
 4287              	.LASF116:
 4288 0632 6465636C 		.ascii	"decltype(nullptr)\000"
 4288      74797065 
 4288      286E756C 
 4288      6C707472 
 4288      2900
 4289              	.LASF89:
 4290 0644 766F6963 		.ascii	"voicePitch\000"
 4290      65506974 
 4290      636800
 4291              	.LASF55:
 4292 064f 6E6F6973 		.ascii	"noiseLevel\000"
 4292      654C6576 
 4292      656C00
 4293              	.LASF1:
 4294 065a 7369676E 		.ascii	"signed char\000"
 4294      65642063 
 4294      68617200 
 4295              	.LASF7:
 4296 0666 73686F72 		.ascii	"short unsigned int\000"
 4296      7420756E 
 4296      7369676E 
 4296      65642069 
 4296      6E7400
 4297              	.LASF74:
 4298 0679 6F73635F 		.ascii	"osc_w0f_for_note\000"
 4298      7730665F 
 4298      666F725F 
 4298      6E6F7465 
 4298      00
 4299              	.LASF36:
 4300 068a 75736572 		.ascii	"user_osc_param_t\000"
 4300      5F6F7363 
 4300      5F706172 
 4300      616D5F74 
 4300      00
 4301              	.LASF23:
 4302 069b 646F7562 		.ascii	"double\000"
 4302      6C6500
 4303              	.LASF31:
 4304 06a2 73686170 		.ascii	"shape_lfo\000"
 4304      655F6C66 
 4304      6F00
 4305              	.LASF119:
 4306 06ac 5F6F7363 		.ascii	"_osc_white\000"
 4306      5F776869 
 4306      746500
 4307              	.LASF73:
ARM GAS  C:\Users\eric\AppData\Local\Temp\ccZFBEId.s 			page 82


 4308 06b7 636C6970 		.ascii	"clip1m1f\000"
 4308      316D3166 
 4308      00
 4309              	.LASF66:
 4310 06c0 636C616D 		.ascii	"clampmaxfsel\000"
 4310      706D6178 
 4310      6673656C 
 4310      00
 4311              	.LASF97:
 4312 06cd 6B5F6F73 		.ascii	"k_osc_api_platform\000"
 4312      635F6170 
 4312      695F706C 
 4312      6174666F 
 4312      726D00
 4313              		.ident	"GCC: (GNU Tools for ARM Embedded Processors) 5.4.1 20160919 (release) [ARM/embedded-5-bran
ARM GAS  C:\Users\eric\AppData\Local\Temp\ccZFBEId.s 			page 83


DEFINED SYMBOLS
                            *ABS*:00000000 supersaw.cpp
C:\Users\eric\AppData\Local\Temp\ccZFBEId.s:21     .text:00000000 $t
C:\Users\eric\AppData\Local\Temp\ccZFBEId.s:26     .text:00000000 _hook_init
C:\Users\eric\AppData\Local\Temp\ccZFBEId.s:70     .text:00000024 $d
C:\Users\eric\AppData\Local\Temp\ccZFBEId.s:75     .text:0000002c $t
C:\Users\eric\AppData\Local\Temp\ccZFBEId.s:80     .text:0000002c _hook_cycle
C:\Users\eric\AppData\Local\Temp\ccZFBEId.s:619    .text:00000298 $d
C:\Users\eric\AppData\Local\Temp\ccZFBEId.s:631    .text:000002bc $t
C:\Users\eric\AppData\Local\Temp\ccZFBEId.s:636    .text:000002bc _hook_on
C:\Users\eric\AppData\Local\Temp\ccZFBEId.s:653    .text:000002c8 $d
C:\Users\eric\AppData\Local\Temp\ccZFBEId.s:657    .text:000002cc $t
C:\Users\eric\AppData\Local\Temp\ccZFBEId.s:662    .text:000002cc _hook_off
C:\Users\eric\AppData\Local\Temp\ccZFBEId.s:679    .text:000002ce _hook_param
C:\Users\eric\AppData\Local\Temp\ccZFBEId.s:696    .text:000002de $d
C:\Users\eric\AppData\Local\Temp\ccZFBEId.s:776    .text:0000035c $d
C:\Users\eric\AppData\Local\Temp\ccZFBEId.s:799    .bss:00000034 instances
C:\Users\eric\AppData\Local\Temp\ccZFBEId.s:788    .data:00000000 maxVoice
C:\Users\eric\AppData\Local\Temp\ccZFBEId.s:785    .data:00000000 $d
C:\Users\eric\AppData\Local\Temp\ccZFBEId.s:791    .bss:00000000 $d
C:\Users\eric\AppData\Local\Temp\ccZFBEId.s:795    .bss:00000000 _ZL7s_state
                     .debug_frame:00000010 $d
C:\Users\eric\AppData\Local\Temp\ccZFBEId.s:703    .text:000002e5 $d
C:\Users\eric\AppData\Local\Temp\ccZFBEId.s:703    .text:000002e6 $t

UNDEFINED SYMBOLS
_osc_white
midi_to_hz_lut_f
