ARM GAS  C:\Users\eric\AppData\Local\Temp\cclFSUCi.s 			page 1


   1              		.syntax unified
   2              		.cpu cortex-m4
   3              		.eabi_attribute 27, 1
   4              		.eabi_attribute 28, 1
   5              		.fpu fpv4-sp-d16
   6              		.eabi_attribute 20, 1
   7              		.eabi_attribute 21, 1
   8              		.eabi_attribute 23, 3
   9              		.eabi_attribute 24, 1
  10              		.eabi_attribute 25, 1
  11              		.eabi_attribute 26, 1
  12              		.eabi_attribute 30, 4
  13              		.eabi_attribute 34, 1
  14              		.eabi_attribute 18, 4
  15              		.thumb
  16              		.syntax unified
  17              		.file	"supersaw.cpp"
  18              		.text
  19              	.Ltext0:
  20              		.cfi_sections	.debug_frame
  21              		.align	1
  22              		.global	_hook_init
  23              		.thumb
  24              		.thumb_func
  25              		.type	_hook_init, %function
  26              	_hook_init:
  27              	.LFB239:
  28              		.file 1 "supersaw.cpp"
  29              		.loc 1 74 0
  30              		.cfi_startproc
  31              		@ args = 0, pretend = 0, frame = 0
  32              		@ frame_needed = 0, uses_anonymous_args = 0
  33              		@ link register save eliminated.
  34              	.LVL0:
  35              		.loc 1 75 0
  36 0000 084B     		ldr	r3, .L2
  37 0002 4FF07E52 		mov	r2, #1065353216
  38              		.loc 1 77 0
  39 0006 0021     		movs	r1, #0
  40              	.LVL1:
  41              		.loc 1 75 0
  42 0008 1A60     		str	r2, [r3]	@ float
  43              		.loc 1 77 0
  44 000a 1973     		strb	r1, [r3, #12]
  45              		.loc 1 76 0
  46 000c 0022     		movs	r2, #0
  47              		.loc 1 78 0
  48 000e 0221     		movs	r1, #2
  49              		.loc 1 76 0
  50 0010 9A60     		str	r2, [r3, #8]	@ float
  51 0012 5A60     		str	r2, [r3, #4]	@ float
  52              		.loc 1 78 0
  53 0014 1961     		str	r1, [r3, #16]
  54              		.loc 1 80 0
  55 0016 DA61     		str	r2, [r3, #28]	@ float
  56              		.loc 1 79 0
  57 0018 0A21     		movs	r1, #10
ARM GAS  C:\Users\eric\AppData\Local\Temp\cclFSUCi.s 			page 2


  58              		.loc 1 81 0
  59 001a 1A62     		str	r2, [r3, #32]	@ float
  60              		.loc 1 82 0
  61 001c 024A     		ldr	r2, .L2+4
  62              		.loc 1 79 0
  63 001e 9961     		str	r1, [r3, #24]
  64              		.loc 1 82 0
  65 0020 1A63     		str	r2, [r3, #48]	@ float
  66 0022 7047     		bx	lr
  67              	.L3:
  68              		.align	2
  69              	.L2:
  70 0024 00000000 		.word	.LANCHOR0
  71 0028 CDCC4C3E 		.word	1045220557
  72              		.cfi_endproc
  73              	.LFE239:
  74              		.size	_hook_init, .-_hook_init
  75              		.align	1
  76              		.global	_hook_cycle
  77              		.thumb
  78              		.thumb_func
  79              		.type	_hook_cycle, %function
  80              	_hook_cycle:
  81              	.LFB243:
  82              		.loc 1 124 0
  83              		.cfi_startproc
  84              		@ args = 0, pretend = 0, frame = 16
  85              		@ frame_needed = 0, uses_anonymous_args = 0
  86              	.LVL2:
  87 002c 2DE9F04F 		push	{r4, r5, r6, r7, r8, r9, r10, fp, lr}
  88              		.cfi_def_cfa_offset 36
  89              		.cfi_offset 4, -36
  90              		.cfi_offset 5, -32
  91              		.cfi_offset 6, -28
  92              		.cfi_offset 7, -24
  93              		.cfi_offset 8, -20
  94              		.cfi_offset 9, -16
  95              		.cfi_offset 10, -12
  96              		.cfi_offset 11, -8
  97              		.cfi_offset 14, -4
  98              		.loc 1 125 0
  99 0030 944C     		ldr	r4, .L42
 100              		.loc 1 130 0
 101 0032 D0ED007A 		vldr.32	s15, [r0]	@ int
 102              		.loc 1 125 0
 103 0036 94F80CA0 		ldrb	r10, [r4, #12]	@ zero_extendqisi2
 104              	.LVL3:
 105              		.loc 1 137 0
 106 003a 2569     		ldr	r5, [r4, #16]
 107 003c 924E     		ldr	r6, .L42+4
 108 003e 94F818B0 		ldrb	fp, [r4, #24]	@ zero_extendqisi2
 109              		.loc 1 130 0
 110 0042 FAEEE07A 		vcvt.f32.s32	s15, s15, #31
 111              		.loc 1 124 0
 112 0046 8846     		mov	r8, r1
 113              		.loc 1 131 0
 114 0048 1AF00101 		ands	r1, r10, #1
ARM GAS  C:\Users\eric\AppData\Local\Temp\cclFSUCi.s 			page 3


 115              	.LVL4:
 116              		.loc 1 124 0
 117 004c 2DED088B 		vpush.64	{d8, d9, d10, d11}
 118              		.cfi_def_cfa_offset 68
 119              		.cfi_offset 80, -68
 120              		.cfi_offset 81, -64
 121              		.cfi_offset 82, -60
 122              		.cfi_offset 83, -56
 123              		.cfi_offset 84, -52
 124              		.cfi_offset 85, -48
 125              		.cfi_offset 86, -44
 126              		.cfi_offset 87, -40
 127              		.loc 1 132 0
 128 0050 07EE102A 		vmov	s14, r2	@ int
 129              		.loc 1 131 0
 130 0054 08BF     		it	eq
 131 0056 94ED029A 		vldreq.32	s18, [r4, #8]
 132              		.loc 1 130 0
 133 005a C4ED017A 		vstr.32	s15, [r4, #4]
 134              		.loc 1 131 0
 135 005e 18BF     		it	ne
 136 0060 B0EE679A 		vmovne.f32	s18, s15
 137              		.loc 1 132 0
 138 0064 77EEC97A 		vsub.f32	s15, s15, s18
 139 0068 B8EE477A 		vcvt.f32.u32	s14, s14
 140              		.loc 1 126 0
 141 006c 0023     		movs	r3, #0
 142              		.loc 1 132 0
 143 006e 87EE878A 		vdiv.f32	s16, s15, s14
 144              		.loc 1 126 0
 145 0072 2373     		strb	r3, [r4, #12]
 146              		.loc 1 141 0
 147 0074 8388     		ldrh	r3, [r0, #4]
 148 0076 C5F34607 		ubfx	r7, r5, #1, #7
 149              		.loc 1 135 0
 150 007a 08EB8209 		add	r9, r8, r2, lsl #2
 151 007e EDB2     		uxtb	r5, r5
 152              	.LBB84:
 153              	.LBB85:
 154              	.LBB86:
 155              	.LBB87:
 156              	.LBB88:
 157              	.LBB89:
 158              		.file 2 "../inc/osc_api.h"
 159              		.loc 2 115 0
 160 0080 824A     		ldr	r2, .L42+8
 161              	.LVL5:
 162 0082 06EBC505 		add	r5, r6, r5, lsl #3
 163              	.LBE89:
 164              	.LBE88:
 165              	.LBE87:
 166              	.LBE86:
 167              	.LBE85:
 168              	.LBE84:
 169              		.loc 1 141 0
 170 0086 4FEA132A 		lsr	r10, r3, #8
 171              	.LVL6:
ARM GAS  C:\Users\eric\AppData\Local\Temp\cclFSUCi.s 			page 4


 172 008a DBB2     		uxtb	r3, r3
 173              		.loc 1 124 0
 174 008c 85B0     		sub	sp, sp, #20
 175              		.cfi_def_cfa_offset 88
 176 008e 07FB1B37 		mls	r7, r7, fp, r3
 177              		.loc 1 128 0
 178 0092 D4ED008A 		vldr.32	s17, [r4]
 179              	.LVL7:
 180              	.LBB124:
 181              	.LBB122:
 182              	.LBB115:
 183              	.LBB112:
 184              	.LBB95:
 185              	.LBB96:
 186              		.file 3 "../inc/utils/float_math.h"
 187              		.loc 3 825 0
 188 0096 DFED7E9A 		vldr.32	s19, .L42+12
 189 009a 0435     		adds	r5, r5, #4
 190              	.LBE96:
 191              	.LBE95:
 192              	.LBE112:
 193              	.LBE115:
 194              	.LBE122:
 195              	.LBE124:
 196              		.loc 1 144 0
 197 009c 0436     		adds	r6, r6, #4
 198 009e 1046     		mov	r0, r2
 199              	.LVL8:
 200              	.L13:
 201              	.LBB125:
 202              		.loc 1 145 0 discriminator 1
 203 00a0 AE42     		cmp	r6, r5
 204 00a2 56D0     		beq	.L6
 205              	.LVL9:
 206              	.LBB123:
 207              	.LBB116:
 208              	.LBB117:
 209              		.loc 1 91 0
 210 00a4 FF23     		movs	r3, #255
 211 00a6 97FBF3F3 		sdiv	r3, r7, r3
 212              	.LVL10:
 213              		.loc 1 92 0
 214 00aa C3EB032E 		rsb	lr, r3, r3, lsl #8
 215              	.LVL11:
 216              		.loc 1 93 0
 217 00ae B7EB0E0E 		subs	lr, r7, lr
 218              	.LVL12:
 219              		.loc 1 94 0
 220 00b2 44BF     		itt	mi
 221 00b4 03F1FF33 		addmi	r3, r3, #-1
 222              	.LVL13:
 223              		.loc 1 95 0
 224 00b8 0EF1FF0E 		addmi	lr, lr, #255
 225              	.LVL14:
 226              		.loc 1 100 0
 227 00bc 5344     		add	r3, r3, r10
 228              	.LVL15:
ARM GAS  C:\Users\eric\AppData\Local\Temp\cclFSUCi.s 			page 5


 229              		.loc 1 102 0
 230 00be 4EEA0323 		orr	r3, lr, r3, lsl #8
 231              	.LVL16:
 232 00c2 9BB2     		uxth	r3, r3
 233              	.LVL17:
 234              	.LBE117:
 235              	.LBE116:
 236              		.loc 1 148 0
 237 00c4 4FEA232E 		asr	lr, r3, #8
 238              	.LBB118:
 239              	.LBB113:
 240              	.LBB98:
 241              	.LBB90:
 242              		.loc 2 115 0
 243 00c8 BEF1960F 		cmp	lr, #150
 244              	.LBE90:
 245              	.LBE98:
 246              	.LBE113:
 247              	.LBE118:
 248              		.loc 1 148 0
 249 00cc DBB2     		uxtb	r3, r3
 250 00ce 07EE903A 		vmov	s15, r3	@ int
 251              	.LVL18:
 252              	.LBB119:
 253              	.LBB114:
 254              	.LBB99:
 255              	.LBB91:
 256              		.loc 2 115 0
 257 00d2 D8BF     		it	le
 258 00d4 7346     		movle	r3, lr
 259              	.LVL19:
 260              	.LBE91:
 261              	.LBE99:
 262              		.loc 2 126 0
 263 00d6 0EF1010E 		add	lr, lr, #1
 264              	.LVL20:
 265 00da 5FFA8EFE 		uxtb	lr, lr
 266              	.LVL21:
 267              	.LBB100:
 268              	.LBB92:
 269              		.loc 2 115 0
 270 00de C8BF     		it	gt
 271 00e0 9723     		movgt	r3, #151
 272              	.LVL22:
 273              	.LBE92:
 274              	.LBE100:
 275              	.LBB101:
 276              	.LBB102:
 277 00e2 BEF1960F 		cmp	lr, #150
 278 00e6 88BF     		it	hi
 279 00e8 4FF0970E 		movhi	lr, #151
 280              	.LBE102:
 281              	.LBE101:
 282              	.LBB104:
 283              	.LBB93:
 284 00ec 02EB8303 		add	r3, r2, r3, lsl #2
 285              	.LBE93:
ARM GAS  C:\Users\eric\AppData\Local\Temp\cclFSUCi.s 			page 6


 286              	.LBE104:
 287              	.LBB105:
 288              	.LBB103:
 289 00f0 00EB8E0E 		add	lr, r0, lr, lsl #2
 290              	.LBE103:
 291              	.LBE105:
 292              	.LBB106:
 293              	.LBB94:
 294 00f4 93ED007A 		vldr.32	s14, [r3]
 295              	.LVL23:
 296              	.LBE94:
 297              	.LBE106:
 298              	.LBB107:
 299              	.LBB97:
 300              		.loc 3 825 0
 301 00f8 DEED006A 		vldr.32	s13, [lr]
 302 00fc F8EEE77A 		vcvt.f32.s32	s15, s15
 303              	.LVL24:
 304 0100 76EEC76A 		vsub.f32	s13, s13, s14
 305 0104 67EEA97A 		vmul.f32	s15, s15, s19
 306 0108 A7EEA67A 		vfma.f32	s14, s15, s13
 307              	.LVL25:
 308              	.LBE97:
 309              	.LBE107:
 310              	.LBB108:
 311              	.LBB109:
 312              	.LBB110:
 313              	.LBB111:
 314              		.loc 3 193 0
 315 010c DFED617A 		vldr.32	s15, .L42+16
 316 0110 B4EEE77A 		vcmpe.f32	s14, s15
 317 0114 F1EE10FA 		vmrs	APSR_nzcv, FPSCR
 318 0118 B8BF     		it	lt
 319 011a F0EE477A 		vmovlt.f32	s15, s14
 320              	.LVL26:
 321              	.LBE111:
 322              	.LBE110:
 323              	.LBE109:
 324              	.LBE108:
 325              	.LBE114:
 326              	.LBE119:
 327              		.loc 1 148 0
 328 011e 9FED5E7A 		vldr.32	s14, .L42+20
 329 0122 67EE877A 		vmul.f32	s15, s15, s14
 330 0126 C6ED007A 		vstr.32	s15, [r6]
 331              		.loc 1 149 0
 332 012a 79B1     		cbz	r1, .L11
 333              		.loc 1 150 0
 334 012c 94F92430 		ldrsb	r3, [r4, #36]
 335 0130 43B9     		cbnz	r3, .L28
 336 0132 0390     		str	r0, [sp, #12]
 337 0134 0292     		str	r2, [sp, #8]
 338 0136 0191     		str	r1, [sp, #4]
 339              	.LBB120:
 340              	.LBB121:
 341              		.loc 2 780 0
 342 0138 FFF7FEFF 		bl	_osc_white
ARM GAS  C:\Users\eric\AppData\Local\Temp\cclFSUCi.s 			page 7


 343              	.LVL27:
 344              	.LBE121:
 345              	.LBE120:
 346 013c 0199     		ldr	r1, [sp, #4]
 347 013e 029A     		ldr	r2, [sp, #8]
 348 0140 0398     		ldr	r0, [sp, #12]
 349 0142 01E0     		b	.L12
 350              	.L28:
 351              		.loc 1 150 0
 352 0144 9FED550A 		vldr.32	s0, .L42+24
 353              	.L12:
 354              		.loc 1 150 0 is_stmt 0 discriminator 4
 355 0148 06ED010A 		vstr.32	s0, [r6, #-4]
 356              	.L11:
 357 014c 0836     		adds	r6, r6, #8
 358 014e 5F44     		add	r7, r7, fp
 359              	.LBE123:
 360              		.loc 1 145 0 is_stmt 1 discriminator 2
 361 0150 A6E7     		b	.L13
 362              	.L6:
 363 0152 F7EE009A 		vmov.f32	s19, #1.0e+0
 364              	.LBE125:
 365              	.LBB126:
 366              	.LBB127:
 367              		.loc 1 164 0
 368 0156 4B4E     		ldr	r6, .L42
 369 0158 B0EE69BA 		vmov.f32	s22, s19
 370              	.LVL28:
 371              	.L40:
 372              	.LBE127:
 373              		.loc 1 155 0
 374 015c C845     		cmp	r8, r9
 375 015e 00F08980 		beq	.L14
 376              	.LBB153:
 377              	.LBB128:
 378              	.LBB129:
 379              	.LBB130:
 380              	.LBB131:
 381              		.loc 1 109 0
 382 0162 94ED086A 		vldr.32	s12, [r4, #32]
 383 0166 4E4B     		ldr	r3, .L42+28
 384 0168 9FED4C7A 		vldr.32	s14, .L42+24
 385 016c FFEE005A 		vmov.f32	s11, #-1.0e+0
 386              		.loc 1 107 0
 387 0170 F0EE003A 		vmov.f32	s7, #2.0e+0
 388              		.loc 1 108 0
 389 0174 B6EE004A 		vmov.f32	s8, #5.0e-1
 390              	.L17:
 391              	.LVL29:
 392              	.LBE131:
 393              	.LBE130:
 394              	.LBE129:
 395              		.loc 1 157 0 discriminator 3
 396 0178 9D42     		cmp	r5, r3
 397 017a 26D0     		beq	.L15
 398              	.LBB134:
 399              		.loc 1 158 0 discriminator 2
ARM GAS  C:\Users\eric\AppData\Local\Temp\cclFSUCi.s 			page 8


 400 017c 53ED017A 		vldr.32	s15, [r3, #-4]
 401              	.LVL30:
 402              	.LBB133:
 403              	.LBB132:
 404              		.loc 1 107 0 discriminator 2
 405 0180 79EEE76A 		vsub.f32	s13, s19, s15
 406              		.loc 1 108 0 discriminator 2
 407 0184 F4EEC47A 		vcmpe.f32	s15, s8
 408              		.loc 1 107 0 discriminator 2
 409 0188 F0EE654A 		vmov.f32	s9, s11
 410 018c E6EEA34A 		vfma.f32	s9, s13, s7
 411              	.LVL31:
 412 0190 0833     		adds	r3, r3, #8
 413              		.loc 1 108 0 discriminator 2
 414 0192 F1EE10FA 		vmrs	APSR_nzcv, FPSCR
 415 0196 D4BF     		ite	le
 416 0198 F0EE696A 		vmovle.f32	s13, s19
 417 019c F0EE656A 		vmovgt.f32	s13, s11
 418              	.LVL32:
 419              	.LBE132:
 420              	.LBE133:
 421              		.loc 1 159 0 discriminator 2
 422 01a0 66EE266A 		vmul.f32	s13, s12, s13
 423 01a4 39EEC65A 		vsub.f32	s10, s19, s12
 424 01a8 E4EE856A 		vfma.f32	s13, s9, s10
 425 01ac 37EE267A 		vadd.f32	s14, s14, s13
 426              	.LVL33:
 427              		.loc 1 160 0 discriminator 2
 428 01b0 53ED026A 		vldr.32	s13, [r3, #-8]
 429 01b4 77EEA67A 		vadd.f32	s15, s15, s13
 430              	.LVL34:
 431              		.loc 1 161 0 discriminator 2
 432 01b8 FCEEE76A 		vcvt.u32.f32	s13, s15
 433 01bc F8EE666A 		vcvt.f32.u32	s13, s13
 434              	.LVL35:
 435              		.loc 1 162 0 discriminator 2
 436 01c0 77EEE67A 		vsub.f32	s15, s15, s13
 437              	.LVL36:
 438 01c4 43ED037A 		vstr.32	s15, [r3, #-12]
 439              	.LBE134:
 440              		.loc 1 157 0 discriminator 2
 441 01c8 D6E7     		b	.L17
 442              	.LVL37:
 443              	.L15:
 444              	.LBE128:
 445              		.loc 1 164 0
 446 01ca 94ED05AA 		vldr.32	s20, [r4, #20]
 447              		.loc 1 165 0
 448 01ce D4ED07AA 		vldr.32	s21, [r4, #28]
 449              		.loc 1 164 0
 450 01d2 27EE0AAA 		vmul.f32	s20, s14, s20
 451              	.LVL38:
 452              	.LBB135:
 453              	.LBB136:
 454              		.loc 2 780 0
 455 01d6 FFF7FEFF 		bl	_osc_white
 456              	.LVL39:
ARM GAS  C:\Users\eric\AppData\Local\Temp\cclFSUCi.s 			page 9


 457              	.LBE136:
 458              	.LBE135:
 459              		.loc 1 165 0
 460 01da D4ED077A 		vldr.32	s15, [r4, #28]
 461              	.LBB137:
 462              	.LBB138:
 463              		.loc 1 113 0
 464 01de 94ED0A7A 		vldr.32	s14, [r4, #40]
 465              	.LBE138:
 466              	.LBE137:
 467              		.loc 1 165 0
 468 01e2 7BEE6AAA 		vsub.f32	s21, s22, s21
 469 01e6 20EE270A 		vmul.f32	s0, s0, s15
 470 01ea AAEE2A0A 		vfma.f32	s0, s20, s21
 471              	.LVL40:
 472              	.LBB140:
 473              	.LBB139:
 474              		.loc 1 113 0
 475 01ee B4EEC70A 		vcmpe.f32	s0, s14
 476 01f2 F1EE10FA 		vmrs	APSR_nzcv, FPSCR
 477 01f6 08DD     		ble	.L38
 478              		.loc 1 114 0
 479 01f8 70EE477A 		vsub.f32	s15, s0, s14
 480 01fc D6ED0C6A 		vldr.32	s13, [r6, #48]
 481 0200 A7EEA67A 		vfma.f32	s14, s15, s13
 482 0204 B0EE470A 		vmov.f32	s0, s14
 483              	.LVL41:
 484 0208 0EE0     		b	.L20
 485              	.LVL42:
 486              	.L38:
 487              		.loc 1 115 0
 488 020a F1EE477A 		vneg.f32	s15, s14
 489 020e B4EEE70A 		vcmpe.f32	s0, s15
 490 0212 F1EE10FA 		vmrs	APSR_nzcv, FPSCR
 491              		.loc 1 116 0
 492 0216 41BF     		itttt	mi
 493 0218 30EE070A 		vaddmi.f32	s0, s0, s14
 494              	.LVL43:
 495 021c 96ED0C7A 		vldrmi.32	s14, [r6, #48]
 496 0220 E0EE077A 		vfmami.f32	s15, s0, s14
 497 0224 B0EE670A 		vmovmi.f32	s0, s15
 498              	.LVL44:
 499              	.L20:
 500              	.LBE139:
 501              	.LBE140:
 502              		.loc 1 167 0
 503 0228 D4ED0B7A 		vldr.32	s15, [r4, #44]
 504 022c 20EE270A 		vmul.f32	s0, s0, s15
 505              	.LBB141:
 506              	.LBB142:
 507              	.LBB143:
 508              	.LBB144:
 509              	.LBB145:
 510              	.LBB146:
 511              		.loc 3 193 0
 512 0230 FFEE007A 		vmov.f32	s15, #-1.0e+0
 513              	.LBE146:
ARM GAS  C:\Users\eric\AppData\Local\Temp\cclFSUCi.s 			page 10


 514              	.LBE145:
 515              	.LBE144:
 516              	.LBE143:
 517              	.LBE142:
 518              	.LBE141:
 519              		.loc 1 167 0
 520 0234 20EE280A 		vmul.f32	s0, s0, s17
 521              	.LVL45:
 522              	.LBB152:
 523              	.LBB151:
 524              	.LBB150:
 525              	.LBB149:
 526              	.LBB148:
 527              	.LBB147:
 528              		.loc 3 193 0
 529 0238 B4EEE70A 		vcmpe.f32	s0, s15
 530 023c F1EE10FA 		vmrs	APSR_nzcv, FPSCR
 531 0240 07DB     		blt	.L39
 532              	.LVL46:
 533 0242 B4EECB0A 		vcmpe.f32	s0, s22
 534 0246 F1EE10FA 		vmrs	APSR_nzcv, FPSCR
 535 024a A8BF     		it	ge
 536 024c B0EE690A 		vmovge.f32	s0, s19
 537              	.LVL47:
 538 0250 01E0     		b	.L22
 539              	.LVL48:
 540              	.L39:
 541 0252 BFEE000A 		vmov.f32	s0, #-1.0e+0
 542              	.LVL49:
 543              	.L22:
 544              	.LBE147:
 545              	.LBE148:
 546              	.LBE149:
 547              	.LBE150:
 548              	.LBE151:
 549              	.LBE152:
 550              		.loc 1 168 0
 551 0256 60EE007A 		vmul.f32	s15, s0, s0
 552 025a 9FED127A 		vldr.32	s14, .L42+32
 553 025e 60EE677A 		vnmul.f32	s15, s0, s15
 554              		.loc 1 169 0
 555 0262 39EE089A 		vadd.f32	s18, s18, s16
 556              	.LVL50:
 557              		.loc 1 168 0
 558 0266 A7EE870A 		vfma.f32	s0, s15, s14
 559 026a BEEEE00A 		vcvt.s32.f32	s0, s0, #31
 560 026e A8EC010A 		vstmia.32	r8!, {s0}	@ int
 561              	.LVL51:
 562              	.LBE153:
 563              		.loc 1 155 0
 564 0272 73E7     		b	.L40
 565              	.LVL52:
 566              	.L14:
 567              	.LBE126:
 568              		.loc 1 172 0
 569 0274 84ED029A 		vstr.32	s18, [r4, #8]
 570              		.loc 1 173 0
ARM GAS  C:\Users\eric\AppData\Local\Temp\cclFSUCi.s 			page 11


 571 0278 05B0     		add	sp, sp, #20
 572              		.cfi_def_cfa_offset 68
 573              		@ sp needed
 574 027a BDEC088B 		vldm	sp!, {d8-d11}
 575              		.cfi_restore 86
 576              		.cfi_restore 87
 577              		.cfi_restore 84
 578              		.cfi_restore 85
 579              		.cfi_restore 82
 580              		.cfi_restore 83
 581              		.cfi_restore 80
 582              		.cfi_restore 81
 583              		.cfi_def_cfa_offset 36
 584              	.LVL53:
 585 027e BDE8F08F 		pop	{r4, r5, r6, r7, r8, r9, r10, fp, pc}
 586              	.LVL54:
 587              	.L43:
 588 0282 00BF     		.align	2
 589              	.L42:
 590 0284 00000000 		.word	.LANCHOR0
 591 0288 34000000 		.word	.LANCHOR0+52
 592 028c 00000000 		.word	midi_to_hz_lut_f
 593 0290 8180803B 		.word	998277249
 594 0294 49FFB846 		.word	1186529097
 595 0298 3EC3AE37 		.word	934200126
 596 029c 00000000 		.word	0
 597 02a0 38000000 		.word	.LANCHOR0+56
 598 02a4 CDCC4C3D 		.word	1028443341
 599              		.cfi_endproc
 600              	.LFE243:
 601              		.size	_hook_cycle, .-_hook_cycle
 602              		.align	1
 603              		.global	_hook_on
 604              		.thumb
 605              		.thumb_func
 606              		.type	_hook_on, %function
 607              	_hook_on:
 608              	.LFB244:
 609              		.loc 1 176 0
 610              		.cfi_startproc
 611              		@ args = 0, pretend = 0, frame = 0
 612              		@ frame_needed = 0, uses_anonymous_args = 0
 613              		@ link register save eliminated.
 614              	.LVL55:
 615              		.loc 1 177 0
 616 02a8 024A     		ldr	r2, .L45
 617 02aa 137B     		ldrb	r3, [r2, #12]	@ zero_extendqisi2
 618 02ac 43F00103 		orr	r3, r3, #1
 619 02b0 1373     		strb	r3, [r2, #12]
 620 02b2 7047     		bx	lr
 621              	.L46:
 622              		.align	2
 623              	.L45:
 624 02b4 00000000 		.word	.LANCHOR0
 625              		.cfi_endproc
 626              	.LFE244:
 627              		.size	_hook_on, .-_hook_on
ARM GAS  C:\Users\eric\AppData\Local\Temp\cclFSUCi.s 			page 12


 628              		.align	1
 629              		.global	_hook_off
 630              		.thumb
 631              		.thumb_func
 632              		.type	_hook_off, %function
 633              	_hook_off:
 634              	.LFB245:
 635              		.loc 1 181 0
 636              		.cfi_startproc
 637              		@ args = 0, pretend = 0, frame = 0
 638              		@ frame_needed = 0, uses_anonymous_args = 0
 639              		@ link register save eliminated.
 640              	.LVL56:
 641 02b8 7047     		bx	lr
 642              		.cfi_endproc
 643              	.LFE245:
 644              		.size	_hook_off, .-_hook_off
 645              		.align	1
 646              		.global	_hook_param
 647              		.thumb
 648              		.thumb_func
 649              		.type	_hook_param, %function
 650              	_hook_param:
 651              	.LFB246:
 652              		.loc 1 186 0
 653              		.cfi_startproc
 654              		@ args = 0, pretend = 0, frame = 0
 655              		@ frame_needed = 0, uses_anonymous_args = 0
 656              		@ link register save eliminated.
 657              	.LVL57:
 658              		.loc 1 187 0
 659 02ba 07EE901A 		vmov	s15, r1	@ int
 660 02be F8EEE77A 		vcvt.f32.s32	s15, s15
 661              	.LVL58:
 662              		.loc 1 189 0
 663 02c2 0628     		cmp	r0, #6
 664 02c4 3ED8     		bhi	.L48
 665 02c6 DFE800F0 		tbb	[pc, r0]
 666              	.L51:
 667 02ca 04       		.byte	(.L50-.L51)/2
 668 02cb 12       		.byte	(.L52-.L51)/2
 669 02cc 16       		.byte	(.L53-.L51)/2
 670 02cd 1E       		.byte	(.L54-.L51)/2
 671 02ce 22       		.byte	(.L55-.L51)/2
 672 02cf 3D       		.byte	(.L48-.L51)/2
 673 02d0 36       		.byte	(.L56-.L51)/2
 674 02d1 00       		.p2align 1
 675              	.L50:
 676              		.loc 1 191 0
 677 02d2 0131     		adds	r1, r1, #1
 678              	.LVL59:
 679              		.loc 1 192 0
 680 02d4 07EE901A 		vmov	s15, r1	@ int
 681              	.LVL60:
 682 02d8 F8EEE77A 		vcvt.f32.s32	s15, s15
 683 02dc F7EE006A 		vmov.f32	s13, #1.0e+0
 684 02e0 86EEA77A 		vdiv.f32	s14, s13, s15
ARM GAS  C:\Users\eric\AppData\Local\Temp\cclFSUCi.s 			page 13


 685              		.loc 1 191 0
 686 02e4 184B     		ldr	r3, .L57
 687 02e6 1961     		str	r1, [r3, #16]
 688              		.loc 1 192 0
 689 02e8 83ED057A 		vstr.32	s14, [r3, #20]
 690              		.loc 1 193 0
 691 02ec 7047     		bx	lr
 692              	.LVL61:
 693              	.L52:
 694              		.loc 1 195 0
 695 02ee 164B     		ldr	r3, .L57
 696 02f0 0131     		adds	r1, r1, #1
 697              	.LVL62:
 698 02f2 9961     		str	r1, [r3, #24]
 699              		.loc 1 196 0
 700 02f4 7047     		bx	lr
 701              	.LVL63:
 702              	.L53:
 703              		.loc 1 198 0
 704 02f6 DFED156A 		vldr.32	s13, .L57+4
 705 02fa 134B     		ldr	r3, .L57
 706 02fc 87EEA67A 		vdiv.f32	s14, s15, s13
 707 0300 83ED077A 		vstr.32	s14, [r3, #28]
 708              		.loc 1 199 0
 709 0304 7047     		bx	lr
 710              	.L54:
 711              		.loc 1 201 0
 712 0306 104B     		ldr	r3, .L57
 713 0308 83F82410 		strb	r1, [r3, #36]
 714              		.loc 1 202 0
 715 030c 7047     		bx	lr
 716              	.L55:
 717              		.loc 1 204 0
 718 030e DFED0F6A 		vldr.32	s13, .L57+4
 719 0312 0D4B     		ldr	r3, .L57
 720 0314 87EEA67A 		vdiv.f32	s14, s15, s13
 721              		.loc 1 205 0
 722 0318 F7EE007A 		vmov.f32	s15, #1.0e+0
 723              	.LVL64:
 724 031c D3ED0C6A 		vldr.32	s13, [r3, #48]
 725              		.loc 1 204 0
 726 0320 83ED0A7A 		vstr.32	s14, [r3, #40]
 727              		.loc 1 205 0
 728 0324 37EEC76A 		vsub.f32	s12, s15, s14
 729 0328 A6EE267A 		vfma.f32	s14, s12, s13
 730 032c C7EE876A 		vdiv.f32	s13, s15, s14
 731 0330 C3ED0B6A 		vstr.32	s13, [r3, #44]
 732              		.loc 1 206 0
 733 0334 7047     		bx	lr
 734              	.LVL65:
 735              	.L56:
 736              		.loc 1 208 0
 737 0336 9FED067A 		vldr.32	s14, .L57+8
 738 033a 034B     		ldr	r3, .L57
 739 033c 67EE877A 		vmul.f32	s15, s15, s14
 740              	.LVL66:
 741 0340 C3ED087A 		vstr.32	s15, [r3, #32]
ARM GAS  C:\Users\eric\AppData\Local\Temp\cclFSUCi.s 			page 14


 742              	.L48:
 743 0344 7047     		bx	lr
 744              	.L58:
 745 0346 00BF     		.align	2
 746              	.L57:
 747 0348 00000000 		.word	.LANCHOR0
 748 034c 0000C842 		.word	1120403456
 749 0350 0820803A 		.word	981475336
 750              		.cfi_endproc
 751              	.LFE246:
 752              		.size	_hook_param, .-_hook_param
 753              		.global	instances
 754              		.global	maxVoice
 755              		.data
 756              		.align	2
 757              		.type	maxVoice, %object
 758              		.size	maxVoice, 4
 759              	maxVoice:
 760 0000 0C000000 		.word	12
 761              		.bss
 762              		.align	2
 763              		.set	.LANCHOR0,. + 0
 764              		.type	_ZL7s_state, %object
 765              		.size	_ZL7s_state, 52
 766              	_ZL7s_state:
 767 0000 00000000 		.space	52
 767      00000000 
 767      00000000 
 767      00000000 
 767      00000000 
 768              		.type	instances, %object
 769              		.size	instances, 96
 770              	instances:
 771 0034 00000000 		.space	96
 771      00000000 
 771      00000000 
 771      00000000 
 771      00000000 
 772              		.text
 773              	.Letext0:
 774              		.file 4 "c:\\users\\eric\\logue-sdk\\tools\\gcc\\gcc-arm-none-eabi-5_4-2016q3\\arm-none-eabi\\incl
 775              		.file 5 "c:\\users\\eric\\logue-sdk\\tools\\gcc\\gcc-arm-none-eabi-5_4-2016q3\\arm-none-eabi\\incl
 776              		.file 6 "../../ext/CMSIS/CMSIS/Include/arm_math.h"
 777              		.file 7 "../inc/userosc.h"
 778              		.file 8 "../inc/userprg.h"
 779              		.file 9 "../inc/utils/int_math.h"
 780              		.section	.debug_info,"",%progbits
 781              	.Ldebug_info0:
 782 0000 280B0000 		.4byte	0xb28
 783 0004 0400     		.2byte	0x4
 784 0006 00000000 		.4byte	.Ldebug_abbrev0
 785 000a 04       		.byte	0x4
 786 000b 01       		.uleb128 0x1
 787 000c 3C000000 		.4byte	.LASF113
 788 0010 04       		.byte	0x4
 789 0011 BA050000 		.4byte	.LASF114
 790 0015 30020000 		.4byte	.LASF115
ARM GAS  C:\Users\eric\AppData\Local\Temp\cclFSUCi.s 			page 15


 791 0019 00000000 		.4byte	.Ltext0
 792 001d 54030000 		.4byte	.Letext0-.Ltext0
 793 0021 00000000 		.4byte	.Ldebug_line0
 794 0025 02       		.uleb128 0x2
 795 0026 04       		.byte	0x4
 796 0027 04       		.byte	0x4
 797 0028 DC020000 		.4byte	.LASF0
 798 002c 03       		.uleb128 0x3
 799 002d 04       		.byte	0x4
 800 002e 05       		.byte	0x5
 801 002f 696E7400 		.ascii	"int\000"
 802 0033 04       		.uleb128 0x4
 803 0034 74040000 		.4byte	.LASF2
 804 0038 04       		.byte	0x4
 805 0039 1B       		.byte	0x1b
 806 003a 3E000000 		.4byte	0x3e
 807 003e 02       		.uleb128 0x2
 808 003f 01       		.byte	0x1
 809 0040 06       		.byte	0x6
 810 0041 5C060000 		.4byte	.LASF1
 811 0045 04       		.uleb128 0x4
 812 0046 87050000 		.4byte	.LASF3
 813 004a 04       		.byte	0x4
 814 004b 1D       		.byte	0x1d
 815 004c 50000000 		.4byte	0x50
 816 0050 02       		.uleb128 0x2
 817 0051 01       		.byte	0x1
 818 0052 08       		.byte	0x8
 819 0053 06060000 		.4byte	.LASF4
 820 0057 02       		.uleb128 0x2
 821 0058 02       		.byte	0x2
 822 0059 05       		.byte	0x5
 823 005a D5040000 		.4byte	.LASF5
 824 005e 04       		.uleb128 0x4
 825 005f 1D030000 		.4byte	.LASF6
 826 0063 04       		.byte	0x4
 827 0064 2B       		.byte	0x2b
 828 0065 69000000 		.4byte	0x69
 829 0069 02       		.uleb128 0x2
 830 006a 02       		.byte	0x2
 831 006b 07       		.byte	0x7
 832 006c 68060000 		.4byte	.LASF7
 833 0070 04       		.uleb128 0x4
 834 0071 6E010000 		.4byte	.LASF8
 835 0075 04       		.byte	0x4
 836 0076 3F       		.byte	0x3f
 837 0077 7B000000 		.4byte	0x7b
 838 007b 02       		.uleb128 0x2
 839 007c 04       		.byte	0x4
 840 007d 05       		.byte	0x5
 841 007e 0B050000 		.4byte	.LASF9
 842 0082 04       		.uleb128 0x4
 843 0083 14060000 		.4byte	.LASF10
 844 0087 04       		.byte	0x4
 845 0088 41       		.byte	0x41
 846 0089 8D000000 		.4byte	0x8d
 847 008d 02       		.uleb128 0x2
ARM GAS  C:\Users\eric\AppData\Local\Temp\cclFSUCi.s 			page 16


 848 008e 04       		.byte	0x4
 849 008f 07       		.byte	0x7
 850 0090 D6050000 		.4byte	.LASF11
 851 0094 02       		.uleb128 0x2
 852 0095 08       		.byte	0x8
 853 0096 05       		.byte	0x5
 854 0097 FE030000 		.4byte	.LASF12
 855 009b 02       		.uleb128 0x2
 856 009c 08       		.byte	0x8
 857 009d 07       		.byte	0x7
 858 009e FC020000 		.4byte	.LASF13
 859 00a2 02       		.uleb128 0x2
 860 00a3 04       		.byte	0x4
 861 00a4 07       		.byte	0x7
 862 00a5 54010000 		.4byte	.LASF14
 863 00a9 04       		.uleb128 0x4
 864 00aa BF020000 		.4byte	.LASF15
 865 00ae 05       		.byte	0x5
 866 00af 14       		.byte	0x14
 867 00b0 33000000 		.4byte	0x33
 868 00b4 04       		.uleb128 0x4
 869 00b5 CE030000 		.4byte	.LASF16
 870 00b9 05       		.byte	0x5
 871 00ba 18       		.byte	0x18
 872 00bb 45000000 		.4byte	0x45
 873 00bf 04       		.uleb128 0x4
 874 00c0 9B040000 		.4byte	.LASF17
 875 00c4 05       		.byte	0x5
 876 00c5 24       		.byte	0x24
 877 00c6 5E000000 		.4byte	0x5e
 878 00ca 04       		.uleb128 0x4
 879 00cb F6050000 		.4byte	.LASF18
 880 00cf 05       		.byte	0x5
 881 00d0 2C       		.byte	0x2c
 882 00d1 70000000 		.4byte	0x70
 883 00d5 04       		.uleb128 0x4
 884 00d6 B6020000 		.4byte	.LASF19
 885 00da 05       		.byte	0x5
 886 00db 30       		.byte	0x30
 887 00dc 82000000 		.4byte	0x82
 888 00e0 02       		.uleb128 0x2
 889 00e1 08       		.byte	0x8
 890 00e2 04       		.byte	0x4
 891 00e3 8F040000 		.4byte	.LASF20
 892 00e7 05       		.uleb128 0x5
 893 00e8 34060000 		.4byte	.LASF116
 894 00ec 02       		.uleb128 0x2
 895 00ed 04       		.byte	0x4
 896 00ee 07       		.byte	0x7
 897 00ef CD050000 		.4byte	.LASF21
 898 00f3 02       		.uleb128 0x2
 899 00f4 01       		.byte	0x1
 900 00f5 08       		.byte	0x8
 901 00f6 90030000 		.4byte	.LASF22
 902 00fa 02       		.uleb128 0x2
 903 00fb 08       		.byte	0x8
 904 00fc 04       		.byte	0x4
ARM GAS  C:\Users\eric\AppData\Local\Temp\cclFSUCi.s 			page 17


 905 00fd 9D060000 		.4byte	.LASF23
 906 0101 06       		.uleb128 0x6
 907 0102 C7050000 		.4byte	.LASF24
 908 0106 06       		.byte	0x6
 909 0107 8D01     		.2byte	0x18d
 910 0109 CA000000 		.4byte	0xca
 911 010d 07       		.uleb128 0x7
 912 010e 04       		.byte	0x4
 913 010f 01010000 		.4byte	0x101
 914 0113 07       		.uleb128 0x7
 915 0114 04       		.byte	0x4
 916 0115 19010000 		.4byte	0x119
 917 0119 08       		.uleb128 0x8
 918 011a 01010000 		.4byte	0x101
 919 011e 07       		.uleb128 0x7
 920 011f 04       		.byte	0x4
 921 0120 CA000000 		.4byte	0xca
 922 0124 09       		.uleb128 0x9
 923 0125 01       		.byte	0x1
 924 0126 50000000 		.4byte	0x50
 925 012a 08       		.byte	0x8
 926 012b 35       		.byte	0x35
 927 012c 55010000 		.4byte	0x155
 928 0130 0A       		.uleb128 0xa
 929 0131 1F060000 		.4byte	.LASF25
 930 0135 00       		.byte	0
 931 0136 0A       		.uleb128 0xa
 932 0137 24050000 		.4byte	.LASF26
 933 013b 01       		.byte	0x1
 934 013c 0A       		.uleb128 0xa
 935 013d E8020000 		.4byte	.LASF27
 936 0141 02       		.byte	0x2
 937 0142 0A       		.uleb128 0xa
 938 0143 52030000 		.4byte	.LASF28
 939 0147 03       		.byte	0x3
 940 0148 0A       		.uleb128 0xa
 941 0149 7D040000 		.4byte	.LASF29
 942 014d 04       		.byte	0x4
 943 014e 0A       		.uleb128 0xa
 944 014f 32040000 		.4byte	.LASF30
 945 0153 05       		.byte	0x5
 946 0154 00       		.byte	0
 947 0155 0B       		.uleb128 0xb
 948 0156 31030000 		.4byte	.LASF47
 949 015a 10       		.byte	0x10
 950 015b 07       		.byte	0x7
 951 015c 3C       		.byte	0x3c
 952 015d 9E010000 		.4byte	0x19e
 953 0161 0C       		.uleb128 0xc
 954 0162 A4060000 		.4byte	.LASF31
 955 0166 07       		.byte	0x7
 956 0167 3E       		.byte	0x3e
 957 0168 CA000000 		.4byte	0xca
 958 016c 00       		.byte	0
 959 016d 0C       		.uleb128 0xc
 960 016e 8A010000 		.4byte	.LASF32
 961 0172 07       		.byte	0x7
ARM GAS  C:\Users\eric\AppData\Local\Temp\cclFSUCi.s 			page 18


 962 0173 40       		.byte	0x40
 963 0174 BF000000 		.4byte	0xbf
 964 0178 04       		.byte	0x4
 965 0179 0C       		.uleb128 0xc
 966 017a 89030000 		.4byte	.LASF33
 967 017e 07       		.byte	0x7
 968 017f 42       		.byte	0x42
 969 0180 BF000000 		.4byte	0xbf
 970 0184 06       		.byte	0x6
 971 0185 0C       		.uleb128 0xc
 972 0186 28040000 		.4byte	.LASF34
 973 018a 07       		.byte	0x7
 974 018b 44       		.byte	0x44
 975 018c BF000000 		.4byte	0xbf
 976 0190 08       		.byte	0x8
 977 0191 0C       		.uleb128 0xc
 978 0192 7D050000 		.4byte	.LASF35
 979 0196 07       		.byte	0x7
 980 0197 45       		.byte	0x45
 981 0198 9E010000 		.4byte	0x19e
 982 019c 0A       		.byte	0xa
 983 019d 00       		.byte	0
 984 019e 0D       		.uleb128 0xd
 985 019f BF000000 		.4byte	0xbf
 986 01a3 AE010000 		.4byte	0x1ae
 987 01a7 0E       		.uleb128 0xe
 988 01a8 EC000000 		.4byte	0xec
 989 01ac 02       		.byte	0x2
 990 01ad 00       		.byte	0
 991 01ae 04       		.uleb128 0x4
 992 01af 8C060000 		.4byte	.LASF36
 993 01b3 07       		.byte	0x7
 994 01b4 46       		.byte	0x46
 995 01b5 55010000 		.4byte	0x155
 996 01b9 0F       		.uleb128 0xf
 997 01ba 01       		.byte	0x1
 998 01bb 50000000 		.4byte	0x50
 999 01bf 07       		.byte	0x7
 1000 01c0 4B       		.byte	0x4b
 1001 01c1 4F050000 		.4byte	.LASF117
 1002 01c5 00020000 		.4byte	0x200
 1003 01c9 0A       		.uleb128 0xa
 1004 01ca AA010000 		.4byte	.LASF37
 1005 01ce 00       		.byte	0
 1006 01cf 0A       		.uleb128 0xa
 1007 01d0 BF010000 		.4byte	.LASF38
 1008 01d4 01       		.byte	0x1
 1009 01d5 0A       		.uleb128 0xa
 1010 01d6 D4010000 		.4byte	.LASF39
 1011 01da 02       		.byte	0x2
 1012 01db 0A       		.uleb128 0xa
 1013 01dc E9010000 		.4byte	.LASF40
 1014 01e0 03       		.byte	0x3
 1015 01e1 0A       		.uleb128 0xa
 1016 01e2 FE010000 		.4byte	.LASF41
 1017 01e6 04       		.byte	0x4
 1018 01e7 0A       		.uleb128 0xa
ARM GAS  C:\Users\eric\AppData\Local\Temp\cclFSUCi.s 			page 19


 1019 01e8 13020000 		.4byte	.LASF42
 1020 01ec 05       		.byte	0x5
 1021 01ed 0A       		.uleb128 0xa
 1022 01ee 38050000 		.4byte	.LASF43
 1023 01f2 06       		.byte	0x6
 1024 01f3 0A       		.uleb128 0xa
 1025 01f4 AE040000 		.4byte	.LASF44
 1026 01f8 07       		.byte	0x7
 1027 01f9 0A       		.uleb128 0xa
 1028 01fa 6E020000 		.4byte	.LASF45
 1029 01fe 08       		.byte	0x8
 1030 01ff 00       		.byte	0
 1031 0200 04       		.uleb128 0x4
 1032 0201 90010000 		.4byte	.LASF46
 1033 0205 07       		.byte	0x7
 1034 0206 5D       		.byte	0x5d
 1035 0207 B9010000 		.4byte	0x1b9
 1036 020b 07       		.uleb128 0x7
 1037 020c 04       		.byte	0x4
 1038 020d 11020000 		.4byte	0x211
 1039 0211 08       		.uleb128 0x8
 1040 0212 AE010000 		.4byte	0x1ae
 1041 0216 0B       		.uleb128 0xb
 1042 0217 A4010000 		.4byte	.LASF48
 1043 021b 34       		.byte	0x34
 1044 021c 01       		.byte	0x1
 1045 021d 2B       		.byte	0x2b
 1046 021e BF020000 		.4byte	0x2bf
 1047 0222 0C       		.uleb128 0xc
 1048 0223 7A030000 		.4byte	.LASF49
 1049 0227 01       		.byte	0x1
 1050 0228 2C       		.byte	0x2c
 1051 0229 25000000 		.4byte	0x25
 1052 022d 00       		.byte	0
 1053 022e 10       		.uleb128 0x10
 1054 022f 6C666F00 		.ascii	"lfo\000"
 1055 0233 01       		.byte	0x1
 1056 0234 2D       		.byte	0x2d
 1057 0235 25000000 		.4byte	0x25
 1058 0239 04       		.byte	0x4
 1059 023a 0C       		.uleb128 0xc
 1060 023b 6E050000 		.4byte	.LASF50
 1061 023f 01       		.byte	0x1
 1062 0240 2D       		.byte	0x2d
 1063 0241 25000000 		.4byte	0x25
 1064 0245 08       		.byte	0x8
 1065 0246 0C       		.uleb128 0xc
 1066 0247 2D000000 		.4byte	.LASF51
 1067 024b 01       		.byte	0x1
 1068 024c 2E       		.byte	0x2e
 1069 024d B4000000 		.4byte	0xb4
 1070 0251 0C       		.byte	0xc
 1071 0252 0C       		.uleb128 0xc
 1072 0253 26000000 		.4byte	.LASF52
 1073 0257 01       		.byte	0x1
 1074 0258 2F       		.byte	0x2f
 1075 0259 CA000000 		.4byte	0xca
ARM GAS  C:\Users\eric\AppData\Local\Temp\cclFSUCi.s 			page 20


 1076 025d 10       		.byte	0x10
 1077 025e 0C       		.uleb128 0xc
 1078 025f 5B040000 		.4byte	.LASF53
 1079 0263 01       		.byte	0x1
 1080 0264 30       		.byte	0x30
 1081 0265 25000000 		.4byte	0x25
 1082 0269 14       		.byte	0x14
 1083 026a 0C       		.uleb128 0xc
 1084 026b 21040000 		.4byte	.LASF54
 1085 026f 01       		.byte	0x1
 1086 0270 31       		.byte	0x31
 1087 0271 CA000000 		.4byte	0xca
 1088 0275 18       		.byte	0x18
 1089 0276 0C       		.uleb128 0xc
 1090 0277 51060000 		.4byte	.LASF55
 1091 027b 01       		.byte	0x1
 1092 027c 32       		.byte	0x32
 1093 027d 25000000 		.4byte	0x25
 1094 0281 1C       		.byte	0x1c
 1095 0282 0C       		.uleb128 0xc
 1096 0283 1E050000 		.4byte	.LASF56
 1097 0287 01       		.byte	0x1
 1098 0288 33       		.byte	0x33
 1099 0289 25000000 		.4byte	0x25
 1100 028d 20       		.byte	0x20
 1101 028e 0C       		.uleb128 0xc
 1102 028f A4040000 		.4byte	.LASF57
 1103 0293 01       		.byte	0x1
 1104 0294 34       		.byte	0x34
 1105 0295 A9000000 		.4byte	0xa9
 1106 0299 24       		.byte	0x24
 1107 029a 0C       		.uleb128 0xc
 1108 029b 66040000 		.4byte	.LASF58
 1109 029f 01       		.byte	0x1
 1110 02a0 35       		.byte	0x35
 1111 02a1 25000000 		.4byte	0x25
 1112 02a5 28       		.byte	0x28
 1113 02a6 0C       		.uleb128 0xc
 1114 02a7 65050000 		.4byte	.LASF59
 1115 02ab 01       		.byte	0x1
 1116 02ac 36       		.byte	0x36
 1117 02ad 25000000 		.4byte	0x25
 1118 02b1 2C       		.byte	0x2c
 1119 02b2 0C       		.uleb128 0xc
 1120 02b3 14050000 		.4byte	.LASF60
 1121 02b7 01       		.byte	0x1
 1122 02b8 37       		.byte	0x37
 1123 02b9 25000000 		.4byte	0x25
 1124 02bd 30       		.byte	0x30
 1125 02be 00       		.byte	0
 1126 02bf 04       		.uleb128 0x4
 1127 02c0 A4010000 		.4byte	.LASF48
 1128 02c4 01       		.byte	0x1
 1129 02c5 38       		.byte	0x38
 1130 02c6 16020000 		.4byte	0x216
 1131 02ca 0B       		.uleb128 0xb
 1132 02cb 80030000 		.4byte	.LASF61
ARM GAS  C:\Users\eric\AppData\Local\Temp\cclFSUCi.s 			page 21


 1133 02cf 08       		.byte	0x8
 1134 02d0 01       		.byte	0x1
 1135 02d1 3C       		.byte	0x3c
 1136 02d2 EE020000 		.4byte	0x2ee
 1137 02d6 0C       		.uleb128 0xc
 1138 02d7 20000000 		.4byte	.LASF62
 1139 02db 01       		.byte	0x1
 1140 02dc 3D       		.byte	0x3d
 1141 02dd 25000000 		.4byte	0x25
 1142 02e1 00       		.byte	0
 1143 02e2 10       		.uleb128 0x10
 1144 02e3 773000   		.ascii	"w0\000"
 1145 02e6 01       		.byte	0x1
 1146 02e7 3E       		.byte	0x3e
 1147 02e8 25000000 		.4byte	0x25
 1148 02ec 04       		.byte	0x4
 1149 02ed 00       		.byte	0
 1150 02ee 09       		.uleb128 0x9
 1151 02ef 01       		.byte	0x1
 1152 02f0 50000000 		.4byte	0x50
 1153 02f4 01       		.byte	0x1
 1154 02f5 44       		.byte	0x44
 1155 02f6 07030000 		.4byte	0x307
 1156 02fa 0A       		.uleb128 0xa
 1157 02fb A1030000 		.4byte	.LASF63
 1158 02ff 00       		.byte	0
 1159 0300 0A       		.uleb128 0xa
 1160 0301 0C040000 		.4byte	.LASF64
 1161 0305 01       		.byte	0x1
 1162 0306 00       		.byte	0
 1163 0307 11       		.uleb128 0x11
 1164 0308 A3050000 		.4byte	.LASF65
 1165 030c 03       		.byte	0x3
 1166 030d C0       		.byte	0xc0
 1167 030e 25000000 		.4byte	0x25
 1168 0312 03       		.byte	0x3
 1169 0313 33030000 		.4byte	0x333
 1170 0317 12       		.uleb128 0x12
 1171 0318 6100     		.ascii	"a\000"
 1172 031a 03       		.byte	0x3
 1173 031b C0       		.byte	0xc0
 1174 031c 33030000 		.4byte	0x333
 1175 0320 12       		.uleb128 0x12
 1176 0321 6200     		.ascii	"b\000"
 1177 0323 03       		.byte	0x3
 1178 0324 C0       		.byte	0xc0
 1179 0325 33030000 		.4byte	0x333
 1180 0329 12       		.uleb128 0x12
 1181 032a 6300     		.ascii	"c\000"
 1182 032c 03       		.byte	0x3
 1183 032d C0       		.byte	0xc0
 1184 032e 33030000 		.4byte	0x333
 1185 0332 00       		.byte	0
 1186 0333 08       		.uleb128 0x8
 1187 0334 25000000 		.4byte	0x25
 1188 0338 13       		.uleb128 0x13
 1189 0339 C2060000 		.4byte	.LASF66
ARM GAS  C:\Users\eric\AppData\Local\Temp\cclFSUCi.s 			page 22


 1190 033d 03       		.byte	0x3
 1191 033e 4901     		.2byte	0x149
 1192 0340 25000000 		.4byte	0x25
 1193 0344 03       		.byte	0x3
 1194 0345 60030000 		.4byte	0x360
 1195 0349 14       		.uleb128 0x14
 1196 034a 7800     		.ascii	"x\000"
 1197 034c 03       		.byte	0x3
 1198 034d 4901     		.2byte	0x149
 1199 034f 33030000 		.4byte	0x333
 1200 0353 14       		.uleb128 0x14
 1201 0354 6D617800 		.ascii	"max\000"
 1202 0358 03       		.byte	0x3
 1203 0359 4901     		.2byte	0x149
 1204 035b 33030000 		.4byte	0x333
 1205 035f 00       		.byte	0
 1206 0360 13       		.uleb128 0x13
 1207 0361 AC020000 		.4byte	.LASF67
 1208 0365 03       		.byte	0x3
 1209 0366 3C01     		.2byte	0x13c
 1210 0368 25000000 		.4byte	0x25
 1211 036c 03       		.byte	0x3
 1212 036d 94030000 		.4byte	0x394
 1213 0371 14       		.uleb128 0x14
 1214 0372 6D696E00 		.ascii	"min\000"
 1215 0376 03       		.byte	0x3
 1216 0377 3C01     		.2byte	0x13c
 1217 0379 33030000 		.4byte	0x333
 1218 037d 14       		.uleb128 0x14
 1219 037e 7800     		.ascii	"x\000"
 1220 0380 03       		.byte	0x3
 1221 0381 3C01     		.2byte	0x13c
 1222 0383 25000000 		.4byte	0x25
 1223 0387 14       		.uleb128 0x14
 1224 0388 6D617800 		.ascii	"max\000"
 1225 038c 03       		.byte	0x3
 1226 038d 3C01     		.2byte	0x13c
 1227 038f 33030000 		.4byte	0x333
 1228 0393 00       		.byte	0
 1229 0394 11       		.uleb128 0x11
 1230 0395 45040000 		.4byte	.LASF68
 1231 0399 09       		.byte	0x9
 1232 039a 54       		.byte	0x54
 1233 039b D5000000 		.4byte	0xd5
 1234 039f 03       		.byte	0x3
 1235 03a0 B7030000 		.4byte	0x3b7
 1236 03a4 12       		.uleb128 0x12
 1237 03a5 7800     		.ascii	"x\000"
 1238 03a7 09       		.byte	0x9
 1239 03a8 54       		.byte	0x54
 1240 03a9 B7030000 		.4byte	0x3b7
 1241 03ad 12       		.uleb128 0x12
 1242 03ae 6D00     		.ascii	"m\000"
 1243 03b0 09       		.byte	0x9
 1244 03b1 54       		.byte	0x54
 1245 03b2 B7030000 		.4byte	0x3b7
 1246 03b6 00       		.byte	0
ARM GAS  C:\Users\eric\AppData\Local\Temp\cclFSUCi.s 			page 23


 1247 03b7 08       		.uleb128 0x8
 1248 03b8 D5000000 		.4byte	0xd5
 1249 03bc 13       		.uleb128 0x13
 1250 03bd F5030000 		.4byte	.LASF69
 1251 03c1 03       		.byte	0x3
 1252 03c2 8501     		.2byte	0x185
 1253 03c4 25000000 		.4byte	0x25
 1254 03c8 03       		.byte	0x3
 1255 03c9 E2030000 		.4byte	0x3e2
 1256 03cd 14       		.uleb128 0x14
 1257 03ce 7800     		.ascii	"x\000"
 1258 03d0 03       		.byte	0x3
 1259 03d1 8501     		.2byte	0x185
 1260 03d3 33030000 		.4byte	0x333
 1261 03d7 14       		.uleb128 0x14
 1262 03d8 6D00     		.ascii	"m\000"
 1263 03da 03       		.byte	0x3
 1264 03db 8501     		.2byte	0x185
 1265 03dd 33030000 		.4byte	0x333
 1266 03e1 00       		.byte	0
 1267 03e2 13       		.uleb128 0x13
 1268 03e3 FE050000 		.4byte	.LASF70
 1269 03e7 03       		.byte	0x3
 1270 03e8 3803     		.2byte	0x338
 1271 03ea 25000000 		.4byte	0x25
 1272 03ee 03       		.byte	0x3
 1273 03ef 15040000 		.4byte	0x415
 1274 03f3 14       		.uleb128 0x14
 1275 03f4 667200   		.ascii	"fr\000"
 1276 03f7 03       		.byte	0x3
 1277 03f8 3803     		.2byte	0x338
 1278 03fa 33030000 		.4byte	0x333
 1279 03fe 14       		.uleb128 0x14
 1280 03ff 783000   		.ascii	"x0\000"
 1281 0402 03       		.byte	0x3
 1282 0403 3803     		.2byte	0x338
 1283 0405 33030000 		.4byte	0x333
 1284 0409 14       		.uleb128 0x14
 1285 040a 783100   		.ascii	"x1\000"
 1286 040d 03       		.byte	0x3
 1287 040e 3803     		.2byte	0x338
 1288 0410 33030000 		.4byte	0x333
 1289 0414 00       		.byte	0
 1290 0415 11       		.uleb128 0x11
 1291 0416 D6030000 		.4byte	.LASF71
 1292 041a 02       		.byte	0x2
 1293 041b 72       		.byte	0x72
 1294 041c 25000000 		.4byte	0x25
 1295 0420 03       		.byte	0x3
 1296 0421 31040000 		.4byte	0x431
 1297 0425 15       		.uleb128 0x15
 1298 0426 B5050000 		.4byte	.LASF72
 1299 042a 02       		.byte	0x2
 1300 042b 72       		.byte	0x72
 1301 042c B4000000 		.4byte	0xb4
 1302 0430 00       		.byte	0
 1303 0431 13       		.uleb128 0x13
ARM GAS  C:\Users\eric\AppData\Local\Temp\cclFSUCi.s 			page 24


 1304 0432 B9060000 		.4byte	.LASF73
 1305 0436 03       		.byte	0x3
 1306 0437 AF01     		.2byte	0x1af
 1307 0439 25000000 		.4byte	0x25
 1308 043d 03       		.byte	0x3
 1309 043e 4D040000 		.4byte	0x44d
 1310 0442 14       		.uleb128 0x14
 1311 0443 7800     		.ascii	"x\000"
 1312 0445 03       		.byte	0x3
 1313 0446 AF01     		.2byte	0x1af
 1314 0448 33030000 		.4byte	0x333
 1315 044c 00       		.byte	0
 1316 044d 11       		.uleb128 0x11
 1317 044e 7B060000 		.4byte	.LASF74
 1318 0452 02       		.byte	0x2
 1319 0453 7C       		.byte	0x7c
 1320 0454 25000000 		.4byte	0x25
 1321 0458 03       		.byte	0x3
 1322 0459 91040000 		.4byte	0x491
 1323 045d 15       		.uleb128 0x15
 1324 045e B5050000 		.4byte	.LASF72
 1325 0462 02       		.byte	0x2
 1326 0463 7C       		.byte	0x7c
 1327 0464 B4000000 		.4byte	0xb4
 1328 0468 12       		.uleb128 0x12
 1329 0469 6D6F6400 		.ascii	"mod\000"
 1330 046d 02       		.byte	0x2
 1331 046e 7C       		.byte	0x7c
 1332 046f B4000000 		.4byte	0xb4
 1333 0473 16       		.uleb128 0x16
 1334 0474 663000   		.ascii	"f0\000"
 1335 0477 02       		.byte	0x2
 1336 0478 7D       		.byte	0x7d
 1337 0479 33030000 		.4byte	0x333
 1338 047d 16       		.uleb128 0x16
 1339 047e 663100   		.ascii	"f1\000"
 1340 0481 02       		.byte	0x2
 1341 0482 7E       		.byte	0x7e
 1342 0483 33030000 		.4byte	0x333
 1343 0487 16       		.uleb128 0x16
 1344 0488 6600     		.ascii	"f\000"
 1345 048a 02       		.byte	0x2
 1346 048b 80       		.byte	0x80
 1347 048c 33030000 		.4byte	0x333
 1348 0490 00       		.byte	0
 1349 0491 11       		.uleb128 0x11
 1350 0492 46030000 		.4byte	.LASF75
 1351 0496 01       		.byte	0x1
 1352 0497 55       		.byte	0x55
 1353 0498 BF000000 		.4byte	0xbf
 1354 049c 03       		.byte	0x3
 1355 049d E4040000 		.4byte	0x4e4
 1356 04a1 15       		.uleb128 0x15
 1357 04a2 8A010000 		.4byte	.LASF32
 1358 04a6 01       		.byte	0x1
 1359 04a7 55       		.byte	0x55
 1360 04a8 B4000000 		.4byte	0xb4
ARM GAS  C:\Users\eric\AppData\Local\Temp\cclFSUCi.s 			page 25


 1361 04ac 12       		.uleb128 0x12
 1362 04ad 6D6F6400 		.ascii	"mod\000"
 1363 04b1 01       		.byte	0x1
 1364 04b2 55       		.byte	0x55
 1365 04b3 B4000000 		.4byte	0xb4
 1366 04b7 15       		.uleb128 0x15
 1367 04b8 50040000 		.4byte	.LASF76
 1368 04bc 01       		.byte	0x1
 1369 04bd 55       		.byte	0x55
 1370 04be CA000000 		.4byte	0xca
 1371 04c2 16       		.uleb128 0x16
 1372 04c3 72657300 		.ascii	"res\000"
 1373 04c7 01       		.byte	0x1
 1374 04c8 58       		.byte	0x58
 1375 04c9 BF000000 		.4byte	0xbf
 1376 04cd 17       		.uleb128 0x17
 1377 04ce 66030000 		.4byte	.LASF77
 1378 04d2 01       		.byte	0x1
 1379 04d3 5B       		.byte	0x5b
 1380 04d4 CA000000 		.4byte	0xca
 1381 04d8 17       		.uleb128 0x17
 1382 04d9 95030000 		.4byte	.LASF78
 1383 04dd 01       		.byte	0x1
 1384 04de 5C       		.byte	0x5c
 1385 04df CA000000 		.4byte	0xca
 1386 04e3 00       		.byte	0
 1387 04e4 18       		.uleb128 0x18
 1388 04e5 13030000 		.4byte	.LASF118
 1389 04e9 02       		.byte	0x2
 1390 04ea 0B03     		.2byte	0x30b
 1391 04ec 25000000 		.4byte	0x25
 1392 04f0 03       		.byte	0x3
 1393 04f1 11       		.uleb128 0x11
 1394 04f2 63020000 		.4byte	.LASF79
 1395 04f6 01       		.byte	0x1
 1396 04f7 6A       		.byte	0x6a
 1397 04f8 25000000 		.4byte	0x25
 1398 04fc 03       		.byte	0x3
 1399 04fd 23050000 		.4byte	0x523
 1400 0501 15       		.uleb128 0x15
 1401 0502 20000000 		.4byte	.LASF62
 1402 0506 01       		.byte	0x1
 1403 0507 6A       		.byte	0x6a
 1404 0508 25000000 		.4byte	0x25
 1405 050c 16       		.uleb128 0x16
 1406 050d 73617700 		.ascii	"saw\000"
 1407 0511 01       		.byte	0x1
 1408 0512 6B       		.byte	0x6b
 1409 0513 25000000 		.4byte	0x25
 1410 0517 16       		.uleb128 0x16
 1411 0518 73717200 		.ascii	"sqr\000"
 1412 051c 01       		.byte	0x1
 1413 051d 6C       		.byte	0x6c
 1414 051e 25000000 		.4byte	0x25
 1415 0522 00       		.byte	0
 1416 0523 13       		.uleb128 0x13
 1417 0524 9E020000 		.4byte	.LASF80
ARM GAS  C:\Users\eric\AppData\Local\Temp\cclFSUCi.s 			page 26


 1418 0528 02       		.byte	0x2
 1419 0529 9F02     		.2byte	0x29f
 1420 052b 25000000 		.4byte	0x25
 1421 052f 03       		.byte	0x3
 1422 0530 49050000 		.4byte	0x549
 1423 0534 14       		.uleb128 0x14
 1424 0535 6300     		.ascii	"c\000"
 1425 0537 02       		.byte	0x2
 1426 0538 9F02     		.2byte	0x29f
 1427 053a 33030000 		.4byte	0x333
 1428 053e 14       		.uleb128 0x14
 1429 053f 7800     		.ascii	"x\000"
 1430 0541 02       		.byte	0x2
 1431 0542 9F02     		.2byte	0x29f
 1432 0544 25000000 		.4byte	0x25
 1433 0548 00       		.byte	0
 1434 0549 11       		.uleb128 0x11
 1435 054a E2030000 		.4byte	.LASF81
 1436 054e 01       		.byte	0x1
 1437 054f 70       		.byte	0x70
 1438 0550 25000000 		.4byte	0x25
 1439 0554 03       		.byte	0x3
 1440 0555 65050000 		.4byte	0x565
 1441 0559 12       		.uleb128 0x12
 1442 055a 73696700 		.ascii	"sig\000"
 1443 055e 01       		.byte	0x1
 1444 055f 70       		.byte	0x70
 1445 0560 25000000 		.4byte	0x25
 1446 0564 00       		.byte	0
 1447 0565 19       		.uleb128 0x19
 1448 0566 CA040000 		.4byte	.LASF83
 1449 056a 01       		.byte	0x1
 1450 056b 49       		.byte	0x49
 1451 056c 00000000 		.4byte	.LFB239
 1452 0570 2C000000 		.4byte	.LFE239-.LFB239
 1453 0574 01       		.uleb128 0x1
 1454 0575 9C       		.byte	0x9c
 1455 0576 97050000 		.4byte	0x597
 1456 057a 1A       		.uleb128 0x1a
 1457 057b 78010000 		.4byte	.LASF82
 1458 057f 01       		.byte	0x1
 1459 0580 49       		.byte	0x49
 1460 0581 D5000000 		.4byte	0xd5
 1461 0585 01       		.uleb128 0x1
 1462 0586 50       		.byte	0x50
 1463 0587 1B       		.uleb128 0x1b
 1464 0588 61706900 		.ascii	"api\000"
 1465 058c 01       		.byte	0x1
 1466 058d 49       		.byte	0x49
 1467 058e D5000000 		.4byte	0xd5
 1468 0592 00000000 		.4byte	.LLST0
 1469 0596 00       		.byte	0
 1470 0597 19       		.uleb128 0x19
 1471 0598 86020000 		.4byte	.LASF84
 1472 059c 01       		.byte	0x1
 1473 059d 79       		.byte	0x79
 1474 059e 2C000000 		.4byte	.LFB243
ARM GAS  C:\Users\eric\AppData\Local\Temp\cclFSUCi.s 			page 27


 1475 05a2 7C020000 		.4byte	.LFE243-.LFB243
 1476 05a6 01       		.uleb128 0x1
 1477 05a7 9C       		.byte	0x9c
 1478 05a8 3B090000 		.4byte	0x93b
 1479 05ac 1C       		.uleb128 0x1c
 1480 05ad 00000000 		.4byte	.LASF85
 1481 05b1 01       		.byte	0x1
 1482 05b2 79       		.byte	0x79
 1483 05b3 3B090000 		.4byte	0x93b
 1484 05b7 21000000 		.4byte	.LLST1
 1485 05bb 1B       		.uleb128 0x1b
 1486 05bc 796E00   		.ascii	"yn\000"
 1487 05bf 01       		.byte	0x1
 1488 05c0 7A       		.byte	0x7a
 1489 05c1 1E010000 		.4byte	0x11e
 1490 05c5 42000000 		.4byte	.LLST2
 1491 05c9 1C       		.uleb128 0x1c
 1492 05ca B8030000 		.4byte	.LASF86
 1493 05ce 01       		.byte	0x1
 1494 05cf 7B       		.byte	0x7b
 1495 05d0 B7030000 		.4byte	0x3b7
 1496 05d4 6E000000 		.4byte	.LLST3
 1497 05d8 1D       		.uleb128 0x1d
 1498 05d9 2D000000 		.4byte	.LASF51
 1499 05dd 01       		.byte	0x1
 1500 05de 7D       		.byte	0x7d
 1501 05df 40090000 		.4byte	0x940
 1502 05e3 8F000000 		.4byte	.LLST4
 1503 05e7 1E       		.uleb128 0x1e
 1504 05e8 7A030000 		.4byte	.LASF49
 1505 05ec 01       		.byte	0x1
 1506 05ed 80       		.byte	0x80
 1507 05ee 33030000 		.4byte	0x333
 1508 05f2 02       		.uleb128 0x2
 1509 05f3 90       		.byte	0x90
 1510 05f4 51       		.uleb128 0x51
 1511 05f5 16       		.uleb128 0x16
 1512 05f6 6C666F00 		.ascii	"lfo\000"
 1513 05fa 01       		.byte	0x1
 1514 05fb 82       		.byte	0x82
 1515 05fc 33030000 		.4byte	0x333
 1516 0600 1D       		.uleb128 0x1d
 1517 0601 6E050000 		.4byte	.LASF50
 1518 0605 01       		.byte	0x1
 1519 0606 83       		.byte	0x83
 1520 0607 25000000 		.4byte	0x25
 1521 060b B1000000 		.4byte	.LLST5
 1522 060f 1D       		.uleb128 0x1d
 1523 0610 19040000 		.4byte	.LASF87
 1524 0614 01       		.byte	0x1
 1525 0615 84       		.byte	0x84
 1526 0616 33030000 		.4byte	0x333
 1527 061a D4000000 		.4byte	.LLST6
 1528 061e 1F       		.uleb128 0x1f
 1529 061f 7900     		.ascii	"y\000"
 1530 0621 01       		.byte	0x1
 1531 0622 86       		.byte	0x86
ARM GAS  C:\Users\eric\AppData\Local\Temp\cclFSUCi.s 			page 28


 1532 0623 0D010000 		.4byte	0x10d
 1533 0627 E8000000 		.4byte	.LLST7
 1534 062b 1F       		.uleb128 0x1f
 1535 062c 795F6500 		.ascii	"y_e\000"
 1536 0630 01       		.byte	0x1
 1537 0631 87       		.byte	0x87
 1538 0632 13010000 		.4byte	0x113
 1539 0636 13010000 		.4byte	.LLST8
 1540 063a 17       		.uleb128 0x17
 1541 063b 26000000 		.4byte	.LASF52
 1542 063f 01       		.byte	0x1
 1543 0640 89       		.byte	0x89
 1544 0641 B4000000 		.4byte	0xb4
 1545 0645 1D       		.uleb128 0x1d
 1546 0646 21040000 		.4byte	.LASF54
 1547 064a 01       		.byte	0x1
 1548 064b 8A       		.byte	0x8a
 1549 064c B4000000 		.4byte	0xb4
 1550 0650 3A010000 		.4byte	.LLST9
 1551 0654 1D       		.uleb128 0x1d
 1552 0655 8A010000 		.4byte	.LASF32
 1553 0659 01       		.byte	0x1
 1554 065a 8D       		.byte	0x8d
 1555 065b B4000000 		.4byte	0xb4
 1556 065f 51010000 		.4byte	.LLST10
 1557 0663 16       		.uleb128 0x16
 1558 0664 6D6F6400 		.ascii	"mod\000"
 1559 0668 01       		.byte	0x1
 1560 0669 8E       		.byte	0x8e
 1561 066a B4000000 		.4byte	0xb4
 1562 066e 1F       		.uleb128 0x1f
 1563 066f 6900     		.ascii	"i\000"
 1564 0671 01       		.byte	0x1
 1565 0672 8F       		.byte	0x8f
 1566 0673 2C000000 		.4byte	0x2c
 1567 0677 64010000 		.4byte	.LLST11
 1568 067b 17       		.uleb128 0x17
 1569 067c 72030000 		.4byte	.LASF88
 1570 0680 01       		.byte	0x1
 1571 0681 90       		.byte	0x90
 1572 0682 CA000000 		.4byte	0xca
 1573 0686 20       		.uleb128 0x20
 1574 0687 00000000 		.4byte	.Ldebug_ranges0+0
 1575 068b 03080000 		.4byte	0x803
 1576 068f 1E       		.uleb128 0x1e
 1577 0690 46060000 		.4byte	.LASF89
 1578 0694 01       		.byte	0x1
 1579 0695 92       		.byte	0x92
 1580 0696 BF000000 		.4byte	0xbf
 1581 069a 01       		.uleb128 0x1
 1582 069b 53       		.byte	0x53
 1583 069c 21       		.uleb128 0x21
 1584 069d 4D040000 		.4byte	0x44d
 1585 06a1 80000000 		.4byte	.LBB86
 1586 06a5 20000000 		.4byte	.Ldebug_ranges0+0x20
 1587 06a9 01       		.byte	0x1
 1588 06aa 94       		.byte	0x94
ARM GAS  C:\Users\eric\AppData\Local\Temp\cclFSUCi.s 			page 29


 1589 06ab 99070000 		.4byte	0x799
 1590 06af 22       		.uleb128 0x22
 1591 06b0 68040000 		.4byte	0x468
 1592 06b4 78010000 		.4byte	.LLST12
 1593 06b8 22       		.uleb128 0x22
 1594 06b9 5D040000 		.4byte	0x45d
 1595 06bd F1010000 		.4byte	.LLST13
 1596 06c1 23       		.uleb128 0x23
 1597 06c2 20000000 		.4byte	.Ldebug_ranges0+0x20
 1598 06c6 24       		.uleb128 0x24
 1599 06c7 73040000 		.4byte	0x473
 1600 06cb 24       		.uleb128 0x24
 1601 06cc 7D040000 		.4byte	0x47d
 1602 06d0 24       		.uleb128 0x24
 1603 06d1 87040000 		.4byte	0x487
 1604 06d5 21       		.uleb128 0x21
 1605 06d6 15040000 		.4byte	0x415
 1606 06da 80000000 		.4byte	.LBB88
 1607 06de 48000000 		.4byte	.Ldebug_ranges0+0x48
 1608 06e2 02       		.byte	0x2
 1609 06e3 7D       		.byte	0x7d
 1610 06e4 F2060000 		.4byte	0x6f2
 1611 06e8 22       		.uleb128 0x22
 1612 06e9 25040000 		.4byte	0x425
 1613 06ed 71020000 		.4byte	.LLST14
 1614 06f1 00       		.byte	0
 1615 06f2 21       		.uleb128 0x21
 1616 06f3 E2030000 		.4byte	0x3e2
 1617 06f7 96000000 		.4byte	.LBB95
 1618 06fb 80000000 		.4byte	.Ldebug_ranges0+0x80
 1619 06ff 02       		.byte	0x2
 1620 0700 80       		.byte	0x80
 1621 0701 19070000 		.4byte	0x719
 1622 0705 25       		.uleb128 0x25
 1623 0706 09040000 		.4byte	0x409
 1624 070a 25       		.uleb128 0x25
 1625 070b FE030000 		.4byte	0x3fe
 1626 070f 22       		.uleb128 0x22
 1627 0710 F3030000 		.4byte	0x3f3
 1628 0714 F1020000 		.4byte	.LLST15
 1629 0718 00       		.byte	0
 1630 0719 21       		.uleb128 0x21
 1631 071a 15040000 		.4byte	0x415
 1632 071e E2000000 		.4byte	.LBB101
 1633 0722 98000000 		.4byte	.Ldebug_ranges0+0x98
 1634 0726 02       		.byte	0x2
 1635 0727 7E       		.byte	0x7e
 1636 0728 32070000 		.4byte	0x732
 1637 072c 25       		.uleb128 0x25
 1638 072d 25040000 		.4byte	0x425
 1639 0731 00       		.byte	0
 1640 0732 26       		.uleb128 0x26
 1641 0733 BC030000 		.4byte	0x3bc
 1642 0737 0C010000 		.4byte	.LBB108
 1643 073b 12000000 		.4byte	.LBE108-.LBB108
 1644 073f 02       		.byte	0x2
 1645 0740 80       		.byte	0x80
ARM GAS  C:\Users\eric\AppData\Local\Temp\cclFSUCi.s 			page 30


 1646 0741 22       		.uleb128 0x22
 1647 0742 D7030000 		.4byte	0x3d7
 1648 0746 7F030000 		.4byte	.LLST16
 1649 074a 25       		.uleb128 0x25
 1650 074b CD030000 		.4byte	0x3cd
 1651 074f 27       		.uleb128 0x27
 1652 0750 38030000 		.4byte	0x338
 1653 0754 0C010000 		.4byte	.LBB109
 1654 0758 12000000 		.4byte	.LBE109-.LBB109
 1655 075c 03       		.byte	0x3
 1656 075d 8601     		.2byte	0x186
 1657 075f 22       		.uleb128 0x22
 1658 0760 53030000 		.4byte	0x353
 1659 0764 7F030000 		.4byte	.LLST16
 1660 0768 25       		.uleb128 0x25
 1661 0769 49030000 		.4byte	0x349
 1662 076d 27       		.uleb128 0x27
 1663 076e 07030000 		.4byte	0x307
 1664 0772 0C010000 		.4byte	.LBB110
 1665 0776 12000000 		.4byte	.LBE110-.LBB110
 1666 077a 03       		.byte	0x3
 1667 077b 4B01     		.2byte	0x14b
 1668 077d 25       		.uleb128 0x25
 1669 077e 29030000 		.4byte	0x329
 1670 0782 22       		.uleb128 0x22
 1671 0783 20030000 		.4byte	0x320
 1672 0787 7F030000 		.4byte	.LLST16
 1673 078b 22       		.uleb128 0x22
 1674 078c 17030000 		.4byte	0x317
 1675 0790 97030000 		.4byte	.LLST19
 1676 0794 00       		.byte	0
 1677 0795 00       		.byte	0
 1678 0796 00       		.byte	0
 1679 0797 00       		.byte	0
 1680 0798 00       		.byte	0
 1681 0799 28       		.uleb128 0x28
 1682 079a 91040000 		.4byte	0x491
 1683 079e A4000000 		.4byte	.LBB116
 1684 07a2 20000000 		.4byte	.LBE116-.LBB116
 1685 07a6 01       		.byte	0x1
 1686 07a7 92       		.byte	0x92
 1687 07a8 E9070000 		.4byte	0x7e9
 1688 07ac 25       		.uleb128 0x25
 1689 07ad B7040000 		.4byte	0x4b7
 1690 07b1 22       		.uleb128 0x22
 1691 07b2 AC040000 		.4byte	0x4ac
 1692 07b6 B5030000 		.4byte	.LLST20
 1693 07ba 22       		.uleb128 0x22
 1694 07bb A1040000 		.4byte	0x4a1
 1695 07bf C8030000 		.4byte	.LLST21
 1696 07c3 29       		.uleb128 0x29
 1697 07c4 A4000000 		.4byte	.LBB117
 1698 07c8 20000000 		.4byte	.LBE117-.LBB117
 1699 07cc 2A       		.uleb128 0x2a
 1700 07cd C2040000 		.4byte	0x4c2
 1701 07d1 E0030000 		.4byte	.LLST22
 1702 07d5 2A       		.uleb128 0x2a
ARM GAS  C:\Users\eric\AppData\Local\Temp\cclFSUCi.s 			page 31


 1703 07d6 CD040000 		.4byte	0x4cd
 1704 07da 06040000 		.4byte	.LLST23
 1705 07de 2A       		.uleb128 0x2a
 1706 07df D8040000 		.4byte	0x4d8
 1707 07e3 19040000 		.4byte	.LLST24
 1708 07e7 00       		.byte	0
 1709 07e8 00       		.byte	0
 1710 07e9 26       		.uleb128 0x26
 1711 07ea E4040000 		.4byte	0x4e4
 1712 07ee 38010000 		.4byte	.LBB120
 1713 07f2 04000000 		.4byte	.LBE120-.LBB120
 1714 07f6 01       		.byte	0x1
 1715 07f7 96       		.byte	0x96
 1716 07f8 2B       		.uleb128 0x2b
 1717 07f9 3C010000 		.4byte	.LVL27
 1718 07fd 1F0B0000 		.4byte	0xb1f
 1719 0801 00       		.byte	0
 1720 0802 00       		.byte	0
 1721 0803 23       		.uleb128 0x23
 1722 0804 B0000000 		.4byte	.Ldebug_ranges0+0xb0
 1723 0808 1D       		.uleb128 0x1d
 1724 0809 33000000 		.4byte	.LASF90
 1725 080d 01       		.byte	0x1
 1726 080e 9C       		.byte	0x9c
 1727 080f 25000000 		.4byte	0x25
 1728 0813 3C040000 		.4byte	.LLST25
 1729 0817 16       		.uleb128 0x16
 1730 0818 73696700 		.ascii	"sig\000"
 1731 081c 01       		.byte	0x1
 1732 081d A7       		.byte	0xa7
 1733 081e 33030000 		.4byte	0x333
 1734 0822 20       		.uleb128 0x20
 1735 0823 C8000000 		.4byte	.Ldebug_ranges0+0xc8
 1736 0827 6B080000 		.4byte	0x86b
 1737 082b 1D       		.uleb128 0x1d
 1738 082c 20000000 		.4byte	.LASF62
 1739 0830 01       		.byte	0x1
 1740 0831 9E       		.byte	0x9e
 1741 0832 25000000 		.4byte	0x25
 1742 0836 74040000 		.4byte	.LLST26
 1743 083a 2C       		.uleb128 0x2c
 1744 083b F1040000 		.4byte	0x4f1
 1745 083f 62010000 		.4byte	.LBB130
 1746 0843 E0000000 		.4byte	.Ldebug_ranges0+0xe0
 1747 0847 01       		.byte	0x1
 1748 0848 9F       		.byte	0x9f
 1749 0849 22       		.uleb128 0x22
 1750 084a 01050000 		.4byte	0x501
 1751 084e A6040000 		.4byte	.LLST27
 1752 0852 23       		.uleb128 0x23
 1753 0853 E0000000 		.4byte	.Ldebug_ranges0+0xe0
 1754 0857 2A       		.uleb128 0x2a
 1755 0858 0C050000 		.4byte	0x50c
 1756 085c BA040000 		.4byte	.LLST28
 1757 0860 2D       		.uleb128 0x2d
 1758 0861 17050000 		.4byte	0x517
 1759 0865 02       		.uleb128 0x2
ARM GAS  C:\Users\eric\AppData\Local\Temp\cclFSUCi.s 			page 32


 1760 0866 90       		.byte	0x90
 1761 0867 4D       		.uleb128 0x4d
 1762 0868 00       		.byte	0
 1763 0869 00       		.byte	0
 1764 086a 00       		.byte	0
 1765 086b 28       		.uleb128 0x28
 1766 086c E4040000 		.4byte	0x4e4
 1767 0870 D6010000 		.4byte	.LBB135
 1768 0874 04000000 		.4byte	.LBE135-.LBB135
 1769 0878 01       		.byte	0x1
 1770 0879 A5       		.byte	0xa5
 1771 087a 88080000 		.4byte	0x888
 1772 087e 2B       		.uleb128 0x2b
 1773 087f DA010000 		.4byte	.LVL39
 1774 0883 1F0B0000 		.4byte	0xb1f
 1775 0887 00       		.byte	0
 1776 0888 21       		.uleb128 0x21
 1777 0889 49050000 		.4byte	0x549
 1778 088d DE010000 		.4byte	.LBB137
 1779 0891 F8000000 		.4byte	.Ldebug_ranges0+0xf8
 1780 0895 01       		.byte	0x1
 1781 0896 A6       		.byte	0xa6
 1782 0897 A5080000 		.4byte	0x8a5
 1783 089b 22       		.uleb128 0x22
 1784 089c 59050000 		.4byte	0x559
 1785 08a0 CE040000 		.4byte	.LLST29
 1786 08a4 00       		.byte	0
 1787 08a5 2C       		.uleb128 0x2c
 1788 08a6 23050000 		.4byte	0x523
 1789 08aa 30020000 		.4byte	.LBB141
 1790 08ae 10010000 		.4byte	.Ldebug_ranges0+0x110
 1791 08b2 01       		.byte	0x1
 1792 08b3 A7       		.byte	0xa7
 1793 08b4 22       		.uleb128 0x22
 1794 08b5 3E050000 		.4byte	0x53e
 1795 08b9 E2040000 		.4byte	.LLST30
 1796 08bd 22       		.uleb128 0x22
 1797 08be 34050000 		.4byte	0x534
 1798 08c2 02050000 		.4byte	.LLST31
 1799 08c6 2E       		.uleb128 0x2e
 1800 08c7 31040000 		.4byte	0x431
 1801 08cb 30020000 		.4byte	.LBB143
 1802 08cf 28010000 		.4byte	.Ldebug_ranges0+0x128
 1803 08d3 02       		.byte	0x2
 1804 08d4 A102     		.2byte	0x2a1
 1805 08d6 22       		.uleb128 0x22
 1806 08d7 42040000 		.4byte	0x442
 1807 08db E2040000 		.4byte	.LLST30
 1808 08df 2E       		.uleb128 0x2e
 1809 08e0 60030000 		.4byte	0x360
 1810 08e4 30020000 		.4byte	.LBB144
 1811 08e8 40010000 		.4byte	.Ldebug_ranges0+0x140
 1812 08ec 03       		.byte	0x3
 1813 08ed B001     		.2byte	0x1b0
 1814 08ef 22       		.uleb128 0x22
 1815 08f0 87030000 		.4byte	0x387
 1816 08f4 1A050000 		.4byte	.LLST33
ARM GAS  C:\Users\eric\AppData\Local\Temp\cclFSUCi.s 			page 33


 1817 08f8 22       		.uleb128 0x22
 1818 08f9 7D030000 		.4byte	0x37d
 1819 08fd 32050000 		.4byte	.LLST34
 1820 0901 22       		.uleb128 0x22
 1821 0902 71030000 		.4byte	0x371
 1822 0906 52050000 		.4byte	.LLST35
 1823 090a 2E       		.uleb128 0x2e
 1824 090b 07030000 		.4byte	0x307
 1825 090f 30020000 		.4byte	.LBB145
 1826 0913 58010000 		.4byte	.Ldebug_ranges0+0x158
 1827 0917 03       		.byte	0x3
 1828 0918 3E01     		.2byte	0x13e
 1829 091a 22       		.uleb128 0x22
 1830 091b 29030000 		.4byte	0x329
 1831 091f 6A050000 		.4byte	.LLST36
 1832 0923 22       		.uleb128 0x22
 1833 0924 20030000 		.4byte	0x320
 1834 0928 32050000 		.4byte	.LLST34
 1835 092c 22       		.uleb128 0x22
 1836 092d 17030000 		.4byte	0x317
 1837 0931 92050000 		.4byte	.LLST38
 1838 0935 00       		.byte	0
 1839 0936 00       		.byte	0
 1840 0937 00       		.byte	0
 1841 0938 00       		.byte	0
 1842 0939 00       		.byte	0
 1843 093a 00       		.byte	0
 1844 093b 08       		.uleb128 0x8
 1845 093c 0B020000 		.4byte	0x20b
 1846 0940 08       		.uleb128 0x8
 1847 0941 B4000000 		.4byte	0xb4
 1848 0945 19       		.uleb128 0x19
 1849 0946 28030000 		.4byte	.LASF91
 1850 094a 01       		.byte	0x1
 1851 094b AF       		.byte	0xaf
 1852 094c A8020000 		.4byte	.LFB244
 1853 0950 10000000 		.4byte	.LFE244-.LFB244
 1854 0954 01       		.uleb128 0x1
 1855 0955 9C       		.byte	0x9c
 1856 0956 68090000 		.4byte	0x968
 1857 095a 1A       		.uleb128 0x1a
 1858 095b 00000000 		.4byte	.LASF85
 1859 095f 01       		.byte	0x1
 1860 0960 AF       		.byte	0xaf
 1861 0961 3B090000 		.4byte	0x93b
 1862 0965 01       		.uleb128 0x1
 1863 0966 50       		.byte	0x50
 1864 0967 00       		.byte	0
 1865 0968 19       		.uleb128 0x19
 1866 0969 AE030000 		.4byte	.LASF92
 1867 096d 01       		.byte	0x1
 1868 096e B4       		.byte	0xb4
 1869 096f B8020000 		.4byte	.LFB245
 1870 0973 02000000 		.4byte	.LFE245-.LFB245
 1871 0977 01       		.uleb128 0x1
 1872 0978 9C       		.byte	0x9c
 1873 0979 8B090000 		.4byte	0x98b
ARM GAS  C:\Users\eric\AppData\Local\Temp\cclFSUCi.s 			page 34


 1874 097d 1A       		.uleb128 0x1a
 1875 097e 00000000 		.4byte	.LASF85
 1876 0982 01       		.byte	0x1
 1877 0983 B4       		.byte	0xb4
 1878 0984 3B090000 		.4byte	0x93b
 1879 0988 01       		.uleb128 0x1
 1880 0989 50       		.byte	0x50
 1881 098a 00       		.byte	0
 1882 098b 19       		.uleb128 0x19
 1883 098c 07000000 		.4byte	.LASF93
 1884 0990 01       		.byte	0x1
 1885 0991 B9       		.byte	0xb9
 1886 0992 BA020000 		.4byte	.LFB246
 1887 0996 9A000000 		.4byte	.LFE246-.LFB246
 1888 099a 01       		.uleb128 0x1
 1889 099b 9C       		.byte	0x9c
 1890 099c CC090000 		.4byte	0x9cc
 1891 09a0 1A       		.uleb128 0x1a
 1892 09a1 E2020000 		.4byte	.LASF94
 1893 09a5 01       		.byte	0x1
 1894 09a6 B9       		.byte	0xb9
 1895 09a7 BF000000 		.4byte	0xbf
 1896 09ab 01       		.uleb128 0x1
 1897 09ac 50       		.byte	0x50
 1898 09ad 1C       		.uleb128 0x1c
 1899 09ae 40030000 		.4byte	.LASF95
 1900 09b2 01       		.byte	0x1
 1901 09b3 B9       		.byte	0xb9
 1902 09b4 BF000000 		.4byte	0xbf
 1903 09b8 C6050000 		.4byte	.LLST39
 1904 09bc 1D       		.uleb128 0x1d
 1905 09bd C6020000 		.4byte	.LASF96
 1906 09c1 01       		.byte	0x1
 1907 09c2 BB       		.byte	0xbb
 1908 09c3 33030000 		.4byte	0x333
 1909 09c7 0B060000 		.4byte	.LLST40
 1910 09cb 00       		.byte	0
 1911 09cc 2F       		.uleb128 0x2f
 1912 09cd CF060000 		.4byte	.LASF97
 1913 09d1 02       		.byte	0x2
 1914 09d2 45       		.byte	0x45
 1915 09d3 B7030000 		.4byte	0x3b7
 1916 09d7 2F       		.uleb128 0x2f
 1917 09d8 91050000 		.4byte	.LASF98
 1918 09dc 02       		.byte	0x2
 1919 09dd 4A       		.byte	0x4a
 1920 09de B7030000 		.4byte	0x3b7
 1921 09e2 0D       		.uleb128 0xd
 1922 09e3 33030000 		.4byte	0x333
 1923 09e7 F2090000 		.4byte	0x9f2
 1924 09eb 0E       		.uleb128 0xe
 1925 09ec EC000000 		.4byte	0xec
 1926 09f0 97       		.byte	0x97
 1927 09f1 00       		.byte	0
 1928 09f2 2F       		.uleb128 0x2f
 1929 09f3 CB020000 		.4byte	.LASF99
 1930 09f7 02       		.byte	0x2
ARM GAS  C:\Users\eric\AppData\Local\Temp\cclFSUCi.s 			page 35


 1931 09f8 67       		.byte	0x67
 1932 09f9 FD090000 		.4byte	0x9fd
 1933 09fd 08       		.uleb128 0x8
 1934 09fe E2090000 		.4byte	0x9e2
 1935 0a02 0D       		.uleb128 0xd
 1936 0a03 33030000 		.4byte	0x333
 1937 0a07 120A0000 		.4byte	0xa12
 1938 0a0b 0E       		.uleb128 0xe
 1939 0a0c EC000000 		.4byte	0xec
 1940 0a10 80       		.byte	0x80
 1941 0a11 00       		.byte	0
 1942 0a12 2F       		.uleb128 0x2f
 1943 0a13 E8050000 		.4byte	.LASF100
 1944 0a17 02       		.byte	0x2
 1945 0a18 94       		.byte	0x94
 1946 0a19 1D0A0000 		.4byte	0xa1d
 1947 0a1d 08       		.uleb128 0x8
 1948 0a1e 020A0000 		.4byte	0xa02
 1949 0a22 0D       		.uleb128 0xd
 1950 0a23 33030000 		.4byte	0x333
 1951 0a27 330A0000 		.4byte	0xa33
 1952 0a2b 30       		.uleb128 0x30
 1953 0a2c EC000000 		.4byte	0xec
 1954 0a30 8603     		.2byte	0x386
 1955 0a32 00       		.byte	0
 1956 0a33 2F       		.uleb128 0x2f
 1957 0a34 A8050000 		.4byte	.LASF101
 1958 0a38 02       		.byte	0x2
 1959 0a39 C6       		.byte	0xc6
 1960 0a3a 3E0A0000 		.4byte	0xa3e
 1961 0a3e 08       		.uleb128 0x8
 1962 0a3f 220A0000 		.4byte	0xa22
 1963 0a43 31       		.uleb128 0x31
 1964 0a44 FE040000 		.4byte	.LASF102
 1965 0a48 02       		.byte	0x2
 1966 0a49 3801     		.2byte	0x138
 1967 0a4b 4F0A0000 		.4byte	0xa4f
 1968 0a4f 08       		.uleb128 0x8
 1969 0a50 220A0000 		.4byte	0xa22
 1970 0a54 31       		.uleb128 0x31
 1971 0a55 13000000 		.4byte	.LASF103
 1972 0a59 02       		.byte	0x2
 1973 0a5a AB01     		.2byte	0x1ab
 1974 0a5c 600A0000 		.4byte	0xa60
 1975 0a60 08       		.uleb128 0x8
 1976 0a61 220A0000 		.4byte	0xa22
 1977 0a65 0D       		.uleb128 0xd
 1978 0a66 33030000 		.4byte	0x333
 1979 0a6a 760A0000 		.4byte	0xa76
 1980 0a6e 30       		.uleb128 0x30
 1981 0a6f EC000000 		.4byte	0xec
 1982 0a73 0001     		.2byte	0x100
 1983 0a75 00       		.byte	0
 1984 0a76 31       		.uleb128 0x31
 1985 0a77 EB030000 		.4byte	.LASF104
 1986 0a7b 02       		.byte	0x2
 1987 0a7c 4C02     		.2byte	0x24c
ARM GAS  C:\Users\eric\AppData\Local\Temp\cclFSUCi.s 			page 36


 1988 0a7e 820A0000 		.4byte	0xa82
 1989 0a82 08       		.uleb128 0x8
 1990 0a83 650A0000 		.4byte	0xa65
 1991 0a87 31       		.uleb128 0x31
 1992 0a88 92020000 		.4byte	.LASF105
 1993 0a8c 02       		.byte	0x2
 1994 0a8d 6302     		.2byte	0x263
 1995 0a8f 930A0000 		.4byte	0xa93
 1996 0a93 08       		.uleb128 0x8
 1997 0a94 650A0000 		.4byte	0xa65
 1998 0a98 31       		.uleb128 0x31
 1999 0a99 DF040000 		.4byte	.LASF106
 2000 0a9d 02       		.byte	0x2
 2001 0a9e 7B02     		.2byte	0x27b
 2002 0aa0 A40A0000 		.4byte	0xaa4
 2003 0aa4 08       		.uleb128 0x8
 2004 0aa5 650A0000 		.4byte	0xa65
 2005 0aa9 31       		.uleb128 0x31
 2006 0aaa EF040000 		.4byte	.LASF107
 2007 0aae 02       		.byte	0x2
 2008 0aaf AA02     		.2byte	0x2aa
 2009 0ab1 B50A0000 		.4byte	0xab5
 2010 0ab5 08       		.uleb128 0x8
 2011 0ab6 020A0000 		.4byte	0xa02
 2012 0aba 31       		.uleb128 0x31
 2013 0abb BF030000 		.4byte	.LASF108
 2014 0abf 02       		.byte	0x2
 2015 0ac0 BF02     		.2byte	0x2bf
 2016 0ac2 C60A0000 		.4byte	0xac6
 2017 0ac6 08       		.uleb128 0x8
 2018 0ac7 020A0000 		.4byte	0xa02
 2019 0acb 31       		.uleb128 0x31
 2020 0acc 61010000 		.4byte	.LASF109
 2021 0ad0 02       		.byte	0x2
 2022 0ad1 DC02     		.2byte	0x2dc
 2023 0ad3 D70A0000 		.4byte	0xad7
 2024 0ad7 08       		.uleb128 0x8
 2025 0ad8 020A0000 		.4byte	0xa02
 2026 0adc 1E       		.uleb128 0x1e
 2027 0add 28020000 		.4byte	.LASF110
 2028 0ae1 01       		.byte	0x1
 2029 0ae2 3A       		.byte	0x3a
 2030 0ae3 BF020000 		.4byte	0x2bf
 2031 0ae7 05       		.uleb128 0x5
 2032 0ae8 03       		.byte	0x3
 2033 0ae9 00000000 		.4byte	_ZL7s_state
 2034 0aed 32       		.uleb128 0x32
 2035 0aee 81010000 		.4byte	.LASF111
 2036 0af2 01       		.byte	0x1
 2037 0af3 41       		.byte	0x41
 2038 0af4 2C000000 		.4byte	0x2c
 2039 0af8 05       		.uleb128 0x5
 2040 0af9 03       		.byte	0x3
 2041 0afa 00000000 		.4byte	maxVoice
 2042 0afe 0D       		.uleb128 0xd
 2043 0aff CA020000 		.4byte	0x2ca
 2044 0b03 0E0B0000 		.4byte	0xb0e
ARM GAS  C:\Users\eric\AppData\Local\Temp\cclFSUCi.s 			page 37


 2045 0b07 0E       		.uleb128 0xe
 2046 0b08 EC000000 		.4byte	0xec
 2047 0b0c 0B       		.byte	0xb
 2048 0b0d 00       		.byte	0
 2049 0b0e 32       		.uleb128 0x32
 2050 0b0f 73050000 		.4byte	.LASF112
 2051 0b13 01       		.byte	0x1
 2052 0b14 42       		.byte	0x42
 2053 0b15 FE0A0000 		.4byte	0xafe
 2054 0b19 05       		.uleb128 0x5
 2055 0b1a 03       		.byte	0x3
 2056 0b1b 00000000 		.4byte	instances
 2057 0b1f 33       		.uleb128 0x33
 2058 0b20 AE060000 		.4byte	.LASF119
 2059 0b24 AE060000 		.4byte	.LASF119
 2060 0b28 02       		.byte	0x2
 2061 0b29 0903     		.2byte	0x309
 2062 0b2b 00       		.byte	0
 2063              		.section	.debug_abbrev,"",%progbits
 2064              	.Ldebug_abbrev0:
 2065 0000 01       		.uleb128 0x1
 2066 0001 11       		.uleb128 0x11
 2067 0002 01       		.byte	0x1
 2068 0003 25       		.uleb128 0x25
 2069 0004 0E       		.uleb128 0xe
 2070 0005 13       		.uleb128 0x13
 2071 0006 0B       		.uleb128 0xb
 2072 0007 03       		.uleb128 0x3
 2073 0008 0E       		.uleb128 0xe
 2074 0009 1B       		.uleb128 0x1b
 2075 000a 0E       		.uleb128 0xe
 2076 000b 11       		.uleb128 0x11
 2077 000c 01       		.uleb128 0x1
 2078 000d 12       		.uleb128 0x12
 2079 000e 06       		.uleb128 0x6
 2080 000f 10       		.uleb128 0x10
 2081 0010 17       		.uleb128 0x17
 2082 0011 00       		.byte	0
 2083 0012 00       		.byte	0
 2084 0013 02       		.uleb128 0x2
 2085 0014 24       		.uleb128 0x24
 2086 0015 00       		.byte	0
 2087 0016 0B       		.uleb128 0xb
 2088 0017 0B       		.uleb128 0xb
 2089 0018 3E       		.uleb128 0x3e
 2090 0019 0B       		.uleb128 0xb
 2091 001a 03       		.uleb128 0x3
 2092 001b 0E       		.uleb128 0xe
 2093 001c 00       		.byte	0
 2094 001d 00       		.byte	0
 2095 001e 03       		.uleb128 0x3
 2096 001f 24       		.uleb128 0x24
 2097 0020 00       		.byte	0
 2098 0021 0B       		.uleb128 0xb
 2099 0022 0B       		.uleb128 0xb
 2100 0023 3E       		.uleb128 0x3e
 2101 0024 0B       		.uleb128 0xb
ARM GAS  C:\Users\eric\AppData\Local\Temp\cclFSUCi.s 			page 38


 2102 0025 03       		.uleb128 0x3
 2103 0026 08       		.uleb128 0x8
 2104 0027 00       		.byte	0
 2105 0028 00       		.byte	0
 2106 0029 04       		.uleb128 0x4
 2107 002a 16       		.uleb128 0x16
 2108 002b 00       		.byte	0
 2109 002c 03       		.uleb128 0x3
 2110 002d 0E       		.uleb128 0xe
 2111 002e 3A       		.uleb128 0x3a
 2112 002f 0B       		.uleb128 0xb
 2113 0030 3B       		.uleb128 0x3b
 2114 0031 0B       		.uleb128 0xb
 2115 0032 49       		.uleb128 0x49
 2116 0033 13       		.uleb128 0x13
 2117 0034 00       		.byte	0
 2118 0035 00       		.byte	0
 2119 0036 05       		.uleb128 0x5
 2120 0037 3B       		.uleb128 0x3b
 2121 0038 00       		.byte	0
 2122 0039 03       		.uleb128 0x3
 2123 003a 0E       		.uleb128 0xe
 2124 003b 00       		.byte	0
 2125 003c 00       		.byte	0
 2126 003d 06       		.uleb128 0x6
 2127 003e 16       		.uleb128 0x16
 2128 003f 00       		.byte	0
 2129 0040 03       		.uleb128 0x3
 2130 0041 0E       		.uleb128 0xe
 2131 0042 3A       		.uleb128 0x3a
 2132 0043 0B       		.uleb128 0xb
 2133 0044 3B       		.uleb128 0x3b
 2134 0045 05       		.uleb128 0x5
 2135 0046 49       		.uleb128 0x49
 2136 0047 13       		.uleb128 0x13
 2137 0048 00       		.byte	0
 2138 0049 00       		.byte	0
 2139 004a 07       		.uleb128 0x7
 2140 004b 0F       		.uleb128 0xf
 2141 004c 00       		.byte	0
 2142 004d 0B       		.uleb128 0xb
 2143 004e 0B       		.uleb128 0xb
 2144 004f 49       		.uleb128 0x49
 2145 0050 13       		.uleb128 0x13
 2146 0051 00       		.byte	0
 2147 0052 00       		.byte	0
 2148 0053 08       		.uleb128 0x8
 2149 0054 26       		.uleb128 0x26
 2150 0055 00       		.byte	0
 2151 0056 49       		.uleb128 0x49
 2152 0057 13       		.uleb128 0x13
 2153 0058 00       		.byte	0
 2154 0059 00       		.byte	0
 2155 005a 09       		.uleb128 0x9
 2156 005b 04       		.uleb128 0x4
 2157 005c 01       		.byte	0x1
 2158 005d 0B       		.uleb128 0xb
ARM GAS  C:\Users\eric\AppData\Local\Temp\cclFSUCi.s 			page 39


 2159 005e 0B       		.uleb128 0xb
 2160 005f 49       		.uleb128 0x49
 2161 0060 13       		.uleb128 0x13
 2162 0061 3A       		.uleb128 0x3a
 2163 0062 0B       		.uleb128 0xb
 2164 0063 3B       		.uleb128 0x3b
 2165 0064 0B       		.uleb128 0xb
 2166 0065 01       		.uleb128 0x1
 2167 0066 13       		.uleb128 0x13
 2168 0067 00       		.byte	0
 2169 0068 00       		.byte	0
 2170 0069 0A       		.uleb128 0xa
 2171 006a 28       		.uleb128 0x28
 2172 006b 00       		.byte	0
 2173 006c 03       		.uleb128 0x3
 2174 006d 0E       		.uleb128 0xe
 2175 006e 1C       		.uleb128 0x1c
 2176 006f 0B       		.uleb128 0xb
 2177 0070 00       		.byte	0
 2178 0071 00       		.byte	0
 2179 0072 0B       		.uleb128 0xb
 2180 0073 13       		.uleb128 0x13
 2181 0074 01       		.byte	0x1
 2182 0075 03       		.uleb128 0x3
 2183 0076 0E       		.uleb128 0xe
 2184 0077 0B       		.uleb128 0xb
 2185 0078 0B       		.uleb128 0xb
 2186 0079 3A       		.uleb128 0x3a
 2187 007a 0B       		.uleb128 0xb
 2188 007b 3B       		.uleb128 0x3b
 2189 007c 0B       		.uleb128 0xb
 2190 007d 01       		.uleb128 0x1
 2191 007e 13       		.uleb128 0x13
 2192 007f 00       		.byte	0
 2193 0080 00       		.byte	0
 2194 0081 0C       		.uleb128 0xc
 2195 0082 0D       		.uleb128 0xd
 2196 0083 00       		.byte	0
 2197 0084 03       		.uleb128 0x3
 2198 0085 0E       		.uleb128 0xe
 2199 0086 3A       		.uleb128 0x3a
 2200 0087 0B       		.uleb128 0xb
 2201 0088 3B       		.uleb128 0x3b
 2202 0089 0B       		.uleb128 0xb
 2203 008a 49       		.uleb128 0x49
 2204 008b 13       		.uleb128 0x13
 2205 008c 38       		.uleb128 0x38
 2206 008d 0B       		.uleb128 0xb
 2207 008e 00       		.byte	0
 2208 008f 00       		.byte	0
 2209 0090 0D       		.uleb128 0xd
 2210 0091 01       		.uleb128 0x1
 2211 0092 01       		.byte	0x1
 2212 0093 49       		.uleb128 0x49
 2213 0094 13       		.uleb128 0x13
 2214 0095 01       		.uleb128 0x1
 2215 0096 13       		.uleb128 0x13
ARM GAS  C:\Users\eric\AppData\Local\Temp\cclFSUCi.s 			page 40


 2216 0097 00       		.byte	0
 2217 0098 00       		.byte	0
 2218 0099 0E       		.uleb128 0xe
 2219 009a 21       		.uleb128 0x21
 2220 009b 00       		.byte	0
 2221 009c 49       		.uleb128 0x49
 2222 009d 13       		.uleb128 0x13
 2223 009e 2F       		.uleb128 0x2f
 2224 009f 0B       		.uleb128 0xb
 2225 00a0 00       		.byte	0
 2226 00a1 00       		.byte	0
 2227 00a2 0F       		.uleb128 0xf
 2228 00a3 04       		.uleb128 0x4
 2229 00a4 01       		.byte	0x1
 2230 00a5 0B       		.uleb128 0xb
 2231 00a6 0B       		.uleb128 0xb
 2232 00a7 49       		.uleb128 0x49
 2233 00a8 13       		.uleb128 0x13
 2234 00a9 3A       		.uleb128 0x3a
 2235 00aa 0B       		.uleb128 0xb
 2236 00ab 3B       		.uleb128 0x3b
 2237 00ac 0B       		.uleb128 0xb
 2238 00ad 6E       		.uleb128 0x6e
 2239 00ae 0E       		.uleb128 0xe
 2240 00af 01       		.uleb128 0x1
 2241 00b0 13       		.uleb128 0x13
 2242 00b1 00       		.byte	0
 2243 00b2 00       		.byte	0
 2244 00b3 10       		.uleb128 0x10
 2245 00b4 0D       		.uleb128 0xd
 2246 00b5 00       		.byte	0
 2247 00b6 03       		.uleb128 0x3
 2248 00b7 08       		.uleb128 0x8
 2249 00b8 3A       		.uleb128 0x3a
 2250 00b9 0B       		.uleb128 0xb
 2251 00ba 3B       		.uleb128 0x3b
 2252 00bb 0B       		.uleb128 0xb
 2253 00bc 49       		.uleb128 0x49
 2254 00bd 13       		.uleb128 0x13
 2255 00be 38       		.uleb128 0x38
 2256 00bf 0B       		.uleb128 0xb
 2257 00c0 00       		.byte	0
 2258 00c1 00       		.byte	0
 2259 00c2 11       		.uleb128 0x11
 2260 00c3 2E       		.uleb128 0x2e
 2261 00c4 01       		.byte	0x1
 2262 00c5 03       		.uleb128 0x3
 2263 00c6 0E       		.uleb128 0xe
 2264 00c7 3A       		.uleb128 0x3a
 2265 00c8 0B       		.uleb128 0xb
 2266 00c9 3B       		.uleb128 0x3b
 2267 00ca 0B       		.uleb128 0xb
 2268 00cb 49       		.uleb128 0x49
 2269 00cc 13       		.uleb128 0x13
 2270 00cd 20       		.uleb128 0x20
 2271 00ce 0B       		.uleb128 0xb
 2272 00cf 01       		.uleb128 0x1
ARM GAS  C:\Users\eric\AppData\Local\Temp\cclFSUCi.s 			page 41


 2273 00d0 13       		.uleb128 0x13
 2274 00d1 00       		.byte	0
 2275 00d2 00       		.byte	0
 2276 00d3 12       		.uleb128 0x12
 2277 00d4 05       		.uleb128 0x5
 2278 00d5 00       		.byte	0
 2279 00d6 03       		.uleb128 0x3
 2280 00d7 08       		.uleb128 0x8
 2281 00d8 3A       		.uleb128 0x3a
 2282 00d9 0B       		.uleb128 0xb
 2283 00da 3B       		.uleb128 0x3b
 2284 00db 0B       		.uleb128 0xb
 2285 00dc 49       		.uleb128 0x49
 2286 00dd 13       		.uleb128 0x13
 2287 00de 00       		.byte	0
 2288 00df 00       		.byte	0
 2289 00e0 13       		.uleb128 0x13
 2290 00e1 2E       		.uleb128 0x2e
 2291 00e2 01       		.byte	0x1
 2292 00e3 03       		.uleb128 0x3
 2293 00e4 0E       		.uleb128 0xe
 2294 00e5 3A       		.uleb128 0x3a
 2295 00e6 0B       		.uleb128 0xb
 2296 00e7 3B       		.uleb128 0x3b
 2297 00e8 05       		.uleb128 0x5
 2298 00e9 49       		.uleb128 0x49
 2299 00ea 13       		.uleb128 0x13
 2300 00eb 20       		.uleb128 0x20
 2301 00ec 0B       		.uleb128 0xb
 2302 00ed 01       		.uleb128 0x1
 2303 00ee 13       		.uleb128 0x13
 2304 00ef 00       		.byte	0
 2305 00f0 00       		.byte	0
 2306 00f1 14       		.uleb128 0x14
 2307 00f2 05       		.uleb128 0x5
 2308 00f3 00       		.byte	0
 2309 00f4 03       		.uleb128 0x3
 2310 00f5 08       		.uleb128 0x8
 2311 00f6 3A       		.uleb128 0x3a
 2312 00f7 0B       		.uleb128 0xb
 2313 00f8 3B       		.uleb128 0x3b
 2314 00f9 05       		.uleb128 0x5
 2315 00fa 49       		.uleb128 0x49
 2316 00fb 13       		.uleb128 0x13
 2317 00fc 00       		.byte	0
 2318 00fd 00       		.byte	0
 2319 00fe 15       		.uleb128 0x15
 2320 00ff 05       		.uleb128 0x5
 2321 0100 00       		.byte	0
 2322 0101 03       		.uleb128 0x3
 2323 0102 0E       		.uleb128 0xe
 2324 0103 3A       		.uleb128 0x3a
 2325 0104 0B       		.uleb128 0xb
 2326 0105 3B       		.uleb128 0x3b
 2327 0106 0B       		.uleb128 0xb
 2328 0107 49       		.uleb128 0x49
 2329 0108 13       		.uleb128 0x13
ARM GAS  C:\Users\eric\AppData\Local\Temp\cclFSUCi.s 			page 42


 2330 0109 00       		.byte	0
 2331 010a 00       		.byte	0
 2332 010b 16       		.uleb128 0x16
 2333 010c 34       		.uleb128 0x34
 2334 010d 00       		.byte	0
 2335 010e 03       		.uleb128 0x3
 2336 010f 08       		.uleb128 0x8
 2337 0110 3A       		.uleb128 0x3a
 2338 0111 0B       		.uleb128 0xb
 2339 0112 3B       		.uleb128 0x3b
 2340 0113 0B       		.uleb128 0xb
 2341 0114 49       		.uleb128 0x49
 2342 0115 13       		.uleb128 0x13
 2343 0116 00       		.byte	0
 2344 0117 00       		.byte	0
 2345 0118 17       		.uleb128 0x17
 2346 0119 34       		.uleb128 0x34
 2347 011a 00       		.byte	0
 2348 011b 03       		.uleb128 0x3
 2349 011c 0E       		.uleb128 0xe
 2350 011d 3A       		.uleb128 0x3a
 2351 011e 0B       		.uleb128 0xb
 2352 011f 3B       		.uleb128 0x3b
 2353 0120 0B       		.uleb128 0xb
 2354 0121 49       		.uleb128 0x49
 2355 0122 13       		.uleb128 0x13
 2356 0123 00       		.byte	0
 2357 0124 00       		.byte	0
 2358 0125 18       		.uleb128 0x18
 2359 0126 2E       		.uleb128 0x2e
 2360 0127 00       		.byte	0
 2361 0128 03       		.uleb128 0x3
 2362 0129 0E       		.uleb128 0xe
 2363 012a 3A       		.uleb128 0x3a
 2364 012b 0B       		.uleb128 0xb
 2365 012c 3B       		.uleb128 0x3b
 2366 012d 05       		.uleb128 0x5
 2367 012e 49       		.uleb128 0x49
 2368 012f 13       		.uleb128 0x13
 2369 0130 20       		.uleb128 0x20
 2370 0131 0B       		.uleb128 0xb
 2371 0132 00       		.byte	0
 2372 0133 00       		.byte	0
 2373 0134 19       		.uleb128 0x19
 2374 0135 2E       		.uleb128 0x2e
 2375 0136 01       		.byte	0x1
 2376 0137 3F       		.uleb128 0x3f
 2377 0138 19       		.uleb128 0x19
 2378 0139 03       		.uleb128 0x3
 2379 013a 0E       		.uleb128 0xe
 2380 013b 3A       		.uleb128 0x3a
 2381 013c 0B       		.uleb128 0xb
 2382 013d 3B       		.uleb128 0x3b
 2383 013e 0B       		.uleb128 0xb
 2384 013f 11       		.uleb128 0x11
 2385 0140 01       		.uleb128 0x1
 2386 0141 12       		.uleb128 0x12
ARM GAS  C:\Users\eric\AppData\Local\Temp\cclFSUCi.s 			page 43


 2387 0142 06       		.uleb128 0x6
 2388 0143 40       		.uleb128 0x40
 2389 0144 18       		.uleb128 0x18
 2390 0145 9742     		.uleb128 0x2117
 2391 0147 19       		.uleb128 0x19
 2392 0148 01       		.uleb128 0x1
 2393 0149 13       		.uleb128 0x13
 2394 014a 00       		.byte	0
 2395 014b 00       		.byte	0
 2396 014c 1A       		.uleb128 0x1a
 2397 014d 05       		.uleb128 0x5
 2398 014e 00       		.byte	0
 2399 014f 03       		.uleb128 0x3
 2400 0150 0E       		.uleb128 0xe
 2401 0151 3A       		.uleb128 0x3a
 2402 0152 0B       		.uleb128 0xb
 2403 0153 3B       		.uleb128 0x3b
 2404 0154 0B       		.uleb128 0xb
 2405 0155 49       		.uleb128 0x49
 2406 0156 13       		.uleb128 0x13
 2407 0157 02       		.uleb128 0x2
 2408 0158 18       		.uleb128 0x18
 2409 0159 00       		.byte	0
 2410 015a 00       		.byte	0
 2411 015b 1B       		.uleb128 0x1b
 2412 015c 05       		.uleb128 0x5
 2413 015d 00       		.byte	0
 2414 015e 03       		.uleb128 0x3
 2415 015f 08       		.uleb128 0x8
 2416 0160 3A       		.uleb128 0x3a
 2417 0161 0B       		.uleb128 0xb
 2418 0162 3B       		.uleb128 0x3b
 2419 0163 0B       		.uleb128 0xb
 2420 0164 49       		.uleb128 0x49
 2421 0165 13       		.uleb128 0x13
 2422 0166 02       		.uleb128 0x2
 2423 0167 17       		.uleb128 0x17
 2424 0168 00       		.byte	0
 2425 0169 00       		.byte	0
 2426 016a 1C       		.uleb128 0x1c
 2427 016b 05       		.uleb128 0x5
 2428 016c 00       		.byte	0
 2429 016d 03       		.uleb128 0x3
 2430 016e 0E       		.uleb128 0xe
 2431 016f 3A       		.uleb128 0x3a
 2432 0170 0B       		.uleb128 0xb
 2433 0171 3B       		.uleb128 0x3b
 2434 0172 0B       		.uleb128 0xb
 2435 0173 49       		.uleb128 0x49
 2436 0174 13       		.uleb128 0x13
 2437 0175 02       		.uleb128 0x2
 2438 0176 17       		.uleb128 0x17
 2439 0177 00       		.byte	0
 2440 0178 00       		.byte	0
 2441 0179 1D       		.uleb128 0x1d
 2442 017a 34       		.uleb128 0x34
 2443 017b 00       		.byte	0
ARM GAS  C:\Users\eric\AppData\Local\Temp\cclFSUCi.s 			page 44


 2444 017c 03       		.uleb128 0x3
 2445 017d 0E       		.uleb128 0xe
 2446 017e 3A       		.uleb128 0x3a
 2447 017f 0B       		.uleb128 0xb
 2448 0180 3B       		.uleb128 0x3b
 2449 0181 0B       		.uleb128 0xb
 2450 0182 49       		.uleb128 0x49
 2451 0183 13       		.uleb128 0x13
 2452 0184 02       		.uleb128 0x2
 2453 0185 17       		.uleb128 0x17
 2454 0186 00       		.byte	0
 2455 0187 00       		.byte	0
 2456 0188 1E       		.uleb128 0x1e
 2457 0189 34       		.uleb128 0x34
 2458 018a 00       		.byte	0
 2459 018b 03       		.uleb128 0x3
 2460 018c 0E       		.uleb128 0xe
 2461 018d 3A       		.uleb128 0x3a
 2462 018e 0B       		.uleb128 0xb
 2463 018f 3B       		.uleb128 0x3b
 2464 0190 0B       		.uleb128 0xb
 2465 0191 49       		.uleb128 0x49
 2466 0192 13       		.uleb128 0x13
 2467 0193 02       		.uleb128 0x2
 2468 0194 18       		.uleb128 0x18
 2469 0195 00       		.byte	0
 2470 0196 00       		.byte	0
 2471 0197 1F       		.uleb128 0x1f
 2472 0198 34       		.uleb128 0x34
 2473 0199 00       		.byte	0
 2474 019a 03       		.uleb128 0x3
 2475 019b 08       		.uleb128 0x8
 2476 019c 3A       		.uleb128 0x3a
 2477 019d 0B       		.uleb128 0xb
 2478 019e 3B       		.uleb128 0x3b
 2479 019f 0B       		.uleb128 0xb
 2480 01a0 49       		.uleb128 0x49
 2481 01a1 13       		.uleb128 0x13
 2482 01a2 02       		.uleb128 0x2
 2483 01a3 17       		.uleb128 0x17
 2484 01a4 00       		.byte	0
 2485 01a5 00       		.byte	0
 2486 01a6 20       		.uleb128 0x20
 2487 01a7 0B       		.uleb128 0xb
 2488 01a8 01       		.byte	0x1
 2489 01a9 55       		.uleb128 0x55
 2490 01aa 17       		.uleb128 0x17
 2491 01ab 01       		.uleb128 0x1
 2492 01ac 13       		.uleb128 0x13
 2493 01ad 00       		.byte	0
 2494 01ae 00       		.byte	0
 2495 01af 21       		.uleb128 0x21
 2496 01b0 1D       		.uleb128 0x1d
 2497 01b1 01       		.byte	0x1
 2498 01b2 31       		.uleb128 0x31
 2499 01b3 13       		.uleb128 0x13
 2500 01b4 52       		.uleb128 0x52
ARM GAS  C:\Users\eric\AppData\Local\Temp\cclFSUCi.s 			page 45


 2501 01b5 01       		.uleb128 0x1
 2502 01b6 55       		.uleb128 0x55
 2503 01b7 17       		.uleb128 0x17
 2504 01b8 58       		.uleb128 0x58
 2505 01b9 0B       		.uleb128 0xb
 2506 01ba 59       		.uleb128 0x59
 2507 01bb 0B       		.uleb128 0xb
 2508 01bc 01       		.uleb128 0x1
 2509 01bd 13       		.uleb128 0x13
 2510 01be 00       		.byte	0
 2511 01bf 00       		.byte	0
 2512 01c0 22       		.uleb128 0x22
 2513 01c1 05       		.uleb128 0x5
 2514 01c2 00       		.byte	0
 2515 01c3 31       		.uleb128 0x31
 2516 01c4 13       		.uleb128 0x13
 2517 01c5 02       		.uleb128 0x2
 2518 01c6 17       		.uleb128 0x17
 2519 01c7 00       		.byte	0
 2520 01c8 00       		.byte	0
 2521 01c9 23       		.uleb128 0x23
 2522 01ca 0B       		.uleb128 0xb
 2523 01cb 01       		.byte	0x1
 2524 01cc 55       		.uleb128 0x55
 2525 01cd 17       		.uleb128 0x17
 2526 01ce 00       		.byte	0
 2527 01cf 00       		.byte	0
 2528 01d0 24       		.uleb128 0x24
 2529 01d1 34       		.uleb128 0x34
 2530 01d2 00       		.byte	0
 2531 01d3 31       		.uleb128 0x31
 2532 01d4 13       		.uleb128 0x13
 2533 01d5 00       		.byte	0
 2534 01d6 00       		.byte	0
 2535 01d7 25       		.uleb128 0x25
 2536 01d8 05       		.uleb128 0x5
 2537 01d9 00       		.byte	0
 2538 01da 31       		.uleb128 0x31
 2539 01db 13       		.uleb128 0x13
 2540 01dc 00       		.byte	0
 2541 01dd 00       		.byte	0
 2542 01de 26       		.uleb128 0x26
 2543 01df 1D       		.uleb128 0x1d
 2544 01e0 01       		.byte	0x1
 2545 01e1 31       		.uleb128 0x31
 2546 01e2 13       		.uleb128 0x13
 2547 01e3 11       		.uleb128 0x11
 2548 01e4 01       		.uleb128 0x1
 2549 01e5 12       		.uleb128 0x12
 2550 01e6 06       		.uleb128 0x6
 2551 01e7 58       		.uleb128 0x58
 2552 01e8 0B       		.uleb128 0xb
 2553 01e9 59       		.uleb128 0x59
 2554 01ea 0B       		.uleb128 0xb
 2555 01eb 00       		.byte	0
 2556 01ec 00       		.byte	0
 2557 01ed 27       		.uleb128 0x27
ARM GAS  C:\Users\eric\AppData\Local\Temp\cclFSUCi.s 			page 46


 2558 01ee 1D       		.uleb128 0x1d
 2559 01ef 01       		.byte	0x1
 2560 01f0 31       		.uleb128 0x31
 2561 01f1 13       		.uleb128 0x13
 2562 01f2 11       		.uleb128 0x11
 2563 01f3 01       		.uleb128 0x1
 2564 01f4 12       		.uleb128 0x12
 2565 01f5 06       		.uleb128 0x6
 2566 01f6 58       		.uleb128 0x58
 2567 01f7 0B       		.uleb128 0xb
 2568 01f8 59       		.uleb128 0x59
 2569 01f9 05       		.uleb128 0x5
 2570 01fa 00       		.byte	0
 2571 01fb 00       		.byte	0
 2572 01fc 28       		.uleb128 0x28
 2573 01fd 1D       		.uleb128 0x1d
 2574 01fe 01       		.byte	0x1
 2575 01ff 31       		.uleb128 0x31
 2576 0200 13       		.uleb128 0x13
 2577 0201 11       		.uleb128 0x11
 2578 0202 01       		.uleb128 0x1
 2579 0203 12       		.uleb128 0x12
 2580 0204 06       		.uleb128 0x6
 2581 0205 58       		.uleb128 0x58
 2582 0206 0B       		.uleb128 0xb
 2583 0207 59       		.uleb128 0x59
 2584 0208 0B       		.uleb128 0xb
 2585 0209 01       		.uleb128 0x1
 2586 020a 13       		.uleb128 0x13
 2587 020b 00       		.byte	0
 2588 020c 00       		.byte	0
 2589 020d 29       		.uleb128 0x29
 2590 020e 0B       		.uleb128 0xb
 2591 020f 01       		.byte	0x1
 2592 0210 11       		.uleb128 0x11
 2593 0211 01       		.uleb128 0x1
 2594 0212 12       		.uleb128 0x12
 2595 0213 06       		.uleb128 0x6
 2596 0214 00       		.byte	0
 2597 0215 00       		.byte	0
 2598 0216 2A       		.uleb128 0x2a
 2599 0217 34       		.uleb128 0x34
 2600 0218 00       		.byte	0
 2601 0219 31       		.uleb128 0x31
 2602 021a 13       		.uleb128 0x13
 2603 021b 02       		.uleb128 0x2
 2604 021c 17       		.uleb128 0x17
 2605 021d 00       		.byte	0
 2606 021e 00       		.byte	0
 2607 021f 2B       		.uleb128 0x2b
 2608 0220 898201   		.uleb128 0x4109
 2609 0223 00       		.byte	0
 2610 0224 11       		.uleb128 0x11
 2611 0225 01       		.uleb128 0x1
 2612 0226 31       		.uleb128 0x31
 2613 0227 13       		.uleb128 0x13
 2614 0228 00       		.byte	0
ARM GAS  C:\Users\eric\AppData\Local\Temp\cclFSUCi.s 			page 47


 2615 0229 00       		.byte	0
 2616 022a 2C       		.uleb128 0x2c
 2617 022b 1D       		.uleb128 0x1d
 2618 022c 01       		.byte	0x1
 2619 022d 31       		.uleb128 0x31
 2620 022e 13       		.uleb128 0x13
 2621 022f 52       		.uleb128 0x52
 2622 0230 01       		.uleb128 0x1
 2623 0231 55       		.uleb128 0x55
 2624 0232 17       		.uleb128 0x17
 2625 0233 58       		.uleb128 0x58
 2626 0234 0B       		.uleb128 0xb
 2627 0235 59       		.uleb128 0x59
 2628 0236 0B       		.uleb128 0xb
 2629 0237 00       		.byte	0
 2630 0238 00       		.byte	0
 2631 0239 2D       		.uleb128 0x2d
 2632 023a 34       		.uleb128 0x34
 2633 023b 00       		.byte	0
 2634 023c 31       		.uleb128 0x31
 2635 023d 13       		.uleb128 0x13
 2636 023e 02       		.uleb128 0x2
 2637 023f 18       		.uleb128 0x18
 2638 0240 00       		.byte	0
 2639 0241 00       		.byte	0
 2640 0242 2E       		.uleb128 0x2e
 2641 0243 1D       		.uleb128 0x1d
 2642 0244 01       		.byte	0x1
 2643 0245 31       		.uleb128 0x31
 2644 0246 13       		.uleb128 0x13
 2645 0247 52       		.uleb128 0x52
 2646 0248 01       		.uleb128 0x1
 2647 0249 55       		.uleb128 0x55
 2648 024a 17       		.uleb128 0x17
 2649 024b 58       		.uleb128 0x58
 2650 024c 0B       		.uleb128 0xb
 2651 024d 59       		.uleb128 0x59
 2652 024e 05       		.uleb128 0x5
 2653 024f 00       		.byte	0
 2654 0250 00       		.byte	0
 2655 0251 2F       		.uleb128 0x2f
 2656 0252 34       		.uleb128 0x34
 2657 0253 00       		.byte	0
 2658 0254 03       		.uleb128 0x3
 2659 0255 0E       		.uleb128 0xe
 2660 0256 3A       		.uleb128 0x3a
 2661 0257 0B       		.uleb128 0xb
 2662 0258 3B       		.uleb128 0x3b
 2663 0259 0B       		.uleb128 0xb
 2664 025a 49       		.uleb128 0x49
 2665 025b 13       		.uleb128 0x13
 2666 025c 3F       		.uleb128 0x3f
 2667 025d 19       		.uleb128 0x19
 2668 025e 3C       		.uleb128 0x3c
 2669 025f 19       		.uleb128 0x19
 2670 0260 00       		.byte	0
 2671 0261 00       		.byte	0
ARM GAS  C:\Users\eric\AppData\Local\Temp\cclFSUCi.s 			page 48


 2672 0262 30       		.uleb128 0x30
 2673 0263 21       		.uleb128 0x21
 2674 0264 00       		.byte	0
 2675 0265 49       		.uleb128 0x49
 2676 0266 13       		.uleb128 0x13
 2677 0267 2F       		.uleb128 0x2f
 2678 0268 05       		.uleb128 0x5
 2679 0269 00       		.byte	0
 2680 026a 00       		.byte	0
 2681 026b 31       		.uleb128 0x31
 2682 026c 34       		.uleb128 0x34
 2683 026d 00       		.byte	0
 2684 026e 03       		.uleb128 0x3
 2685 026f 0E       		.uleb128 0xe
 2686 0270 3A       		.uleb128 0x3a
 2687 0271 0B       		.uleb128 0xb
 2688 0272 3B       		.uleb128 0x3b
 2689 0273 05       		.uleb128 0x5
 2690 0274 49       		.uleb128 0x49
 2691 0275 13       		.uleb128 0x13
 2692 0276 3F       		.uleb128 0x3f
 2693 0277 19       		.uleb128 0x19
 2694 0278 3C       		.uleb128 0x3c
 2695 0279 19       		.uleb128 0x19
 2696 027a 00       		.byte	0
 2697 027b 00       		.byte	0
 2698 027c 32       		.uleb128 0x32
 2699 027d 34       		.uleb128 0x34
 2700 027e 00       		.byte	0
 2701 027f 03       		.uleb128 0x3
 2702 0280 0E       		.uleb128 0xe
 2703 0281 3A       		.uleb128 0x3a
 2704 0282 0B       		.uleb128 0xb
 2705 0283 3B       		.uleb128 0x3b
 2706 0284 0B       		.uleb128 0xb
 2707 0285 49       		.uleb128 0x49
 2708 0286 13       		.uleb128 0x13
 2709 0287 3F       		.uleb128 0x3f
 2710 0288 19       		.uleb128 0x19
 2711 0289 02       		.uleb128 0x2
 2712 028a 18       		.uleb128 0x18
 2713 028b 00       		.byte	0
 2714 028c 00       		.byte	0
 2715 028d 33       		.uleb128 0x33
 2716 028e 2E       		.uleb128 0x2e
 2717 028f 00       		.byte	0
 2718 0290 3F       		.uleb128 0x3f
 2719 0291 19       		.uleb128 0x19
 2720 0292 3C       		.uleb128 0x3c
 2721 0293 19       		.uleb128 0x19
 2722 0294 6E       		.uleb128 0x6e
 2723 0295 0E       		.uleb128 0xe
 2724 0296 03       		.uleb128 0x3
 2725 0297 0E       		.uleb128 0xe
 2726 0298 3A       		.uleb128 0x3a
 2727 0299 0B       		.uleb128 0xb
 2728 029a 3B       		.uleb128 0x3b
ARM GAS  C:\Users\eric\AppData\Local\Temp\cclFSUCi.s 			page 49


 2729 029b 05       		.uleb128 0x5
 2730 029c 00       		.byte	0
 2731 029d 00       		.byte	0
 2732 029e 00       		.byte	0
 2733              		.section	.debug_loc,"",%progbits
 2734              	.Ldebug_loc0:
 2735              	.LLST0:
 2736 0000 00000000 		.4byte	.LVL0-.Ltext0
 2737 0004 08000000 		.4byte	.LVL1-.Ltext0
 2738 0008 0100     		.2byte	0x1
 2739 000a 51       		.byte	0x51
 2740 000b 08000000 		.4byte	.LVL1-.Ltext0
 2741 000f 2C000000 		.4byte	.LFE239-.Ltext0
 2742 0013 0400     		.2byte	0x4
 2743 0015 F3       		.byte	0xf3
 2744 0016 01       		.uleb128 0x1
 2745 0017 51       		.byte	0x51
 2746 0018 9F       		.byte	0x9f
 2747 0019 00000000 		.4byte	0
 2748 001d 00000000 		.4byte	0
 2749              	.LLST1:
 2750 0021 2C000000 		.4byte	.LVL2-.Ltext0
 2751 0025 A0000000 		.4byte	.LVL8-.Ltext0
 2752 0029 0100     		.2byte	0x1
 2753 002b 50       		.byte	0x50
 2754 002c A0000000 		.4byte	.LVL8-.Ltext0
 2755 0030 A8020000 		.4byte	.LFE243-.Ltext0
 2756 0034 0400     		.2byte	0x4
 2757 0036 F3       		.byte	0xf3
 2758 0037 01       		.uleb128 0x1
 2759 0038 50       		.byte	0x50
 2760 0039 9F       		.byte	0x9f
 2761 003a 00000000 		.4byte	0
 2762 003e 00000000 		.4byte	0
 2763              	.LLST2:
 2764 0042 2C000000 		.4byte	.LVL2-.Ltext0
 2765 0046 4C000000 		.4byte	.LVL4-.Ltext0
 2766 004a 0100     		.2byte	0x1
 2767 004c 51       		.byte	0x51
 2768 004d 4C000000 		.4byte	.LVL4-.Ltext0
 2769 0051 5C010000 		.4byte	.LVL28-.Ltext0
 2770 0055 0100     		.2byte	0x1
 2771 0057 58       		.byte	0x58
 2772 0058 5C010000 		.4byte	.LVL28-.Ltext0
 2773 005c A8020000 		.4byte	.LFE243-.Ltext0
 2774 0060 0400     		.2byte	0x4
 2775 0062 F3       		.byte	0xf3
 2776 0063 01       		.uleb128 0x1
 2777 0064 51       		.byte	0x51
 2778 0065 9F       		.byte	0x9f
 2779 0066 00000000 		.4byte	0
 2780 006a 00000000 		.4byte	0
 2781              	.LLST3:
 2782 006e 2C000000 		.4byte	.LVL2-.Ltext0
 2783 0072 82000000 		.4byte	.LVL5-.Ltext0
 2784 0076 0100     		.2byte	0x1
 2785 0078 52       		.byte	0x52
ARM GAS  C:\Users\eric\AppData\Local\Temp\cclFSUCi.s 			page 50


 2786 0079 82000000 		.4byte	.LVL5-.Ltext0
 2787 007d A8020000 		.4byte	.LFE243-.Ltext0
 2788 0081 0400     		.2byte	0x4
 2789 0083 F3       		.byte	0xf3
 2790 0084 01       		.uleb128 0x1
 2791 0085 52       		.byte	0x52
 2792 0086 9F       		.byte	0x9f
 2793 0087 00000000 		.4byte	0
 2794 008b 00000000 		.4byte	0
 2795              	.LLST4:
 2796 008f 3A000000 		.4byte	.LVL3-.Ltext0
 2797 0093 8A000000 		.4byte	.LVL6-.Ltext0
 2798 0097 0100     		.2byte	0x1
 2799 0099 5A       		.byte	0x5a
 2800 009a 8A000000 		.4byte	.LVL6-.Ltext0
 2801 009e A0000000 		.4byte	.LVL8-.Ltext0
 2802 00a2 0500     		.2byte	0x5
 2803 00a4 03       		.byte	0x3
 2804 00a5 0C000000 		.4byte	_ZL7s_state+12
 2805 00a9 00000000 		.4byte	0
 2806 00ad 00000000 		.4byte	0
 2807              	.LLST5:
 2808 00b1 96000000 		.4byte	.LVL7-.Ltext0
 2809 00b5 7E020000 		.4byte	.LVL53-.Ltext0
 2810 00b9 0200     		.2byte	0x2
 2811 00bb 90       		.byte	0x90
 2812 00bc 52       		.uleb128 0x52
 2813 00bd 7E020000 		.4byte	.LVL53-.Ltext0
 2814 00c1 A8020000 		.4byte	.LFE243-.Ltext0
 2815 00c5 0500     		.2byte	0x5
 2816 00c7 03       		.byte	0x3
 2817 00c8 08000000 		.4byte	_ZL7s_state+8
 2818 00cc 00000000 		.4byte	0
 2819 00d0 00000000 		.4byte	0
 2820              	.LLST6:
 2821 00d4 96000000 		.4byte	.LVL7-.Ltext0
 2822 00d8 7E020000 		.4byte	.LVL53-.Ltext0
 2823 00dc 0200     		.2byte	0x2
 2824 00de 90       		.byte	0x90
 2825 00df 50       		.uleb128 0x50
 2826 00e0 00000000 		.4byte	0
 2827 00e4 00000000 		.4byte	0
 2828              	.LLST7:
 2829 00e8 96000000 		.4byte	.LVL7-.Ltext0
 2830 00ec 72020000 		.4byte	.LVL51-.Ltext0
 2831 00f0 0100     		.2byte	0x1
 2832 00f2 58       		.byte	0x58
 2833 00f3 72020000 		.4byte	.LVL51-.Ltext0
 2834 00f7 74020000 		.4byte	.LVL52-.Ltext0
 2835 00fb 0300     		.2byte	0x3
 2836 00fd 78       		.byte	0x78
 2837 00fe 7C       		.sleb128 -4
 2838 00ff 9F       		.byte	0x9f
 2839 0100 74020000 		.4byte	.LVL52-.Ltext0
 2840 0104 82020000 		.4byte	.LVL54-.Ltext0
 2841 0108 0100     		.2byte	0x1
 2842 010a 58       		.byte	0x58
ARM GAS  C:\Users\eric\AppData\Local\Temp\cclFSUCi.s 			page 51


 2843 010b 00000000 		.4byte	0
 2844 010f 00000000 		.4byte	0
 2845              	.LLST8:
 2846 0113 96000000 		.4byte	.LVL7-.Ltext0
 2847 0117 82020000 		.4byte	.LVL54-.Ltext0
 2848 011b 0100     		.2byte	0x1
 2849 011d 59       		.byte	0x59
 2850 011e 82020000 		.4byte	.LVL54-.Ltext0
 2851 0122 A8020000 		.4byte	.LFE243-.Ltext0
 2852 0126 0A00     		.2byte	0xa
 2853 0128 F3       		.byte	0xf3
 2854 0129 01       		.uleb128 0x1
 2855 012a 52       		.byte	0x52
 2856 012b 32       		.byte	0x32
 2857 012c 24       		.byte	0x24
 2858 012d F3       		.byte	0xf3
 2859 012e 01       		.uleb128 0x1
 2860 012f 51       		.byte	0x51
 2861 0130 22       		.byte	0x22
 2862 0131 9F       		.byte	0x9f
 2863 0132 00000000 		.4byte	0
 2864 0136 00000000 		.4byte	0
 2865              	.LLST9:
 2866 013a 96000000 		.4byte	.LVL7-.Ltext0
 2867 013e A0000000 		.4byte	.LVL8-.Ltext0
 2868 0142 0500     		.2byte	0x5
 2869 0144 03       		.byte	0x3
 2870 0145 18000000 		.4byte	_ZL7s_state+24
 2871 0149 00000000 		.4byte	0
 2872 014d 00000000 		.4byte	0
 2873              	.LLST10:
 2874 0151 96000000 		.4byte	.LVL7-.Ltext0
 2875 0155 82020000 		.4byte	.LVL54-.Ltext0
 2876 0159 0100     		.2byte	0x1
 2877 015b 5A       		.byte	0x5a
 2878 015c 00000000 		.4byte	0
 2879 0160 00000000 		.4byte	0
 2880              	.LLST11:
 2881 0164 96000000 		.4byte	.LVL7-.Ltext0
 2882 0168 A0000000 		.4byte	.LVL8-.Ltext0
 2883 016c 0200     		.2byte	0x2
 2884 016e 30       		.byte	0x30
 2885 016f 9F       		.byte	0x9f
 2886 0170 00000000 		.4byte	0
 2887 0174 00000000 		.4byte	0
 2888              	.LLST12:
 2889 0178 D2000000 		.4byte	.LVL18-.Ltext0
 2890 017c D6000000 		.4byte	.LVL19-.Ltext0
 2891 0180 0100     		.2byte	0x1
 2892 0182 53       		.byte	0x53
 2893 0183 D6000000 		.4byte	.LVL19-.Ltext0
 2894 0187 00010000 		.4byte	.LVL24-.Ltext0
 2895 018b 0200     		.2byte	0x2
 2896 018d 90       		.byte	0x90
 2897 018e 4F       		.uleb128 0x4f
 2898 018f 00010000 		.4byte	.LVL24-.Ltext0
 2899 0193 1E010000 		.4byte	.LVL26-.Ltext0
ARM GAS  C:\Users\eric\AppData\Local\Temp\cclFSUCi.s 			page 52


 2900 0197 5000     		.2byte	0x50
 2901 0199 77       		.byte	0x77
 2902 019a 00       		.sleb128 0
 2903 019b 08       		.byte	0x8
 2904 019c FF       		.byte	0xff
 2905 019d 1B       		.byte	0x1b
 2906 019e 31       		.byte	0x31
 2907 019f 1C       		.byte	0x1c
 2908 01a0 77       		.byte	0x77
 2909 01a1 00       		.sleb128 0
 2910 01a2 08       		.byte	0x8
 2911 01a3 FF       		.byte	0xff
 2912 01a4 1B       		.byte	0x1b
 2913 01a5 77       		.byte	0x77
 2914 01a6 00       		.sleb128 0
 2915 01a7 77       		.byte	0x77
 2916 01a8 00       		.sleb128 0
 2917 01a9 08       		.byte	0x8
 2918 01aa FF       		.byte	0xff
 2919 01ab 1B       		.byte	0x1b
 2920 01ac 08       		.byte	0x8
 2921 01ad FF       		.byte	0xff
 2922 01ae 1E       		.byte	0x1e
 2923 01af 1C       		.byte	0x1c
 2924 01b0 30       		.byte	0x30
 2925 01b1 2D       		.byte	0x2d
 2926 01b2 28       		.byte	0x28
 2927 01b3 0100     		.2byte	0x1
 2928 01b5 16       		.byte	0x16
 2929 01b6 13       		.byte	0x13
 2930 01b7 7A       		.byte	0x7a
 2931 01b8 00       		.sleb128 0
 2932 01b9 22       		.byte	0x22
 2933 01ba 38       		.byte	0x38
 2934 01bb 24       		.byte	0x24
 2935 01bc 77       		.byte	0x77
 2936 01bd 00       		.sleb128 0
 2937 01be 77       		.byte	0x77
 2938 01bf 00       		.sleb128 0
 2939 01c0 08       		.byte	0x8
 2940 01c1 FF       		.byte	0xff
 2941 01c2 1B       		.byte	0x1b
 2942 01c3 08       		.byte	0x8
 2943 01c4 FF       		.byte	0xff
 2944 01c5 1E       		.byte	0x1e
 2945 01c6 1C       		.byte	0x1c
 2946 01c7 23       		.byte	0x23
 2947 01c8 FF01     		.uleb128 0xff
 2948 01ca 77       		.byte	0x77
 2949 01cb 00       		.sleb128 0
 2950 01cc 77       		.byte	0x77
 2951 01cd 00       		.sleb128 0
 2952 01ce 08       		.byte	0x8
 2953 01cf FF       		.byte	0xff
 2954 01d0 1B       		.byte	0x1b
 2955 01d1 08       		.byte	0x8
 2956 01d2 FF       		.byte	0xff
ARM GAS  C:\Users\eric\AppData\Local\Temp\cclFSUCi.s 			page 53


 2957 01d3 1E       		.byte	0x1e
 2958 01d4 1C       		.byte	0x1c
 2959 01d5 77       		.byte	0x77
 2960 01d6 00       		.sleb128 0
 2961 01d7 77       		.byte	0x77
 2962 01d8 00       		.sleb128 0
 2963 01d9 08       		.byte	0x8
 2964 01da FF       		.byte	0xff
 2965 01db 1B       		.byte	0x1b
 2966 01dc 08       		.byte	0x8
 2967 01dd FF       		.byte	0xff
 2968 01de 1E       		.byte	0x1e
 2969 01df 1C       		.byte	0x1c
 2970 01e0 30       		.byte	0x30
 2971 01e1 2D       		.byte	0x2d
 2972 01e2 28       		.byte	0x28
 2973 01e3 0100     		.2byte	0x1
 2974 01e5 16       		.byte	0x16
 2975 01e6 13       		.byte	0x13
 2976 01e7 21       		.byte	0x21
 2977 01e8 9F       		.byte	0x9f
 2978 01e9 00000000 		.4byte	0
 2979 01ed 00000000 		.4byte	0
 2980              	.LLST13:
 2981 01f1 D2000000 		.4byte	.LVL18-.Ltext0
 2982 01f5 DA000000 		.4byte	.LVL20-.Ltext0
 2983 01f9 0100     		.2byte	0x1
 2984 01fb 5E       		.byte	0x5e
 2985 01fc DA000000 		.4byte	.LVL20-.Ltext0
 2986 0200 DE000000 		.4byte	.LVL21-.Ltext0
 2987 0204 0300     		.2byte	0x3
 2988 0206 7E       		.byte	0x7e
 2989 0207 7F       		.sleb128 -1
 2990 0208 9F       		.byte	0x9f
 2991 0209 DE000000 		.4byte	.LVL21-.Ltext0
 2992 020d 1E010000 		.4byte	.LVL26-.Ltext0
 2993 0211 5600     		.2byte	0x56
 2994 0213 77       		.byte	0x77
 2995 0214 00       		.sleb128 0
 2996 0215 08       		.byte	0x8
 2997 0216 FF       		.byte	0xff
 2998 0217 1B       		.byte	0x1b
 2999 0218 31       		.byte	0x31
 3000 0219 1C       		.byte	0x1c
 3001 021a 77       		.byte	0x77
 3002 021b 00       		.sleb128 0
 3003 021c 08       		.byte	0x8
 3004 021d FF       		.byte	0xff
 3005 021e 1B       		.byte	0x1b
 3006 021f 77       		.byte	0x77
 3007 0220 00       		.sleb128 0
 3008 0221 77       		.byte	0x77
 3009 0222 00       		.sleb128 0
 3010 0223 08       		.byte	0x8
 3011 0224 FF       		.byte	0xff
 3012 0225 1B       		.byte	0x1b
 3013 0226 08       		.byte	0x8
ARM GAS  C:\Users\eric\AppData\Local\Temp\cclFSUCi.s 			page 54


 3014 0227 FF       		.byte	0xff
 3015 0228 1E       		.byte	0x1e
 3016 0229 1C       		.byte	0x1c
 3017 022a 30       		.byte	0x30
 3018 022b 2D       		.byte	0x2d
 3019 022c 28       		.byte	0x28
 3020 022d 0100     		.2byte	0x1
 3021 022f 16       		.byte	0x16
 3022 0230 13       		.byte	0x13
 3023 0231 7A       		.byte	0x7a
 3024 0232 00       		.sleb128 0
 3025 0233 22       		.byte	0x22
 3026 0234 38       		.byte	0x38
 3027 0235 24       		.byte	0x24
 3028 0236 77       		.byte	0x77
 3029 0237 00       		.sleb128 0
 3030 0238 77       		.byte	0x77
 3031 0239 00       		.sleb128 0
 3032 023a 08       		.byte	0x8
 3033 023b FF       		.byte	0xff
 3034 023c 1B       		.byte	0x1b
 3035 023d 08       		.byte	0x8
 3036 023e FF       		.byte	0xff
 3037 023f 1E       		.byte	0x1e
 3038 0240 1C       		.byte	0x1c
 3039 0241 23       		.byte	0x23
 3040 0242 FF01     		.uleb128 0xff
 3041 0244 77       		.byte	0x77
 3042 0245 00       		.sleb128 0
 3043 0246 77       		.byte	0x77
 3044 0247 00       		.sleb128 0
 3045 0248 08       		.byte	0x8
 3046 0249 FF       		.byte	0xff
 3047 024a 1B       		.byte	0x1b
 3048 024b 08       		.byte	0x8
 3049 024c FF       		.byte	0xff
 3050 024d 1E       		.byte	0x1e
 3051 024e 1C       		.byte	0x1c
 3052 024f 77       		.byte	0x77
 3053 0250 00       		.sleb128 0
 3054 0251 77       		.byte	0x77
 3055 0252 00       		.sleb128 0
 3056 0253 08       		.byte	0x8
 3057 0254 FF       		.byte	0xff
 3058 0255 1B       		.byte	0x1b
 3059 0256 08       		.byte	0x8
 3060 0257 FF       		.byte	0xff
 3061 0258 1E       		.byte	0x1e
 3062 0259 1C       		.byte	0x1c
 3063 025a 30       		.byte	0x30
 3064 025b 2D       		.byte	0x2d
 3065 025c 28       		.byte	0x28
 3066 025d 0100     		.2byte	0x1
 3067 025f 16       		.byte	0x16
 3068 0260 13       		.byte	0x13
 3069 0261 21       		.byte	0x21
 3070 0262 0A       		.byte	0xa
ARM GAS  C:\Users\eric\AppData\Local\Temp\cclFSUCi.s 			page 55


 3071 0263 FFFF     		.2byte	0xffff
 3072 0265 1A       		.byte	0x1a
 3073 0266 38       		.byte	0x38
 3074 0267 26       		.byte	0x26
 3075 0268 9F       		.byte	0x9f
 3076 0269 00000000 		.4byte	0
 3077 026d 00000000 		.4byte	0
 3078              	.LLST14:
 3079 0271 D2000000 		.4byte	.LVL18-.Ltext0
 3080 0275 DA000000 		.4byte	.LVL20-.Ltext0
 3081 0279 0100     		.2byte	0x1
 3082 027b 5E       		.byte	0x5e
 3083 027c DA000000 		.4byte	.LVL20-.Ltext0
 3084 0280 DE000000 		.4byte	.LVL21-.Ltext0
 3085 0284 0300     		.2byte	0x3
 3086 0286 7E       		.byte	0x7e
 3087 0287 7F       		.sleb128 -1
 3088 0288 9F       		.byte	0x9f
 3089 0289 DE000000 		.4byte	.LVL21-.Ltext0
 3090 028d F8000000 		.4byte	.LVL23-.Ltext0
 3091 0291 5600     		.2byte	0x56
 3092 0293 77       		.byte	0x77
 3093 0294 00       		.sleb128 0
 3094 0295 08       		.byte	0x8
 3095 0296 FF       		.byte	0xff
 3096 0297 1B       		.byte	0x1b
 3097 0298 31       		.byte	0x31
 3098 0299 1C       		.byte	0x1c
 3099 029a 77       		.byte	0x77
 3100 029b 00       		.sleb128 0
 3101 029c 08       		.byte	0x8
 3102 029d FF       		.byte	0xff
 3103 029e 1B       		.byte	0x1b
 3104 029f 77       		.byte	0x77
 3105 02a0 00       		.sleb128 0
 3106 02a1 77       		.byte	0x77
 3107 02a2 00       		.sleb128 0
 3108 02a3 08       		.byte	0x8
 3109 02a4 FF       		.byte	0xff
 3110 02a5 1B       		.byte	0x1b
 3111 02a6 08       		.byte	0x8
 3112 02a7 FF       		.byte	0xff
 3113 02a8 1E       		.byte	0x1e
 3114 02a9 1C       		.byte	0x1c
 3115 02aa 30       		.byte	0x30
 3116 02ab 2D       		.byte	0x2d
 3117 02ac 28       		.byte	0x28
 3118 02ad 0100     		.2byte	0x1
 3119 02af 16       		.byte	0x16
 3120 02b0 13       		.byte	0x13
 3121 02b1 7A       		.byte	0x7a
 3122 02b2 00       		.sleb128 0
 3123 02b3 22       		.byte	0x22
 3124 02b4 38       		.byte	0x38
 3125 02b5 24       		.byte	0x24
 3126 02b6 77       		.byte	0x77
 3127 02b7 00       		.sleb128 0
ARM GAS  C:\Users\eric\AppData\Local\Temp\cclFSUCi.s 			page 56


 3128 02b8 77       		.byte	0x77
 3129 02b9 00       		.sleb128 0
 3130 02ba 08       		.byte	0x8
 3131 02bb FF       		.byte	0xff
 3132 02bc 1B       		.byte	0x1b
 3133 02bd 08       		.byte	0x8
 3134 02be FF       		.byte	0xff
 3135 02bf 1E       		.byte	0x1e
 3136 02c0 1C       		.byte	0x1c
 3137 02c1 23       		.byte	0x23
 3138 02c2 FF01     		.uleb128 0xff
 3139 02c4 77       		.byte	0x77
 3140 02c5 00       		.sleb128 0
 3141 02c6 77       		.byte	0x77
 3142 02c7 00       		.sleb128 0
 3143 02c8 08       		.byte	0x8
 3144 02c9 FF       		.byte	0xff
 3145 02ca 1B       		.byte	0x1b
 3146 02cb 08       		.byte	0x8
 3147 02cc FF       		.byte	0xff
 3148 02cd 1E       		.byte	0x1e
 3149 02ce 1C       		.byte	0x1c
 3150 02cf 77       		.byte	0x77
 3151 02d0 00       		.sleb128 0
 3152 02d1 77       		.byte	0x77
 3153 02d2 00       		.sleb128 0
 3154 02d3 08       		.byte	0x8
 3155 02d4 FF       		.byte	0xff
 3156 02d5 1B       		.byte	0x1b
 3157 02d6 08       		.byte	0x8
 3158 02d7 FF       		.byte	0xff
 3159 02d8 1E       		.byte	0x1e
 3160 02d9 1C       		.byte	0x1c
 3161 02da 30       		.byte	0x30
 3162 02db 2D       		.byte	0x2d
 3163 02dc 28       		.byte	0x28
 3164 02dd 0100     		.2byte	0x1
 3165 02df 16       		.byte	0x16
 3166 02e0 13       		.byte	0x13
 3167 02e1 21       		.byte	0x21
 3168 02e2 0A       		.byte	0xa
 3169 02e3 FFFF     		.2byte	0xffff
 3170 02e5 1A       		.byte	0x1a
 3171 02e6 38       		.byte	0x38
 3172 02e7 26       		.byte	0x26
 3173 02e8 9F       		.byte	0x9f
 3174 02e9 00000000 		.4byte	0
 3175 02ed 00000000 		.4byte	0
 3176              	.LLST15:
 3177 02f1 F8000000 		.4byte	.LVL23-.Ltext0
 3178 02f5 00010000 		.4byte	.LVL24-.Ltext0
 3179 02f9 1300     		.2byte	0x13
 3180 02fb 92       		.byte	0x92
 3181 02fc 4F       		.uleb128 0x4f
 3182 02fd 00       		.sleb128 0
 3183 02fe 08       		.byte	0x8
 3184 02ff FF       		.byte	0xff
ARM GAS  C:\Users\eric\AppData\Local\Temp\cclFSUCi.s 			page 57


 3185 0300 1A       		.byte	0x1a
 3186 0301 F7       		.byte	0xf7
 3187 0302 2C       		.uleb128 0x2c
 3188 0303 F7       		.byte	0xf7
 3189 0304 25       		.uleb128 0x25
 3190 0305 F4       		.byte	0xf4
 3191 0306 25       		.uleb128 0x25
 3192 0307 04       		.byte	0x4
 3193 0308 8180803B 		.4byte	0x3b808081
 3194 030c 1E       		.byte	0x1e
 3195 030d 9F       		.byte	0x9f
 3196 030e 00010000 		.4byte	.LVL24-.Ltext0
 3197 0312 0C010000 		.4byte	.LVL25-.Ltext0
 3198 0316 5F00     		.2byte	0x5f
 3199 0318 77       		.byte	0x77
 3200 0319 00       		.sleb128 0
 3201 031a 08       		.byte	0x8
 3202 031b FF       		.byte	0xff
 3203 031c 1B       		.byte	0x1b
 3204 031d 31       		.byte	0x31
 3205 031e 1C       		.byte	0x1c
 3206 031f 77       		.byte	0x77
 3207 0320 00       		.sleb128 0
 3208 0321 08       		.byte	0x8
 3209 0322 FF       		.byte	0xff
 3210 0323 1B       		.byte	0x1b
 3211 0324 77       		.byte	0x77
 3212 0325 00       		.sleb128 0
 3213 0326 77       		.byte	0x77
 3214 0327 00       		.sleb128 0
 3215 0328 08       		.byte	0x8
 3216 0329 FF       		.byte	0xff
 3217 032a 1B       		.byte	0x1b
 3218 032b 08       		.byte	0x8
 3219 032c FF       		.byte	0xff
 3220 032d 1E       		.byte	0x1e
 3221 032e 1C       		.byte	0x1c
 3222 032f 30       		.byte	0x30
 3223 0330 2D       		.byte	0x2d
 3224 0331 28       		.byte	0x28
 3225 0332 0100     		.2byte	0x1
 3226 0334 16       		.byte	0x16
 3227 0335 13       		.byte	0x13
 3228 0336 7A       		.byte	0x7a
 3229 0337 00       		.sleb128 0
 3230 0338 22       		.byte	0x22
 3231 0339 38       		.byte	0x38
 3232 033a 24       		.byte	0x24
 3233 033b 77       		.byte	0x77
 3234 033c 00       		.sleb128 0
 3235 033d 77       		.byte	0x77
 3236 033e 00       		.sleb128 0
 3237 033f 08       		.byte	0x8
 3238 0340 FF       		.byte	0xff
 3239 0341 1B       		.byte	0x1b
 3240 0342 08       		.byte	0x8
 3241 0343 FF       		.byte	0xff
ARM GAS  C:\Users\eric\AppData\Local\Temp\cclFSUCi.s 			page 58


 3242 0344 1E       		.byte	0x1e
 3243 0345 1C       		.byte	0x1c
 3244 0346 23       		.byte	0x23
 3245 0347 FF01     		.uleb128 0xff
 3246 0349 77       		.byte	0x77
 3247 034a 00       		.sleb128 0
 3248 034b 77       		.byte	0x77
 3249 034c 00       		.sleb128 0
 3250 034d 08       		.byte	0x8
 3251 034e FF       		.byte	0xff
 3252 034f 1B       		.byte	0x1b
 3253 0350 08       		.byte	0x8
 3254 0351 FF       		.byte	0xff
 3255 0352 1E       		.byte	0x1e
 3256 0353 1C       		.byte	0x1c
 3257 0354 77       		.byte	0x77
 3258 0355 00       		.sleb128 0
 3259 0356 77       		.byte	0x77
 3260 0357 00       		.sleb128 0
 3261 0358 08       		.byte	0x8
 3262 0359 FF       		.byte	0xff
 3263 035a 1B       		.byte	0x1b
 3264 035b 08       		.byte	0x8
 3265 035c FF       		.byte	0xff
 3266 035d 1E       		.byte	0x1e
 3267 035e 1C       		.byte	0x1c
 3268 035f 30       		.byte	0x30
 3269 0360 2D       		.byte	0x2d
 3270 0361 28       		.byte	0x28
 3271 0362 0100     		.2byte	0x1
 3272 0364 16       		.byte	0x16
 3273 0365 13       		.byte	0x13
 3274 0366 21       		.byte	0x21
 3275 0367 08       		.byte	0x8
 3276 0368 FF       		.byte	0xff
 3277 0369 1A       		.byte	0x1a
 3278 036a F7       		.byte	0xf7
 3279 036b 2C       		.uleb128 0x2c
 3280 036c F7       		.byte	0xf7
 3281 036d 25       		.uleb128 0x25
 3282 036e F4       		.byte	0xf4
 3283 036f 25       		.uleb128 0x25
 3284 0370 04       		.byte	0x4
 3285 0371 8180803B 		.4byte	0x3b808081
 3286 0375 1E       		.byte	0x1e
 3287 0376 9F       		.byte	0x9f
 3288 0377 00000000 		.4byte	0
 3289 037b 00000000 		.4byte	0
 3290              	.LLST16:
 3291 037f 0C010000 		.4byte	.LVL25-.Ltext0
 3292 0383 1E010000 		.4byte	.LVL26-.Ltext0
 3293 0387 0600     		.2byte	0x6
 3294 0389 9E       		.byte	0x9e
 3295 038a 04       		.uleb128 0x4
 3296 038b 49FFB846 		.4byte	0x46b8ff49
 3297 038f 00000000 		.4byte	0
 3298 0393 00000000 		.4byte	0
ARM GAS  C:\Users\eric\AppData\Local\Temp\cclFSUCi.s 			page 59


 3299              	.LLST19:
 3300 0397 0C010000 		.4byte	.LVL25-.Ltext0
 3301 039b 1E010000 		.4byte	.LVL26-.Ltext0
 3302 039f 0C00     		.2byte	0xc
 3303 03a1 F5       		.byte	0xf5
 3304 03a2 4E       		.uleb128 0x4e
 3305 03a3 25       		.uleb128 0x25
 3306 03a4 F4       		.byte	0xf4
 3307 03a5 25       		.uleb128 0x25
 3308 03a6 04       		.byte	0x4
 3309 03a7 49FFB846 		.4byte	0x46b8ff49
 3310 03ab 1C       		.byte	0x1c
 3311 03ac 9F       		.byte	0x9f
 3312 03ad 00000000 		.4byte	0
 3313 03b1 00000000 		.4byte	0
 3314              	.LLST20:
 3315 03b5 BC000000 		.4byte	.LVL14-.Ltext0
 3316 03b9 C4000000 		.4byte	.LVL17-.Ltext0
 3317 03bd 0100     		.2byte	0x1
 3318 03bf 5E       		.byte	0x5e
 3319 03c0 00000000 		.4byte	0
 3320 03c4 00000000 		.4byte	0
 3321              	.LLST21:
 3322 03c8 BC000000 		.4byte	.LVL14-.Ltext0
 3323 03cc BE000000 		.4byte	.LVL15-.Ltext0
 3324 03d0 0600     		.2byte	0x6
 3325 03d2 73       		.byte	0x73
 3326 03d3 00       		.sleb128 0
 3327 03d4 7A       		.byte	0x7a
 3328 03d5 00       		.sleb128 0
 3329 03d6 22       		.byte	0x22
 3330 03d7 9F       		.byte	0x9f
 3331 03d8 00000000 		.4byte	0
 3332 03dc 00000000 		.4byte	0
 3333              	.LLST22:
 3334 03e0 A4000000 		.4byte	.LVL9-.Ltext0
 3335 03e4 BE000000 		.4byte	.LVL15-.Ltext0
 3336 03e8 0200     		.2byte	0x2
 3337 03ea 30       		.byte	0x30
 3338 03eb 9F       		.byte	0x9f
 3339 03ec BE000000 		.4byte	.LVL15-.Ltext0
 3340 03f0 C2000000 		.4byte	.LVL16-.Ltext0
 3341 03f4 0800     		.2byte	0x8
 3342 03f6 73       		.byte	0x73
 3343 03f7 00       		.sleb128 0
 3344 03f8 08       		.byte	0x8
 3345 03f9 FF       		.byte	0xff
 3346 03fa 1A       		.byte	0x1a
 3347 03fb 38       		.byte	0x38
 3348 03fc 24       		.byte	0x24
 3349 03fd 9F       		.byte	0x9f
 3350 03fe 00000000 		.4byte	0
 3351 0402 00000000 		.4byte	0
 3352              	.LLST23:
 3353 0406 AA000000 		.4byte	.LVL10-.Ltext0
 3354 040a BE000000 		.4byte	.LVL15-.Ltext0
 3355 040e 0100     		.2byte	0x1
ARM GAS  C:\Users\eric\AppData\Local\Temp\cclFSUCi.s 			page 60


 3356 0410 53       		.byte	0x53
 3357 0411 00000000 		.4byte	0
 3358 0415 00000000 		.4byte	0
 3359              	.LLST24:
 3360 0419 AE000000 		.4byte	.LVL11-.Ltext0
 3361 041d B2000000 		.4byte	.LVL12-.Ltext0
 3362 0421 0600     		.2byte	0x6
 3363 0423 77       		.byte	0x77
 3364 0424 00       		.sleb128 0
 3365 0425 7E       		.byte	0x7e
 3366 0426 00       		.sleb128 0
 3367 0427 1C       		.byte	0x1c
 3368 0428 9F       		.byte	0x9f
 3369 0429 B2000000 		.4byte	.LVL12-.Ltext0
 3370 042d C4000000 		.4byte	.LVL17-.Ltext0
 3371 0431 0100     		.2byte	0x1
 3372 0433 5E       		.byte	0x5e
 3373 0434 00000000 		.4byte	0
 3374 0438 00000000 		.4byte	0
 3375              	.LLST25:
 3376 043c 78010000 		.4byte	.LVL29-.Ltext0
 3377 0440 D6010000 		.4byte	.LVL38-.Ltext0
 3378 0444 0200     		.2byte	0x2
 3379 0446 90       		.byte	0x90
 3380 0447 4E       		.uleb128 0x4e
 3381 0448 D6010000 		.4byte	.LVL38-.Ltext0
 3382 044c EE010000 		.4byte	.LVL40-.Ltext0
 3383 0450 0200     		.2byte	0x2
 3384 0452 90       		.byte	0x90
 3385 0453 54       		.uleb128 0x54
 3386 0454 EE010000 		.4byte	.LVL40-.Ltext0
 3387 0458 08020000 		.4byte	.LVL41-.Ltext0
 3388 045c 0200     		.2byte	0x2
 3389 045e 90       		.byte	0x90
 3390 045f 40       		.uleb128 0x40
 3391 0460 0A020000 		.4byte	.LVL42-.Ltext0
 3392 0464 1C020000 		.4byte	.LVL43-.Ltext0
 3393 0468 0200     		.2byte	0x2
 3394 046a 90       		.byte	0x90
 3395 046b 40       		.uleb128 0x40
 3396 046c 00000000 		.4byte	0
 3397 0470 00000000 		.4byte	0
 3398              	.LLST26:
 3399 0474 80010000 		.4byte	.LVL30-.Ltext0
 3400 0478 C0010000 		.4byte	.LVL35-.Ltext0
 3401 047c 0200     		.2byte	0x2
 3402 047e 90       		.byte	0x90
 3403 047f 4F       		.uleb128 0x4f
 3404 0480 C0010000 		.4byte	.LVL35-.Ltext0
 3405 0484 C4010000 		.4byte	.LVL36-.Ltext0
 3406 0488 0800     		.2byte	0x8
 3407 048a F5       		.byte	0xf5
 3408 048b 4F       		.uleb128 0x4f
 3409 048c 25       		.uleb128 0x25
 3410 048d F5       		.byte	0xf5
 3411 048e 4D       		.uleb128 0x4d
 3412 048f 25       		.uleb128 0x25
ARM GAS  C:\Users\eric\AppData\Local\Temp\cclFSUCi.s 			page 61


 3413 0490 1C       		.byte	0x1c
 3414 0491 9F       		.byte	0x9f
 3415 0492 C4010000 		.4byte	.LVL36-.Ltext0
 3416 0496 CA010000 		.4byte	.LVL37-.Ltext0
 3417 049a 0200     		.2byte	0x2
 3418 049c 90       		.byte	0x90
 3419 049d 4F       		.uleb128 0x4f
 3420 049e 00000000 		.4byte	0
 3421 04a2 00000000 		.4byte	0
 3422              	.LLST27:
 3423 04a6 80010000 		.4byte	.LVL30-.Ltext0
 3424 04aa A0010000 		.4byte	.LVL32-.Ltext0
 3425 04ae 0200     		.2byte	0x2
 3426 04b0 90       		.byte	0x90
 3427 04b1 4F       		.uleb128 0x4f
 3428 04b2 00000000 		.4byte	0
 3429 04b6 00000000 		.4byte	0
 3430              	.LLST28:
 3431 04ba 90010000 		.4byte	.LVL31-.Ltext0
 3432 04be A0010000 		.4byte	.LVL32-.Ltext0
 3433 04c2 0200     		.2byte	0x2
 3434 04c4 90       		.byte	0x90
 3435 04c5 49       		.uleb128 0x49
 3436 04c6 00000000 		.4byte	0
 3437 04ca 00000000 		.4byte	0
 3438              	.LLST29:
 3439 04ce EE010000 		.4byte	.LVL40-.Ltext0
 3440 04d2 1C020000 		.4byte	.LVL43-.Ltext0
 3441 04d6 0200     		.2byte	0x2
 3442 04d8 90       		.byte	0x90
 3443 04d9 40       		.uleb128 0x40
 3444 04da 00000000 		.4byte	0
 3445 04de 00000000 		.4byte	0
 3446              	.LLST30:
 3447 04e2 38020000 		.4byte	.LVL45-.Ltext0
 3448 04e6 50020000 		.4byte	.LVL47-.Ltext0
 3449 04ea 0200     		.2byte	0x2
 3450 04ec 90       		.byte	0x90
 3451 04ed 40       		.uleb128 0x40
 3452 04ee 52020000 		.4byte	.LVL48-.Ltext0
 3453 04f2 56020000 		.4byte	.LVL49-.Ltext0
 3454 04f6 0200     		.2byte	0x2
 3455 04f8 90       		.byte	0x90
 3456 04f9 40       		.uleb128 0x40
 3457 04fa 00000000 		.4byte	0
 3458 04fe 00000000 		.4byte	0
 3459              	.LLST31:
 3460 0502 38020000 		.4byte	.LVL45-.Ltext0
 3461 0506 56020000 		.4byte	.LVL49-.Ltext0
 3462 050a 0600     		.2byte	0x6
 3463 050c 9E       		.byte	0x9e
 3464 050d 04       		.uleb128 0x4
 3465 050e CDCC4C3D 		.4byte	0x3d4ccccd
 3466 0512 00000000 		.4byte	0
 3467 0516 00000000 		.4byte	0
 3468              	.LLST33:
 3469 051a 38020000 		.4byte	.LVL45-.Ltext0
ARM GAS  C:\Users\eric\AppData\Local\Temp\cclFSUCi.s 			page 62


 3470 051e 56020000 		.4byte	.LVL49-.Ltext0
 3471 0522 0600     		.2byte	0x6
 3472 0524 9E       		.byte	0x9e
 3473 0525 04       		.uleb128 0x4
 3474 0526 0000803F 		.4byte	0x3f800000
 3475 052a 00000000 		.4byte	0
 3476 052e 00000000 		.4byte	0
 3477              	.LLST34:
 3478 0532 38020000 		.4byte	.LVL45-.Ltext0
 3479 0536 42020000 		.4byte	.LVL46-.Ltext0
 3480 053a 0200     		.2byte	0x2
 3481 053c 90       		.byte	0x90
 3482 053d 40       		.uleb128 0x40
 3483 053e 52020000 		.4byte	.LVL48-.Ltext0
 3484 0542 56020000 		.4byte	.LVL49-.Ltext0
 3485 0546 0200     		.2byte	0x2
 3486 0548 90       		.byte	0x90
 3487 0549 40       		.uleb128 0x40
 3488 054a 00000000 		.4byte	0
 3489 054e 00000000 		.4byte	0
 3490              	.LLST35:
 3491 0552 38020000 		.4byte	.LVL45-.Ltext0
 3492 0556 56020000 		.4byte	.LVL49-.Ltext0
 3493 055a 0600     		.2byte	0x6
 3494 055c 9E       		.byte	0x9e
 3495 055d 04       		.uleb128 0x4
 3496 055e 000080BF 		.4byte	0xbf800000
 3497 0562 00000000 		.4byte	0
 3498 0566 00000000 		.4byte	0
 3499              	.LLST36:
 3500 056a 38020000 		.4byte	.LVL45-.Ltext0
 3501 056e 42020000 		.4byte	.LVL46-.Ltext0
 3502 0572 0600     		.2byte	0x6
 3503 0574 9E       		.byte	0x9e
 3504 0575 04       		.uleb128 0x4
 3505 0576 000080BF 		.4byte	0xbf800000
 3506 057a 52020000 		.4byte	.LVL48-.Ltext0
 3507 057e 56020000 		.4byte	.LVL49-.Ltext0
 3508 0582 0600     		.2byte	0x6
 3509 0584 9E       		.byte	0x9e
 3510 0585 04       		.uleb128 0x4
 3511 0586 000080BF 		.4byte	0xbf800000
 3512 058a 00000000 		.4byte	0
 3513 058e 00000000 		.4byte	0
 3514              	.LLST38:
 3515 0592 38020000 		.4byte	.LVL45-.Ltext0
 3516 0596 42020000 		.4byte	.LVL46-.Ltext0
 3517 059a 0C00     		.2byte	0xc
 3518 059c F5       		.byte	0xf5
 3519 059d 40       		.uleb128 0x40
 3520 059e 25       		.uleb128 0x25
 3521 059f F4       		.byte	0xf4
 3522 05a0 25       		.uleb128 0x25
 3523 05a1 04       		.byte	0x4
 3524 05a2 0000803F 		.4byte	0x3f800000
 3525 05a6 22       		.byte	0x22
 3526 05a7 9F       		.byte	0x9f
ARM GAS  C:\Users\eric\AppData\Local\Temp\cclFSUCi.s 			page 63


 3527 05a8 52020000 		.4byte	.LVL48-.Ltext0
 3528 05ac 56020000 		.4byte	.LVL49-.Ltext0
 3529 05b0 0C00     		.2byte	0xc
 3530 05b2 F5       		.byte	0xf5
 3531 05b3 40       		.uleb128 0x40
 3532 05b4 25       		.uleb128 0x25
 3533 05b5 F4       		.byte	0xf4
 3534 05b6 25       		.uleb128 0x25
 3535 05b7 04       		.byte	0x4
 3536 05b8 0000803F 		.4byte	0x3f800000
 3537 05bc 22       		.byte	0x22
 3538 05bd 9F       		.byte	0x9f
 3539 05be 00000000 		.4byte	0
 3540 05c2 00000000 		.4byte	0
 3541              	.LLST39:
 3542 05c6 BA020000 		.4byte	.LVL57-.Ltext0
 3543 05ca D4020000 		.4byte	.LVL59-.Ltext0
 3544 05ce 0100     		.2byte	0x1
 3545 05d0 51       		.byte	0x51
 3546 05d1 D4020000 		.4byte	.LVL59-.Ltext0
 3547 05d5 EE020000 		.4byte	.LVL61-.Ltext0
 3548 05d9 0400     		.2byte	0x4
 3549 05db F3       		.byte	0xf3
 3550 05dc 01       		.uleb128 0x1
 3551 05dd 51       		.byte	0x51
 3552 05de 9F       		.byte	0x9f
 3553 05df EE020000 		.4byte	.LVL61-.Ltext0
 3554 05e3 F2020000 		.4byte	.LVL62-.Ltext0
 3555 05e7 0100     		.2byte	0x1
 3556 05e9 51       		.byte	0x51
 3557 05ea F2020000 		.4byte	.LVL62-.Ltext0
 3558 05ee F6020000 		.4byte	.LVL63-.Ltext0
 3559 05f2 0400     		.2byte	0x4
 3560 05f4 F3       		.byte	0xf3
 3561 05f5 01       		.uleb128 0x1
 3562 05f6 51       		.byte	0x51
 3563 05f7 9F       		.byte	0x9f
 3564 05f8 F6020000 		.4byte	.LVL63-.Ltext0
 3565 05fc 54030000 		.4byte	.LFE246-.Ltext0
 3566 0600 0100     		.2byte	0x1
 3567 0602 51       		.byte	0x51
 3568 0603 00000000 		.4byte	0
 3569 0607 00000000 		.4byte	0
 3570              	.LLST40:
 3571 060b C2020000 		.4byte	.LVL58-.Ltext0
 3572 060f D8020000 		.4byte	.LVL60-.Ltext0
 3573 0613 0C00     		.2byte	0xc
 3574 0615 F5       		.byte	0xf5
 3575 0616 4F       		.uleb128 0x4f
 3576 0617 25       		.uleb128 0x25
 3577 0618 F4       		.byte	0xf4
 3578 0619 25       		.uleb128 0x25
 3579 061a 04       		.byte	0x4
 3580 061b 0820803A 		.4byte	0x3a802008
 3581 061f 1E       		.byte	0x1e
 3582 0620 9F       		.byte	0x9f
 3583 0621 D8020000 		.4byte	.LVL60-.Ltext0
ARM GAS  C:\Users\eric\AppData\Local\Temp\cclFSUCi.s 			page 64


 3584 0625 EE020000 		.4byte	.LVL61-.Ltext0
 3585 0629 0F00     		.2byte	0xf
 3586 062b 71       		.byte	0x71
 3587 062c 7F       		.sleb128 -1
 3588 062d F7       		.byte	0xf7
 3589 062e 2C       		.uleb128 0x2c
 3590 062f F7       		.byte	0xf7
 3591 0630 25       		.uleb128 0x25
 3592 0631 F4       		.byte	0xf4
 3593 0632 25       		.uleb128 0x25
 3594 0633 04       		.byte	0x4
 3595 0634 0820803A 		.4byte	0x3a802008
 3596 0638 1E       		.byte	0x1e
 3597 0639 9F       		.byte	0x9f
 3598 063a EE020000 		.4byte	.LVL61-.Ltext0
 3599 063e 1C030000 		.4byte	.LVL64-.Ltext0
 3600 0642 0C00     		.2byte	0xc
 3601 0644 F5       		.byte	0xf5
 3602 0645 4F       		.uleb128 0x4f
 3603 0646 25       		.uleb128 0x25
 3604 0647 F4       		.byte	0xf4
 3605 0648 25       		.uleb128 0x25
 3606 0649 04       		.byte	0x4
 3607 064a 0820803A 		.4byte	0x3a802008
 3608 064e 1E       		.byte	0x1e
 3609 064f 9F       		.byte	0x9f
 3610 0650 1C030000 		.4byte	.LVL64-.Ltext0
 3611 0654 36030000 		.4byte	.LVL65-.Ltext0
 3612 0658 0F00     		.2byte	0xf
 3613 065a 71       		.byte	0x71
 3614 065b 00       		.sleb128 0
 3615 065c F7       		.byte	0xf7
 3616 065d 2C       		.uleb128 0x2c
 3617 065e F7       		.byte	0xf7
 3618 065f 25       		.uleb128 0x25
 3619 0660 F4       		.byte	0xf4
 3620 0661 25       		.uleb128 0x25
 3621 0662 04       		.byte	0x4
 3622 0663 0820803A 		.4byte	0x3a802008
 3623 0667 1E       		.byte	0x1e
 3624 0668 9F       		.byte	0x9f
 3625 0669 36030000 		.4byte	.LVL65-.Ltext0
 3626 066d 40030000 		.4byte	.LVL66-.Ltext0
 3627 0671 0C00     		.2byte	0xc
 3628 0673 F5       		.byte	0xf5
 3629 0674 4F       		.uleb128 0x4f
 3630 0675 25       		.uleb128 0x25
 3631 0676 F4       		.byte	0xf4
 3632 0677 25       		.uleb128 0x25
 3633 0678 04       		.byte	0x4
 3634 0679 0820803A 		.4byte	0x3a802008
 3635 067d 1E       		.byte	0x1e
 3636 067e 9F       		.byte	0x9f
 3637 067f 40030000 		.4byte	.LVL66-.Ltext0
 3638 0683 54030000 		.4byte	.LFE246-.Ltext0
 3639 0687 0F00     		.2byte	0xf
 3640 0689 71       		.byte	0x71
ARM GAS  C:\Users\eric\AppData\Local\Temp\cclFSUCi.s 			page 65


 3641 068a 00       		.sleb128 0
 3642 068b F7       		.byte	0xf7
 3643 068c 2C       		.uleb128 0x2c
 3644 068d F7       		.byte	0xf7
 3645 068e 25       		.uleb128 0x25
 3646 068f F4       		.byte	0xf4
 3647 0690 25       		.uleb128 0x25
 3648 0691 04       		.byte	0x4
 3649 0692 0820803A 		.4byte	0x3a802008
 3650 0696 1E       		.byte	0x1e
 3651 0697 9F       		.byte	0x9f
 3652 0698 00000000 		.4byte	0
 3653 069c 00000000 		.4byte	0
 3654              		.section	.debug_aranges,"",%progbits
 3655 0000 1C000000 		.4byte	0x1c
 3656 0004 0200     		.2byte	0x2
 3657 0006 00000000 		.4byte	.Ldebug_info0
 3658 000a 04       		.byte	0x4
 3659 000b 00       		.byte	0
 3660 000c 0000     		.2byte	0
 3661 000e 0000     		.2byte	0
 3662 0010 00000000 		.4byte	.Ltext0
 3663 0014 54030000 		.4byte	.Letext0-.Ltext0
 3664 0018 00000000 		.4byte	0
 3665 001c 00000000 		.4byte	0
 3666              		.section	.debug_ranges,"",%progbits
 3667              	.Ldebug_ranges0:
 3668 0000 80000000 		.4byte	.LBB85-.Ltext0
 3669 0004 86000000 		.4byte	.LBE85-.Ltext0
 3670 0008 96000000 		.4byte	.LBB122-.Ltext0
 3671 000c 9C000000 		.4byte	.LBE122-.Ltext0
 3672 0010 A4000000 		.4byte	.LBB123-.Ltext0
 3673 0014 50010000 		.4byte	.LBE123-.Ltext0
 3674 0018 00000000 		.4byte	0
 3675 001c 00000000 		.4byte	0
 3676 0020 80000000 		.4byte	.LBB86-.Ltext0
 3677 0024 86000000 		.4byte	.LBE86-.Ltext0
 3678 0028 96000000 		.4byte	.LBB115-.Ltext0
 3679 002c 9C000000 		.4byte	.LBE115-.Ltext0
 3680 0030 C8000000 		.4byte	.LBB118-.Ltext0
 3681 0034 CC000000 		.4byte	.LBE118-.Ltext0
 3682 0038 D2000000 		.4byte	.LBB119-.Ltext0
 3683 003c 1E010000 		.4byte	.LBE119-.Ltext0
 3684 0040 00000000 		.4byte	0
 3685 0044 00000000 		.4byte	0
 3686 0048 80000000 		.4byte	.LBB88-.Ltext0
 3687 004c 86000000 		.4byte	.LBE88-.Ltext0
 3688 0050 C8000000 		.4byte	.LBB98-.Ltext0
 3689 0054 CC000000 		.4byte	.LBE98-.Ltext0
 3690 0058 D2000000 		.4byte	.LBB99-.Ltext0
 3691 005c D6000000 		.4byte	.LBE99-.Ltext0
 3692 0060 DE000000 		.4byte	.LBB100-.Ltext0
 3693 0064 E2000000 		.4byte	.LBE100-.Ltext0
 3694 0068 EC000000 		.4byte	.LBB104-.Ltext0
 3695 006c F0000000 		.4byte	.LBE104-.Ltext0
 3696 0070 F4000000 		.4byte	.LBB106-.Ltext0
 3697 0074 F8000000 		.4byte	.LBE106-.Ltext0
ARM GAS  C:\Users\eric\AppData\Local\Temp\cclFSUCi.s 			page 66


 3698 0078 00000000 		.4byte	0
 3699 007c 00000000 		.4byte	0
 3700 0080 96000000 		.4byte	.LBB95-.Ltext0
 3701 0084 9C000000 		.4byte	.LBE95-.Ltext0
 3702 0088 F8000000 		.4byte	.LBB107-.Ltext0
 3703 008c 0C010000 		.4byte	.LBE107-.Ltext0
 3704 0090 00000000 		.4byte	0
 3705 0094 00000000 		.4byte	0
 3706 0098 E2000000 		.4byte	.LBB101-.Ltext0
 3707 009c EC000000 		.4byte	.LBE101-.Ltext0
 3708 00a0 F0000000 		.4byte	.LBB105-.Ltext0
 3709 00a4 F4000000 		.4byte	.LBE105-.Ltext0
 3710 00a8 00000000 		.4byte	0
 3711 00ac 00000000 		.4byte	0
 3712 00b0 56010000 		.4byte	.LBB127-.Ltext0
 3713 00b4 5C010000 		.4byte	.LBE127-.Ltext0
 3714 00b8 62010000 		.4byte	.LBB153-.Ltext0
 3715 00bc 72020000 		.4byte	.LBE153-.Ltext0
 3716 00c0 00000000 		.4byte	0
 3717 00c4 00000000 		.4byte	0
 3718 00c8 62010000 		.4byte	.LBB129-.Ltext0
 3719 00cc 78010000 		.4byte	.LBE129-.Ltext0
 3720 00d0 7C010000 		.4byte	.LBB134-.Ltext0
 3721 00d4 C8010000 		.4byte	.LBE134-.Ltext0
 3722 00d8 00000000 		.4byte	0
 3723 00dc 00000000 		.4byte	0
 3724 00e0 62010000 		.4byte	.LBB130-.Ltext0
 3725 00e4 78010000 		.4byte	.LBE130-.Ltext0
 3726 00e8 80010000 		.4byte	.LBB133-.Ltext0
 3727 00ec A0010000 		.4byte	.LBE133-.Ltext0
 3728 00f0 00000000 		.4byte	0
 3729 00f4 00000000 		.4byte	0
 3730 00f8 DE010000 		.4byte	.LBB137-.Ltext0
 3731 00fc E2010000 		.4byte	.LBE137-.Ltext0
 3732 0100 EE010000 		.4byte	.LBB140-.Ltext0
 3733 0104 28020000 		.4byte	.LBE140-.Ltext0
 3734 0108 00000000 		.4byte	0
 3735 010c 00000000 		.4byte	0
 3736 0110 30020000 		.4byte	.LBB141-.Ltext0
 3737 0114 34020000 		.4byte	.LBE141-.Ltext0
 3738 0118 38020000 		.4byte	.LBB152-.Ltext0
 3739 011c 56020000 		.4byte	.LBE152-.Ltext0
 3740 0120 00000000 		.4byte	0
 3741 0124 00000000 		.4byte	0
 3742 0128 30020000 		.4byte	.LBB143-.Ltext0
 3743 012c 34020000 		.4byte	.LBE143-.Ltext0
 3744 0130 38020000 		.4byte	.LBB150-.Ltext0
 3745 0134 56020000 		.4byte	.LBE150-.Ltext0
 3746 0138 00000000 		.4byte	0
 3747 013c 00000000 		.4byte	0
 3748 0140 30020000 		.4byte	.LBB144-.Ltext0
 3749 0144 34020000 		.4byte	.LBE144-.Ltext0
 3750 0148 38020000 		.4byte	.LBB149-.Ltext0
 3751 014c 56020000 		.4byte	.LBE149-.Ltext0
 3752 0150 00000000 		.4byte	0
 3753 0154 00000000 		.4byte	0
 3754 0158 30020000 		.4byte	.LBB145-.Ltext0
ARM GAS  C:\Users\eric\AppData\Local\Temp\cclFSUCi.s 			page 67


 3755 015c 34020000 		.4byte	.LBE145-.Ltext0
 3756 0160 38020000 		.4byte	.LBB148-.Ltext0
 3757 0164 56020000 		.4byte	.LBE148-.Ltext0
 3758 0168 00000000 		.4byte	0
 3759 016c 00000000 		.4byte	0
 3760              		.section	.debug_line,"",%progbits
 3761              	.Ldebug_line0:
 3762 0000 CC020000 		.section	.debug_str,"MS",%progbits,1
 3762      02007F01 
 3762      00000201 
 3762      FB0E0D00 
 3762      01010101 
 3763              	.LASF85:
 3764 0000 70617261 		.ascii	"params\000"
 3764      6D7300
 3765              	.LASF93:
 3766 0007 5F686F6F 		.ascii	"_hook_param\000"
 3766      6B5F7061 
 3766      72616D00 
 3767              	.LASF103:
 3768 0013 77745F70 		.ascii	"wt_par_lut_f\000"
 3768      61725F6C 
 3768      75745F66 
 3768      00
 3769              	.LASF62:
 3770 0020 70686173 		.ascii	"phase\000"
 3770      6500
 3771              	.LASF52:
 3772 0026 766F6963 		.ascii	"voices\000"
 3772      657300
 3773              	.LASF51:
 3774 002d 666C6167 		.ascii	"flags\000"
 3774      7300
 3775              	.LASF90:
 3776 0033 746F7461 		.ascii	"totalSig\000"
 3776      6C536967 
 3776      00
 3777              	.LASF113:
 3778 003c 474E5520 		.ascii	"GNU C++11 5.4.1 20160919 (release) [ARM/embedded-5-"
 3778      432B2B31 
 3778      3120352E 
 3778      342E3120 
 3778      32303136 
 3779 006f 6272616E 		.ascii	"branch revision 240496] -mcpu=cortex-m4 -mthumb -mn"
 3779      63682072 
 3779      65766973 
 3779      696F6E20 
 3779      32343034 
 3780 00a2 6F2D7468 		.ascii	"o-thumb-interwork -mlittle-endian -mfloat-abi=hard "
 3780      756D622D 
 3780      696E7465 
 3780      72776F72 
 3780      6B202D6D 
 3781 00d5 2D6D6670 		.ascii	"-mfpu=fpv4-sp-d16 -g -Os -std=c++11 -fsingle-precis"
 3781      753D6670 
 3781      76342D73 
 3781      702D6431 
ARM GAS  C:\Users\eric\AppData\Local\Temp\cclFSUCi.s 			page 68


 3781      36202D67 
 3782 0108 696F6E2D 		.ascii	"ion-constant -fcheck-new -fno-rtti -fno-exceptions "
 3782      636F6E73 
 3782      74616E74 
 3782      202D6663 
 3782      6865636B 
 3783 013b 2D666E6F 		.ascii	"-fno-non-call-exceptions\000"
 3783      2D6E6F6E 
 3783      2D63616C 
 3783      6C2D6578 
 3783      63657074 
 3784              	.LASF14:
 3785 0154 756E7369 		.ascii	"unsigned int\000"
 3785      676E6564 
 3785      20696E74 
 3785      00
 3786              	.LASF109:
 3787 0161 62697472 		.ascii	"bitres_lut_f\000"
 3787      65735F6C 
 3787      75745F66 
 3787      00
 3788              	.LASF8:
 3789 016e 5F5F696E 		.ascii	"__int32_t\000"
 3789      7433325F 
 3789      7400
 3790              	.LASF82:
 3791 0178 706C6174 		.ascii	"platform\000"
 3791      666F726D 
 3791      00
 3792              	.LASF111:
 3793 0181 6D617856 		.ascii	"maxVoice\000"
 3793      6F696365 
 3793      00
 3794              	.LASF32:
 3795 018a 70697463 		.ascii	"pitch\000"
 3795      6800
 3796              	.LASF46:
 3797 0190 75736572 		.ascii	"user_osc_param_id_t\000"
 3797      5F6F7363 
 3797      5F706172 
 3797      616D5F69 
 3797      645F7400 
 3798              	.LASF48:
 3799 01a4 53746174 		.ascii	"State\000"
 3799      6500
 3800              	.LASF37:
 3801 01aa 6B5F7573 		.ascii	"k_user_osc_param_id1\000"
 3801      65725F6F 
 3801      73635F70 
 3801      6172616D 
 3801      5F696431 
 3802              	.LASF38:
 3803 01bf 6B5F7573 		.ascii	"k_user_osc_param_id2\000"
 3803      65725F6F 
 3803      73635F70 
 3803      6172616D 
 3803      5F696432 
ARM GAS  C:\Users\eric\AppData\Local\Temp\cclFSUCi.s 			page 69


 3804              	.LASF39:
 3805 01d4 6B5F7573 		.ascii	"k_user_osc_param_id3\000"
 3805      65725F6F 
 3805      73635F70 
 3805      6172616D 
 3805      5F696433 
 3806              	.LASF40:
 3807 01e9 6B5F7573 		.ascii	"k_user_osc_param_id4\000"
 3807      65725F6F 
 3807      73635F70 
 3807      6172616D 
 3807      5F696434 
 3808              	.LASF41:
 3809 01fe 6B5F7573 		.ascii	"k_user_osc_param_id5\000"
 3809      65725F6F 
 3809      73635F70 
 3809      6172616D 
 3809      5F696435 
 3810              	.LASF42:
 3811 0213 6B5F7573 		.ascii	"k_user_osc_param_id6\000"
 3811      65725F6F 
 3811      73635F70 
 3811      6172616D 
 3811      5F696436 
 3812              	.LASF110:
 3813 0228 735F7374 		.ascii	"s_state\000"
 3813      61746500 
 3814              	.LASF115:
 3815 0230 433A5C55 		.ascii	"C:\\Users\\eric\\logue-sdk\\platform\\prologue\\sup"
 3815      73657273 
 3815      5C657269 
 3815      635C6C6F 
 3815      6775652D 
 3816 025d 65727361 		.ascii	"ersaw\000"
 3816      7700
 3817              	.LASF79:
 3818 0263 6F736369 		.ascii	"oscillator\000"
 3818      6C6C6174 
 3818      6F7200
 3819              	.LASF45:
 3820 026e 6B5F6E75 		.ascii	"k_num_user_osc_param_id\000"
 3820      6D5F7573 
 3820      65725F6F 
 3820      73635F70 
 3820      6172616D 
 3821              	.LASF84:
 3822 0286 5F686F6F 		.ascii	"_hook_cycle\000"
 3822      6B5F6379 
 3822      636C6500 
 3823              	.LASF105:
 3824 0292 74616E70 		.ascii	"tanpi_lut_f\000"
 3824      695F6C75 
 3824      745F6600 
 3825              	.LASF80:
 3826 029e 6F73635F 		.ascii	"osc_softclipf\000"
 3826      736F6674 
 3826      636C6970 
ARM GAS  C:\Users\eric\AppData\Local\Temp\cclFSUCi.s 			page 70


 3826      6600
 3827              	.LASF67:
 3828 02ac 636C616D 		.ascii	"clampfsel\000"
 3828      70667365 
 3828      6C00
 3829              	.LASF19:
 3830 02b6 75696E74 		.ascii	"uint32_t\000"
 3830      33325F74 
 3830      00
 3831              	.LASF15:
 3832 02bf 696E7438 		.ascii	"int8_t\000"
 3832      5F7400
 3833              	.LASF96:
 3834 02c6 76616C66 		.ascii	"valf\000"
 3834      00
 3835              	.LASF99:
 3836 02cb 6D696469 		.ascii	"midi_to_hz_lut_f\000"
 3836      5F746F5F 
 3836      687A5F6C 
 3836      75745F66 
 3836      00
 3837              	.LASF0:
 3838 02dc 666C6F61 		.ascii	"float\000"
 3838      7400
 3839              	.LASF94:
 3840 02e2 696E6465 		.ascii	"index\000"
 3840      7800
 3841              	.LASF27:
 3842 02e8 6B5F7573 		.ascii	"k_user_module_delfx\000"
 3842      65725F6D 
 3842      6F64756C 
 3842      655F6465 
 3842      6C667800 
 3843              	.LASF13:
 3844 02fc 6C6F6E67 		.ascii	"long long unsigned int\000"
 3844      206C6F6E 
 3844      6720756E 
 3844      7369676E 
 3844      65642069 
 3845              	.LASF118:
 3846 0313 6F73635F 		.ascii	"osc_white\000"
 3846      77686974 
 3846      6500
 3847              	.LASF6:
 3848 031d 5F5F7569 		.ascii	"__uint16_t\000"
 3848      6E743136 
 3848      5F7400
 3849              	.LASF91:
 3850 0328 5F686F6F 		.ascii	"_hook_on\000"
 3850      6B5F6F6E 
 3850      00
 3851              	.LASF47:
 3852 0331 75736572 		.ascii	"user_osc_param\000"
 3852      5F6F7363 
 3852      5F706172 
 3852      616D00
 3853              	.LASF95:
ARM GAS  C:\Users\eric\AppData\Local\Temp\cclFSUCi.s 			page 71


 3854 0340 76616C75 		.ascii	"value\000"
 3854      6500
 3855              	.LASF75:
 3856 0346 61646A75 		.ascii	"adjustPitch\000"
 3856      73745069 
 3856      74636800 
 3857              	.LASF28:
 3858 0352 6B5F7573 		.ascii	"k_user_module_revfx\000"
 3858      65725F6D 
 3858      6F64756C 
 3858      655F7265 
 3858      76667800 
 3859              	.LASF77:
 3860 0366 70697463 		.ascii	"pitchChange\000"
 3860      68436861 
 3860      6E676500 
 3861              	.LASF88:
 3862 0372 66696E65 		.ascii	"fineAdj\000"
 3862      41646A00 
 3863              	.LASF49:
 3864 037a 64726976 		.ascii	"drive\000"
 3864      6500
 3865              	.LASF61:
 3866 0380 696E7374 		.ascii	"instance\000"
 3866      616E6365 
 3866      00
 3867              	.LASF33:
 3868 0389 6375746F 		.ascii	"cutoff\000"
 3868      666600
 3869              	.LASF22:
 3870 0390 63686172 		.ascii	"char\000"
 3870      00
 3871              	.LASF78:
 3872 0395 61646A75 		.ascii	"adjustedMod\000"
 3872      73746564 
 3872      4D6F6400 
 3873              	.LASF63:
 3874 03a1 6B5F666C 		.ascii	"k_flags_none\000"
 3874      6167735F 
 3874      6E6F6E65 
 3874      00
 3875              	.LASF92:
 3876 03ae 5F686F6F 		.ascii	"_hook_off\000"
 3876      6B5F6F66 
 3876      6600
 3877              	.LASF86:
 3878 03b8 6672616D 		.ascii	"frames\000"
 3878      657300
 3879              	.LASF108:
 3880 03bf 73636865 		.ascii	"schetzen_lut_f\000"
 3880      747A656E 
 3880      5F6C7574 
 3880      5F6600
 3881              	.LASF16:
 3882 03ce 75696E74 		.ascii	"uint8_t\000"
 3882      385F7400 
 3883              	.LASF71:
ARM GAS  C:\Users\eric\AppData\Local\Temp\cclFSUCi.s 			page 72


 3884 03d6 6F73635F 		.ascii	"osc_notehzf\000"
 3884      6E6F7465 
 3884      687A6600 
 3885              	.LASF81:
 3886 03e2 636F6D70 		.ascii	"compress\000"
 3886      72657373 
 3886      00
 3887              	.LASF104:
 3888 03eb 6C6F675F 		.ascii	"log_lut_f\000"
 3888      6C75745F 
 3888      6600
 3889              	.LASF69:
 3890 03f5 636C6970 		.ascii	"clipmaxf\000"
 3890      6D617866 
 3890      00
 3891              	.LASF12:
 3892 03fe 6C6F6E67 		.ascii	"long long int\000"
 3892      206C6F6E 
 3892      6720696E 
 3892      7400
 3893              	.LASF64:
 3894 040c 6B5F666C 		.ascii	"k_flag_reset\000"
 3894      61675F72 
 3894      65736574 
 3894      00
 3895              	.LASF87:
 3896 0419 6C666F5F 		.ascii	"lfo_inc\000"
 3896      696E6300 
 3897              	.LASF54:
 3898 0421 64657475 		.ascii	"detune\000"
 3898      6E6500
 3899              	.LASF34:
 3900 0428 7265736F 		.ascii	"resonance\000"
 3900      6E616E63 
 3900      6500
 3901              	.LASF30:
 3902 0432 6B5F6E75 		.ascii	"k_num_user_modules\000"
 3902      6D5F7573 
 3902      65725F6D 
 3902      6F64756C 
 3902      657300
 3903              	.LASF68:
 3904 0445 636C6970 		.ascii	"clipmaxu32\000"
 3904      6D617875 
 3904      333200
 3905              	.LASF76:
 3906 0450 66696E65 		.ascii	"fineAdjust\000"
 3906      41646A75 
 3906      737400
 3907              	.LASF53:
 3908 045b 766F6963 		.ascii	"voiceLevel\000"
 3908      654C6576 
 3908      656C00
 3909              	.LASF58:
 3910 0466 636F6D70 		.ascii	"compThreshold\000"
 3910      54687265 
 3910      73686F6C 
ARM GAS  C:\Users\eric\AppData\Local\Temp\cclFSUCi.s 			page 73


 3910      6400
 3911              	.LASF2:
 3912 0474 5F5F696E 		.ascii	"__int8_t\000"
 3912      74385F74 
 3912      00
 3913              	.LASF29:
 3914 047d 6B5F7573 		.ascii	"k_user_module_osc\000"
 3914      65725F6D 
 3914      6F64756C 
 3914      655F6F73 
 3914      6300
 3915              	.LASF20:
 3916 048f 6C6F6E67 		.ascii	"long double\000"
 3916      20646F75 
 3916      626C6500 
 3917              	.LASF17:
 3918 049b 75696E74 		.ascii	"uint16_t\000"
 3918      31365F74 
 3918      00
 3919              	.LASF57:
 3920 04a4 70686173 		.ascii	"phaseSync\000"
 3920      6553796E 
 3920      6300
 3921              	.LASF44:
 3922 04ae 6B5F7573 		.ascii	"k_user_osc_param_shiftshape\000"
 3922      65725F6F 
 3922      73635F70 
 3922      6172616D 
 3922      5F736869 
 3923              	.LASF83:
 3924 04ca 5F686F6F 		.ascii	"_hook_init\000"
 3924      6B5F696E 
 3924      697400
 3925              	.LASF5:
 3926 04d5 73686F72 		.ascii	"short int\000"
 3926      7420696E 
 3926      7400
 3927              	.LASF106:
 3928 04df 73717274 		.ascii	"sqrtm2log_lut_f\000"
 3928      6D326C6F 
 3928      675F6C75 
 3928      745F6600 
 3929              	.LASF107:
 3930 04ef 63756269 		.ascii	"cubicsat_lut_f\000"
 3930      63736174 
 3930      5F6C7574 
 3930      5F6600
 3931              	.LASF102:
 3932 04fe 77745F73 		.ascii	"wt_sqr_lut_f\000"
 3932      71725F6C 
 3932      75745F66 
 3932      00
 3933              	.LASF9:
 3934 050b 6C6F6E67 		.ascii	"long int\000"
 3934      20696E74 
 3934      00
 3935              	.LASF60:
ARM GAS  C:\Users\eric\AppData\Local\Temp\cclFSUCi.s 			page 74


 3936 0514 636F6D70 		.ascii	"compRatio\000"
 3936      52617469 
 3936      6F00
 3937              	.LASF56:
 3938 051e 73686170 		.ascii	"shape\000"
 3938      6500
 3939              	.LASF26:
 3940 0524 6B5F7573 		.ascii	"k_user_module_modfx\000"
 3940      65725F6D 
 3940      6F64756C 
 3940      655F6D6F 
 3940      64667800 
 3941              	.LASF43:
 3942 0538 6B5F7573 		.ascii	"k_user_osc_param_shape\000"
 3942      65725F6F 
 3942      73635F70 
 3942      6172616D 
 3942      5F736861 
 3943              	.LASF117:
 3944 054f 31397573 		.ascii	"19user_osc_param_id_t\000"
 3944      65725F6F 
 3944      73635F70 
 3944      6172616D 
 3944      5F69645F 
 3945              	.LASF59:
 3946 0565 636F6D70 		.ascii	"compGain\000"
 3946      4761696E 
 3946      00
 3947              	.LASF50:
 3948 056e 6C666F7A 		.ascii	"lfoz\000"
 3948      00
 3949              	.LASF112:
 3950 0573 696E7374 		.ascii	"instances\000"
 3950      616E6365 
 3950      7300
 3951              	.LASF35:
 3952 057d 72657365 		.ascii	"reserved0\000"
 3952      72766564 
 3952      3000
 3953              	.LASF3:
 3954 0587 5F5F7569 		.ascii	"__uint8_t\000"
 3954      6E74385F 
 3954      7400
 3955              	.LASF98:
 3956 0591 6B5F6F73 		.ascii	"k_osc_api_version\000"
 3956      635F6170 
 3956      695F7665 
 3956      7273696F 
 3956      6E00
 3957              	.LASF65:
 3958 05a3 6673656C 		.ascii	"fsel\000"
 3958      00
 3959              	.LASF101:
 3960 05a8 77745F73 		.ascii	"wt_saw_lut_f\000"
 3960      61775F6C 
 3960      75745F66 
 3960      00
ARM GAS  C:\Users\eric\AppData\Local\Temp\cclFSUCi.s 			page 75


 3961              	.LASF72:
 3962 05b5 6E6F7465 		.ascii	"note\000"
 3962      00
 3963              	.LASF114:
 3964 05ba 73757065 		.ascii	"supersaw.cpp\000"
 3964      72736177 
 3964      2E637070 
 3964      00
 3965              	.LASF24:
 3966 05c7 7133315F 		.ascii	"q31_t\000"
 3966      7400
 3967              	.LASF21:
 3968 05cd 73697A65 		.ascii	"sizetype\000"
 3968      74797065 
 3968      00
 3969              	.LASF11:
 3970 05d6 6C6F6E67 		.ascii	"long unsigned int\000"
 3970      20756E73 
 3970      69676E65 
 3970      6420696E 
 3970      7400
 3971              	.LASF100:
 3972 05e8 77745F73 		.ascii	"wt_sine_lut_f\000"
 3972      696E655F 
 3972      6C75745F 
 3972      6600
 3973              	.LASF18:
 3974 05f6 696E7433 		.ascii	"int32_t\000"
 3974      325F7400 
 3975              	.LASF70:
 3976 05fe 6C696E69 		.ascii	"linintf\000"
 3976      6E746600 
 3977              	.LASF4:
 3978 0606 756E7369 		.ascii	"unsigned char\000"
 3978      676E6564 
 3978      20636861 
 3978      7200
 3979              	.LASF10:
 3980 0614 5F5F7569 		.ascii	"__uint32_t\000"
 3980      6E743332 
 3980      5F7400
 3981              	.LASF25:
 3982 061f 6B5F7573 		.ascii	"k_user_module_global\000"
 3982      65725F6D 
 3982      6F64756C 
 3982      655F676C 
 3982      6F62616C 
 3983              	.LASF116:
 3984 0634 6465636C 		.ascii	"decltype(nullptr)\000"
 3984      74797065 
 3984      286E756C 
 3984      6C707472 
 3984      2900
 3985              	.LASF89:
 3986 0646 766F6963 		.ascii	"voicePitch\000"
 3986      65506974 
 3986      636800
ARM GAS  C:\Users\eric\AppData\Local\Temp\cclFSUCi.s 			page 76


 3987              	.LASF55:
 3988 0651 6E6F6973 		.ascii	"noiseLevel\000"
 3988      654C6576 
 3988      656C00
 3989              	.LASF1:
 3990 065c 7369676E 		.ascii	"signed char\000"
 3990      65642063 
 3990      68617200 
 3991              	.LASF7:
 3992 0668 73686F72 		.ascii	"short unsigned int\000"
 3992      7420756E 
 3992      7369676E 
 3992      65642069 
 3992      6E7400
 3993              	.LASF74:
 3994 067b 6F73635F 		.ascii	"osc_w0f_for_note\000"
 3994      7730665F 
 3994      666F725F 
 3994      6E6F7465 
 3994      00
 3995              	.LASF36:
 3996 068c 75736572 		.ascii	"user_osc_param_t\000"
 3996      5F6F7363 
 3996      5F706172 
 3996      616D5F74 
 3996      00
 3997              	.LASF23:
 3998 069d 646F7562 		.ascii	"double\000"
 3998      6C6500
 3999              	.LASF31:
 4000 06a4 73686170 		.ascii	"shape_lfo\000"
 4000      655F6C66 
 4000      6F00
 4001              	.LASF119:
 4002 06ae 5F6F7363 		.ascii	"_osc_white\000"
 4002      5F776869 
 4002      746500
 4003              	.LASF73:
 4004 06b9 636C6970 		.ascii	"clip1m1f\000"
 4004      316D3166 
 4004      00
 4005              	.LASF66:
 4006 06c2 636C616D 		.ascii	"clampmaxfsel\000"
 4006      706D6178 
 4006      6673656C 
 4006      00
 4007              	.LASF97:
 4008 06cf 6B5F6F73 		.ascii	"k_osc_api_platform\000"
 4008      635F6170 
 4008      695F706C 
 4008      6174666F 
 4008      726D00
 4009              		.ident	"GCC: (GNU Tools for ARM Embedded Processors) 5.4.1 20160919 (release) [ARM/embedded-5-bran
ARM GAS  C:\Users\eric\AppData\Local\Temp\cclFSUCi.s 			page 77


DEFINED SYMBOLS
                            *ABS*:00000000 supersaw.cpp
C:\Users\eric\AppData\Local\Temp\cclFSUCi.s:21     .text:00000000 $t
C:\Users\eric\AppData\Local\Temp\cclFSUCi.s:26     .text:00000000 _hook_init
C:\Users\eric\AppData\Local\Temp\cclFSUCi.s:70     .text:00000024 $d
C:\Users\eric\AppData\Local\Temp\cclFSUCi.s:75     .text:0000002c $t
C:\Users\eric\AppData\Local\Temp\cclFSUCi.s:80     .text:0000002c _hook_cycle
C:\Users\eric\AppData\Local\Temp\cclFSUCi.s:590    .text:00000284 $d
C:\Users\eric\AppData\Local\Temp\cclFSUCi.s:602    .text:000002a8 $t
C:\Users\eric\AppData\Local\Temp\cclFSUCi.s:607    .text:000002a8 _hook_on
C:\Users\eric\AppData\Local\Temp\cclFSUCi.s:624    .text:000002b4 $d
C:\Users\eric\AppData\Local\Temp\cclFSUCi.s:628    .text:000002b8 $t
C:\Users\eric\AppData\Local\Temp\cclFSUCi.s:633    .text:000002b8 _hook_off
C:\Users\eric\AppData\Local\Temp\cclFSUCi.s:650    .text:000002ba _hook_param
C:\Users\eric\AppData\Local\Temp\cclFSUCi.s:667    .text:000002ca $d
C:\Users\eric\AppData\Local\Temp\cclFSUCi.s:747    .text:00000348 $d
C:\Users\eric\AppData\Local\Temp\cclFSUCi.s:770    .bss:00000034 instances
C:\Users\eric\AppData\Local\Temp\cclFSUCi.s:759    .data:00000000 maxVoice
C:\Users\eric\AppData\Local\Temp\cclFSUCi.s:756    .data:00000000 $d
C:\Users\eric\AppData\Local\Temp\cclFSUCi.s:762    .bss:00000000 $d
C:\Users\eric\AppData\Local\Temp\cclFSUCi.s:766    .bss:00000000 _ZL7s_state
                     .debug_frame:00000010 $d
C:\Users\eric\AppData\Local\Temp\cclFSUCi.s:674    .text:000002d1 $d
C:\Users\eric\AppData\Local\Temp\cclFSUCi.s:674    .text:000002d2 $t

UNDEFINED SYMBOLS
_osc_white
midi_to_hz_lut_f
