ARM GAS  C:\Users\eric\AppData\Local\Temp\cclFSUCi.s 			page 1


   1              		.syntax unified
   2              		.cpu cortex-m4
   3              		.eabi_attribute 27, 1
   4              		.eabi_attribute 28, 1
   5              		.fpu fpv4-sp-d16
   6              		.eabi_attribute 20, 1
   7              		.eabi_attribute 21, 1
   8              		.eabi_attribute 23, 3
   9              		.eabi_attribute 24, 1
  10              		.eabi_attribute 25, 1
  11              		.eabi_attribute 26, 1
  12              		.eabi_attribute 30, 4
  13              		.eabi_attribute 34, 1
  14              		.eabi_attribute 18, 4
  15              		.thumb
  16              		.syntax unified
  17              		.file	"supersaw.cpp"
  18              		.text
  19              	.Ltext0:
  20              		.cfi_sections	.debug_frame
  21              		.align	1
  22              		.global	_hook_init
  23              		.thumb
  24              		.thumb_func
  25              		.type	_hook_init, %function
  26              	_hook_init:
  27              	.LFB239:
  28              		.file 1 "supersaw.cpp"
  29              		.loc 1 74 0
  30              		.cfi_startproc
  31              		@ args = 0, pretend = 0, frame = 0
  32              		@ frame_needed = 0, uses_anonymous_args = 0
  33              		@ link register save eliminated.
  34              	.LVL0:
  35              		.loc 1 75 0
  36 0000 084B     		ldr	r3, .L2
  37 0002 4FF07E52 		mov	r2, #1065353216
  38              		.loc 1 77 0
  39 0006 0021     		movs	r1, #0
  40              	.LVL1:
  41              		.loc 1 75 0
  42 0008 1A60     		str	r2, [r3]	@ float
  43              		.loc 1 77 0
  44 000a 1973     		strb	r1, [r3, #12]
  45              		.loc 1 76 0
  46 000c 0022     		movs	r2, #0
  47              		.loc 1 78 0
  48 000e 0221     		movs	r1, #2
  49              		.loc 1 76 0
  50 0010 9A60     		str	r2, [r3, #8]	@ float
  51 0012 5A60     		str	r2, [r3, #4]	@ float
  52              		.loc 1 78 0
  53 0014 1961     		str	r1, [r3, #16]
  54              		.loc 1 80 0
  55 0016 DA61     		str	r2, [r3, #28]	@ float
  56              		.loc 1 79 0
  57 0018 0A21     		movs	r1, #10
ARM GAS  C:\Users\eric\AppData\Local\Temp\cclFSUCi.s 			page 2


  58              		.loc 1 81 0
  59 001a 1A62     		str	r2, [r3, #32]	@ float
  60              		.loc 1 82 0
  61 001c 024A     		ldr	r2, .L2+4
  62              		.loc 1 79 0
  63 001e 9961     		str	r1, [r3, #24]
  64              		.loc 1 82 0
  65 0020 1A63     		str	r2, [r3, #48]	@ float
  66 0022 7047     		bx	lr
  67              	.L3:
  68              		.align	2
  69              	.L2:
  70 0024 00000000 		.word	.LANCHOR0
  71 0028 CDCC4C3E 		.word	1045220557
  72              		.cfi_endproc
  73              	.LFE239:
  74              		.size	_hook_init, .-_hook_init
  75              		.align	1
  76              		.global	_hook_cycle
  77              		.thumb
  78              		.thumb_func
  79              		.type	_hook_cycle, %function
  80              	_hook_cycle:
  81              	.LFB243:
  82              		.loc 1 124 0
  83              		.cfi_startproc
  84              		@ args = 0, pretend = 0, frame = 16
  85              		@ frame_needed = 0, uses_anonymous_args = 0
  86              	.LVL2:
  87 002c 2DE9F04F 		push	{r4, r5, r6, r7, r8, r9, r10, fp, lr}
  88              		.cfi_def_cfa_offset 36
  89              		.cfi_offset 4, -36
  90              		.cfi_offset 5, -32
  91              		.cfi_offset 6, -28
  92              		.cfi_offset 7, -24
  93              		.cfi_offset 8, -20
  94              		.cfi_offset 9, -16
  95              		.cfi_offset 10, -12
  96              		.cfi_offset 11, -8
  97              		.cfi_offset 14, -4
  98              		.loc 1 125 0
  99 0030 944C     		ldr	r4, .L42
 100              		.loc 1 130 0
 101 0032 D0ED007A 		vldr.32	s15, [r0]	@ int
 102              		.loc 1 125 0
 103 0036 94F80CA0 		ldrb	r10, [r4, #12]	@ zero_extendqisi2
 104              	.LVL3:
 105              		.loc 1 137 0
 106 003a 2569     		ldr	r5, [r4, #16]
 107 003c 924E     		ldr	r6, .L42+4
 108 003e 94F818B0 		ldrb	fp, [r4, #24]	@ zero_extendqisi2
 109              		.loc 1 130 0
 110 0042 FAEEE07A 		vcvt.f32.s32	s15, s15, #31
 111              		.loc 1 124 0
 112 0046 8846     		mov	r8, r1
 113              		.loc 1 131 0
 114 0048 1AF00101 		ands	r1, r10, #1
ARM GAS  C:\Users\eric\AppData\Local\Temp\cclFSUCi.s 			page 3


 115              	.LVL4:
 116              		.loc 1 124 0
 117 004c 2DED088B 		vpush.64	{d8, d9, d10, d11}
 118              		.cfi_def_cfa_offset 68
 119              		.cfi_offset 80, -68
 120              		.cfi_offset 81, -64
 121              		.cfi_offset 82, -60
 122              		.cfi_offset 83, -56
 123              		.cfi_offset 84, -52
 124              		.cfi_offset 85, -48
 125              		.cfi_offset 86, -44
 126              		.cfi_offset 87, -40
 127              		.loc 1 132 0
 128 0050 07EE102A 		vmov	s14, r2	@ int
 129              		.loc 1 131 0
 130 0054 08BF     		it	eq
 131 0056 94ED029A 		vldreq.32	s18, [r4, #8]
 132              		.loc 1 130 0
 133 005a C4ED017A 		vstr.32	s15, [r4, #4]
 134              		.loc 1 131 0
 135 005e 18BF     		it	ne
 136 0060 B0EE679A 		vmovne.f32	s18, s15
 137              		.loc 1 132 0
 138 0064 77EEC97A 		vsub.f32	s15, s15, s18
 139 0068 B8EE477A 		vcvt.f32.u32	s14, s14
 140              		.loc 1 126 0
 141 006c 0023     		movs	r3, #0
 142              		.loc 1 132 0
 143 006e 87EE878A 		vdiv.f32	s16, s15, s14
 144              		.loc 1 126 0
 145 0072 2373     		strb	r3, [r4, #12]
 146              		.loc 1 141 0
 147 0074 8388     		ldrh	r3, [r0, #4]
 148 0076 C5F34607 		ubfx	r7, r5, #1, #7
 149              		.loc 1 135 0
 150 007a 08EB8209 		add	r9, r8, r2, lsl #2
 151 007e EDB2     		uxtb	r5, r5
 152              	.LBB84:
 153              	.LBB85:
 154              	.LBB86:
 155              	.LBB87:
 156              	.LBB88:
 157              	.LBB89:
 158              		.file 2 "../inc/osc_api.h"
 159              		.loc 2 115 0
 160 0080 824A     		ldr	r2, .L42+8
 161              	.LVL5:
 162 0082 06EBC505 		add	r5, r6, r5, lsl #3
 163              	.LBE89:
 164              	.LBE88:
 165              	.LBE87:
 166              	.LBE86:
 167              	.LBE85:
 168              	.LBE84:
 169              		.loc 1 141 0
 170 0086 4FEA132A 		lsr	r10, r3, #8
 171              	.LVL6:
ARM GAS  C:\Users\eric\AppData\Local\Temp\cclFSUCi.s 			page 4


 172 008a DBB2     		uxtb	r3, r3
 173              		.loc 1 124 0
 174 008c 85B0     		sub	sp, sp, #20
 175              		.cfi_def_cfa_offset 88
 176 008e 07FB1B37 		mls	r7, r7, fp, r3
 177              		.loc 1 128 0
 178 0092 D4ED008A 		vldr.32	s17, [r4]
 179              	.LVL7:
 180              	.LBB124:
 181              	.LBB122:
 182              	.LBB115:
 183              	.LBB112:
 184              	.LBB95:
 185              	.LBB96:
 186              		.file 3 "../inc/utils/float_math.h"
 187              		.loc 3 825 0
 188 0096 DFED7E9A 		vldr.32	s19, .L42+12
 189 009a 0435     		adds	r5, r5, #4
 190              	.LBE96:
 191              	.LBE95:
 192              	.LBE112:
 193              	.LBE115:
 194              	.LBE122:
 195              	.LBE124:
 196              		.loc 1 144 0
 197 009c 0436     		adds	r6, r6, #4
 198 009e 1046     		mov	r0, r2
 199              	.LVL8:
 200              	.L13:
 201              	.LBB125:
 202              		.loc 1 145 0 discriminator 1
 203 00a0 AE42     		cmp	r6, r5
 204 00a2 56D0     		beq	.L6
 205              	.LVL9:
 206              	.LBB123:
 207              	.LBB116:
 208              	.LBB117:
 209              		.loc 1 91 0
 210 00a4 FF23     		movs	r3, #255
 211 00a6 97FBF3F3 		sdiv	r3, r7, r3
 212              	.LVL10:
 213              		.loc 1 92 0
 214 00aa C3EB032E 		rsb	lr, r3, r3, lsl #8
 215              	.LVL11:
 216              		.loc 1 93 0
 217 00ae B7EB0E0E 		subs	lr, r7, lr
 218              	.LVL12:
 219              		.loc 1 94 0
 220 00b2 44BF     		itt	mi
 221 00b4 03F1FF33 		addmi	r3, r3, #-1
 222              	.LVL13:
 223              		.loc 1 95 0
 224 00b8 0EF1FF0E 		addmi	lr, lr, #255
 225              	.LVL14:
 226              		.loc 1 100 0
 227 00bc 5344     		add	r3, r3, r10
 228              	.LVL15:
ARM GAS  C:\Users\eric\AppData\Local\Temp\cclFSUCi.s 			page 5


 229              		.loc 1 102 0
 230 00be 4EEA0323 		orr	r3, lr, r3, lsl #8
 231              	.LVL16:
 232 00c2 9BB2     		uxth	r3, r3
 233              	.LVL17:
 234              	.LBE117:
 235              	.LBE116:
 236              		.loc 1 148 0
 237 00c4 4FEA232E 		asr	lr, r3, #8
 238              	.LBB118:
 239              	.LBB113:
 240              	.LBB98:
 241              	.LBB90:
 242              		.loc 2 115 0
 243 00c8 BEF1960F 		cmp	lr, #150
 244              	.LBE90:
 245              	.LBE98:
 246              	.LBE113:
 247              	.LBE118:
 248              		.loc 1 148 0
 249 00cc DBB2     		uxtb	r3, r3
 250 00ce 07EE903A 		vmov	s15, r3	@ int
 251              	.LVL18:
 252              	.LBB119:
 253              	.LBB114:
 254              	.LBB99:
 255              	.LBB91:
 256              		.loc 2 115 0
 257 00d2 D8BF     		it	le
 258 00d4 7346     		movle	r3, lr
 259              	.LVL19:
 260              	.LBE91:
 261              	.LBE99:
 262              		.loc 2 126 0
 263 00d6 0EF1010E 		add	lr, lr, #1
 264              	.LVL20:
 265 00da 5FFA8EFE 		uxtb	lr, lr
 266              	.LVL21:
 267              	.LBB100:
 268              	.LBB92:
 269              		.loc 2 115 0
 270 00de C8BF     		it	gt
 271 00e0 9723     		movgt	r3, #151
 272              	.LVL22:
 273              	.LBE92:
 274              	.LBE100:
 275              	.LBB101:
 276              	.LBB102:
 277 00e2 BEF1960F 		cmp	lr, #150
 278 00e6 88BF     		it	hi
 279 00e8 4FF0970E 		movhi	lr, #151
 280              	.LBE102:
 281              	.LBE101:
 282              	.LBB104:
 283              	.LBB93:
 284 00ec 02EB8303 		add	r3, r2, r3, lsl #2
 285              	.LBE93:
ARM GAS  C:\Users\eric\AppData\Local\Temp\cclFSUCi.s 			page 6


 286              	.LBE104:
 287              	.LBB105:
 288              	.LBB103:
 289 00f0 00EB8E0E 		add	lr, r0, lr, lsl #2
 290              	.LBE103:
 291              	.LBE105:
 292              	.LBB106:
 293              	.LBB94:
 294 00f4 93ED007A 		vldr.32	s14, [r3]
 295              	.LVL23:
 296              	.LBE94:
 297              	.LBE106:
 298              	.LBB107:
 299              	.LBB97:
 300              		.loc 3 825 0
 301 00f8 DEED006A 		vldr.32	s13, [lr]
 302 00fc F8EEE77A 		vcvt.f32.s32	s15, s15
 303              	.LVL24:
 304 0100 76EEC76A 		vsub.f32	s13, s13, s14
 305 0104 67EEA97A 		vmul.f32	s15, s15, s19
 306 0108 A7EEA67A 		vfma.f32	s14, s15, s13
 307              	.LVL25:
 308              	.LBE97:
 309              	.LBE107:
 310              	.LBB108:
 311              	.LBB109:
 312              	.LBB110:
 313              	.LBB111:
 314              		.loc 3 193 0
 315 010c DFED617A 		vldr.32	s15, .L42+16
 316 0110 B4EEE77A 		vcmpe.f32	s14, s15
 317 0114 F1EE10FA 		vmrs	APSR_nzcv, FPSCR
 318 0118 B8BF     		it	lt
 319 011a F0EE477A 		vmovlt.f32	s15, s14
 320              	.LVL26:
 321              	.LBE111:
 322              	.LBE110:
 323              	.LBE109:
 324              	.LBE108:
 325              	.LBE114:
 326              	.LBE119:
 327              		.loc 1 148 0
 328 011e 9FED5E7A 		vldr.32	s14, .L42+20
 329 0122 67EE877A 		vmul.f32	s15, s15, s14
 330 0126 C6ED007A 		vstr.32	s15, [r6]
 331              		.loc 1 149 0
 332 012a 79B1     		cbz	r1, .L11
 333              		.loc 1 150 0
 334 012c 94F92430 		ldrsb	r3, [r4, #36]
 335 0130 43B9     		cbnz	r3, .L28
 336 0132 0390     		str	r0, [sp, #12]
 337 0134 0292     		str	r2, [sp, #8]
 338 0136 0191     		str	r1, [sp, #4]
 339              	.LBB120:
 340              	.LBB121:
 341              		.loc 2 780 0
 342 0138 FFF7FEFF 		bl	_osc_white
ARM GAS  C:\Users\eric\AppData\Local\Temp\cclFSUCi.s 			page 7


 343              	.LVL27:
 344              	.LBE121:
 345              	.LBE120:
 346 013c 0199     		ldr	r1, [sp, #4]
 347 013e 029A     		ldr	r2, [sp, #8]
 348 0140 0398     		ldr	r0, [sp, #12]
 349 0142 01E0     		b	.L12
 350              	.L28:
 351              		.loc 1 150 0
 352 0144 9FED550A 		vldr.32	s0, .L42+24
 353              	.L12:
 354              		.loc 1 150 0 is_stmt 0 discriminator 4
 355 0148 06ED010A 		vstr.32	s0, [r6, #-4]
 356              	.L11:
 357 014c 0836     		adds	r6, r6, #8
 358 014e 5F44     		add	r7, r7, fp
 359              	.LBE123:
 360              		.loc 1 145 0 is_stmt 1 discriminator 2
 361 0150 A6E7     		b	.L13
 362              	.L6:
 363 0152 F7EE009A 		vmov.f32	s19, #1.0e+0
 364              	.LBE125:
 365              	.LBB126:
 366              	.LBB127:
 367              		.loc 1 164 0
 368 0156 4B4E     		ldr	r6, .L42
 369 0158 B0EE69BA 		vmov.f32	s22, s19
 370              	.LVL28:
 371              	.L40:
 372              	.LBE127:
 373              		.loc 1 155 0
 374 015c C845     		cmp	r8, r9
 375 015e 00F08980 		beq	.L14
 376              	.LBB153:
 377              	.LBB128:
 378              	.LBB129:
 379              	.LBB130:
 380              	.LBB131:
 381              		.loc 1 109 0
 382 0162 94ED086A 		vldr.32	s12, [r4, #32]
 383 0166 4E4B     		ldr	r3, .L42+28
 384 0168 9FED4C7A 		vldr.32	s14, .L42+24
 385 016c FFEE005A 		vmov.f32	s11, #-1.0e+0
 386              		.loc 1 107 0
 387 0170 F0EE003A 		vmov.f32	s7, #2.0e+0
 388              		.loc 1 108 0
 389 0174 B6EE004A 		vmov.f32	s8, #5.0e-1
 390              	.L17:
 391              	.LVL29:
 392              	.LBE131:
 393              	.LBE130:
 394              	.LBE129:
 395              		.loc 1 157 0 discriminator 3
 396 0178 9D42     		cmp	r5, r3
 397 017a 26D0     		beq	.L15
 398              	.LBB134:
 399              		.loc 1 158 0 discriminator 2
ARM GAS  C:\Users\eric\AppData\Local\Temp\cclFSUCi.s 			page 8


 400 017c 53ED017A 		vldr.32	s15, [r3, #-4]
 401              	.LVL30:
 402              	.LBB133:
 403              	.LBB132:
 404              		.loc 1 107 0 discriminator 2
 405 0180 79EEE76A 		vsub.f32	s13, s19, s15
 406              		.loc 1 108 0 discriminator 2
 407 0184 F4EEC47A 		vcmpe.f32	s15, s8
 408              		.loc 1 107 0 discriminator 2
 409 0188 F0EE654A 		vmov.f32	s9, s11
 410 018c E6EEA34A 		vfma.f32	s9, s13, s7
 411              	.LVL31:
 412 0190 0833     		adds	r3, r3, #8
 413              		.loc 1 108 0 discriminator 2
 414 0192 F1EE10FA 		vmrs	APSR_nzcv, FPSCR
 415 0196 D4BF     		ite	le
 416 0198 F0EE696A 		vmovle.f32	s13, s19
 417 019c F0EE656A 		vmovgt.f32	s13, s11
 418              	.LVL32:
 419              	.LBE132:
 420              	.LBE133:
 421              		.loc 1 159 0 discriminator 2
 422 01a0 66EE266A 		vmul.f32	s13, s12, s13
 423 01a4 39EEC65A 		vsub.f32	s10, s19, s12
 424 01a8 E4EE856A 		vfma.f32	s13, s9, s10
 425 01ac 37EE267A 		vadd.f32	s14, s14, s13
 426              	.LVL33:
 427              		.loc 1 160 0 discriminator 2
 428 01b0 53ED026A 		vldr.32	s13, [r3, #-8]
 429 01b4 77EEA67A 		vadd.f32	s15, s15, s13
 430              	.LVL34:
 431              		.loc 1 161 0 discriminator 2
 432 01b8 FCEEE76A 		vcvt.u32.f32	s13, s15
 433 01bc F8EE666A 		vcvt.f32.u32	s13, s13
 434              	.LVL35:
 435              		.loc 1 162 0 discriminator 2
 436 01c0 77EEE67A 		vsub.f32	s15, s15, s13
 437              	.LVL36:
 438 01c4 43ED037A 		vstr.32	s15, [r3, #-12]
 439              	.LBE134:
 440              		.loc 1 157 0 discriminator 2
 441 01c8 D6E7     		b	.L17
 442              	.LVL37:
 443              	.L15:
 444              	.LBE128:
 445              		.loc 1 164 0
 446 01ca 94ED05AA 		vldr.32	s20, [r4, #20]
 447              		.loc 1 165 0
 448 01ce D4ED07AA 		vldr.32	s21, [r4, #28]
 449              		.loc 1 164 0
 450 01d2 27EE0AAA 		vmul.f32	s20, s14, s20
 451              	.LVL38:
 452              	.LBB135:
 453              	.LBB136:
 454              		.loc 2 780 0
 455 01d6 FFF7FEFF 		bl	_osc_white
 456              	.LVL39:
ARM GAS  C:\Users\eric\AppData\Local\Temp\cclFSUCi.s 			page 9


 457              	.LBE136:
 458              	.LBE135:
 459              		.loc 1 165 0
 460 01da D4ED077A 		vldr.32	s15, [r4, #28]
 461              	.LBB137:
 462              	.LBB138:
 463              		.loc 1 113 0
 464 01de 94ED0A7A 		vldr.32	s14, [r4, #40]
 465              	.LBE138:
 466              	.LBE137:
 467              		.loc 1 165 0
 468 01e2 7BEE6AAA 		vsub.f32	s21, s22, s21
 469 01e6 20EE270A 		vmul.f32	s0, s0, s15
 470 01ea AAEE2A0A 		vfma.f32	s0, s20, s21
 471              	.LVL40:
 472              	.LBB140:
 473              	.LBB139:
 474              		.loc 1 113 0
 475 01ee B4EEC70A 		vcmpe.f32	s0, s14
 476 01f2 F1EE10FA 		vmrs	APSR_nzcv, FPSCR
 477 01f6 08DD     		ble	.L38
 478              		.loc 1 114 0
 479 01f8 70EE477A 		vsub.f32	s15, s0, s14
 480 01fc D6ED0C6A 		vldr.32	s13, [r6, #48]
 481 0200 A7EEA67A 		vfma.f32	s14, s15, s13
 482 0204 B0EE470A 		vmov.f32	s0, s14
 483              	.LVL41:
 484 0208 0EE0     		b	.L20
 485              	.LVL42:
 486              	.L38:
 487              		.loc 1 115 0
 488 020a F1EE477A 		vneg.f32	s15, s14
 489 020e B4EEE70A 		vcmpe.f32	s0, s15
 490 0212 F1EE10FA 		vmrs	APSR_nzcv, FPSCR
 491              		.loc 1 116 0
 492 0216 41BF     		itttt	mi
 493 0218 30EE070A 		vaddmi.f32	s0, s0, s14
 494              	.LVL43:
 495 021c 96ED0C7A 		vldrmi.32	s14, [r6, #48]
 496 0220 E0EE077A 		vfmami.f32	s15, s0, s14
 497 0224 B0EE670A 		vmovmi.f32	s0, s15
 498              	.LVL44:
 499              	.L20:
 500              	.LBE139:
 501              	.LBE140:
 502              		.loc 1 167 0
 503 0228 D4ED0B7A 		vldr.32	s15, [r4, #44]
 504 022c 20EE270A 		vmul.f32	s0, s0, s15
 505              	.LBB141:
 506              	.LBB142:
 507              	.LBB143:
 508              	.LBB144:
 509              	.LBB145:
 510              	.LBB146:
 511              		.loc 3 193 0
 512 0230 FFEE007A 		vmov.f32	s15, #-1.0e+0
 513              	.LBE146:
ARM GAS  C:\Users\eric\AppData\Local\Temp\cclFSUCi.s 			page 10


 514              	.LBE145:
 515              	.LBE144:
 516              	.LBE143:
 517              	.LBE142:
 518              	.LBE141:
 519              		.loc 1 167 0
 520 0234 20EE280A 		vmul.f32	s0, s0, s17
 521              	.LVL45:
 522              	.LBB152:
 523              	.LBB151:
 524              	.LBB150:
 525              	.LBB149:
 526              	.LBB148:
 527              	.LBB147:
 528              		.loc 3 193 0
 529 0238 B4EEE70A 		vcmpe.f32	s0, s15
 530 023c F1EE10FA 		vmrs	APSR_nzcv, FPSCR
 531 0240 07DB     		blt	.L39
 532              	.LVL46:
 533 0242 B4EECB0A 		vcmpe.f32	s0, s22
 534 0246 F1EE10FA 		vmrs	APSR_nzcv, FPSCR
 535 024a A8BF     		it	ge
 536 024c B0EE690A 		vmovge.f32	s0, s19
 537              	.LVL47:
 538 0250 01E0     		b	.L22
 539              	.LVL48:
 540              	.L39:
 541 0252 BFEE000A 		vmov.f32	s0, #-1.0e+0
 542              	.LVL49:
 543              	.L22:
 544              	.LBE147:
 545              	.LBE148:
 546              	.LBE149:
 547              	.LBE150:
 548              	.LBE151:
 549              	.LBE152:
 550              		.loc 1 168 0
 551 0256 60EE007A 		vmul.f32	s15, s0, s0
 552 025a 9FED127A 		vldr.32	s14, .L42+32
 553 025e 60EE677A 		vnmul.f32	s15, s0, s15
 554              		.loc 1 169 0
 555 0262 39EE089A 		vadd.f32	s18, s18, s16
 556              	.LVL50:
 557              		.loc 1 168 0
 558 0266 A7EE870A 		vfma.f32	s0, s15, s14
 559 026a BEEEE00A 		vcvt.s32.f32	s0, s0, #31
 560 026e A8EC010A 		vstmia.32	r8!, {s0}	@ int
 561              	.LVL51:
 562              	.LBE153:
 563              		.loc 1 155 0
 564 0272 73E7     		b	.L40
 565              	.LVL52:
 566              	.L14:
 567              	.LBE126:
 568              		.loc 1 172 0
 569 0274 84ED029A 		vstr.32	s18, [r4, #8]
 570              		.loc 1 173 0
ARM GAS  C:\Users\eric\AppData\Local\Temp\cclFSUCi.s 			page 11


 571 0278 05B0     		add	sp, sp, #20
 572              		.cfi_def_cfa_offset 68
 573              		@ sp needed
 574 027a BDEC088B 		vldm	sp!, {d8-d11}
 575              		.cfi_restore 86
 576              		.cfi_restore 87
 577              		.cfi_restore 84
 578              		.cfi_restore 85
 579              		.cfi_restore 82
 580              		.cfi_restore 83
 581              		.cfi_restore 80
 582              		.cfi_restore 81
 583              		.cfi_def_cfa_offset 36
 584              	.LVL53:
 585 027e BDE8F08F 		pop	{r4, r5, r6, r7, r8, r9, r10, fp, pc}
 586              	.LVL54:
 587              	.L43:
 588 0282 00BF     		.align	2
 589              	.L42:
 590 0284 00000000 		.word	.LANCHOR0
 591 0288 34000000 		.word	.LANCHOR0+52
 592 028c 00000000 		.word	midi_to_hz_lut_f
 593 0290 8180803B 		.word	998277249
 594 0294 49FFB846 		.word	1186529097
 595 0298 3EC3AE37 		.word	934200126
 596 029c 00000000 		.word	0
 597 02a0 38000000 		.word	.LANCHOR0+56
 598 02a4 CDCC4C3D 		.word	1028443341
 599              		.cfi_endproc
 600              	.LFE243:
 601              		.size	_hook_cycle, .-_hook_cycle
 602              		.align	1
 603              		.global	_hook_on
 604              		.thumb
 605              		.thumb_func
 606              		.type	_hook_on, %function
 607              	_hook_on:
 608              	.LFB244:
 609              		.loc 1 176 0
 610              		.cfi_startproc
 611              		@ args = 0, pretend = 0, frame = 0
 612              		@ frame_needed = 0, uses_anonymous_args = 0
 613              		@ link register save eliminated.
 614              	.LVL55:
 615              		.loc 1 177 0
 616 02a8 024A     		ldr	r2, .L45
 617 02aa 137B     		ldrb	r3, [r2, #12]	@ zero_extendqisi2
 618 02ac 43F00103 		orr	r3, r3, #1
 619 02b0 1373     		strb	r3, [r2, #12]
 620 02b2 7047     		bx	lr
 621              	.L46:
 622              		.align	2
 623              	.L45:
 624 02b4 00000000 		.word	.LANCHOR0
 625              		.cfi_endproc
 626              	.LFE244:
 627              		.size	_hook_on, .-_hook_on
ARM GAS  C:\Users\eric\AppData\Local\Temp\cclFSUCi.s 			page 12


 628              		.align	1
 629              		.global	_hook_off
 630              		.thumb
 631              		.thumb_func
 632              		.type	_hook_off, %function
 633              	_hook_off:
 634              	.LFB245:
 635              		.loc 1 181 0
 636              		.cfi_startproc
 637              		@ args = 0, pretend = 0, frame = 0
 638              		@ frame_needed = 0, uses_anonymous_args = 0
 639              		@ link register save eliminated.
 640              	.LVL56:
 641 02b8 7047     		bx	lr
 642              		.cfi_endproc
 643              	.LFE245:
 644              		.size	_hook_off, .-_hook_off
 645              		.align	1
 646              		.global	_hook_param
 647              		.thumb
 648              		.thumb_func
 649              		.type	_hook_param, %function
 650              	_hook_param:
 651              	.LFB246:
 652              		.loc 1 186 0
 653              		.cfi_startproc
 654              		@ args = 0, pretend = 0, frame = 0
 655              		@ frame_needed = 0, uses_anonymous_args = 0
 656              		@ link register save eliminated.
 657              	.LVL57:
 658              		.loc 1 187 0
 659 02ba 07EE901A 		vmov	s15, r1	@ int
 660 02be F8EEE77A 		vcvt.f32.s32	s15, s15
 661              	.LVL58:
 662              		.loc 1 189 0
 663 02c2 0628     		cmp	r0, #6
 664 02c4 3ED8     		bhi	.L48
 665 02c6 DFE800F0 		tbb	[pc, r0]
 666              	.L51:
 667 02ca 04       		.byte	(.L50-.L51)/2
 668 02cb 12       		.byte	(.L52-.L51)/2
 669 02cc 16       		.byte	(.L53-.L51)/2
 670 02cd 1E       		.byte	(.L54-.L51)/2
 671 02ce 22       		.byte	(.L55-.L51)/2
 672 02cf 3D       		.byte	(.L48-.L51)/2
 673 02d0 36       		.byte	(.L56-.L51)/2
 674 02d1 00       		.p2align 1
 675              	.L50:
 676              		.loc 1 191 0
 677 02d2 0131     		adds	r1, r1, #1
 678              	.LVL59:
 679              		.loc 1 192 0
 680 02d4 07EE901A 		vmov	s15, r1	@ int
 681              	.LVL60:
 682 02d8 F8EEE77A 		vcvt.f32.s32	s15, s15
 683 02dc F7EE006A 		vmov.f32	s13, #1.0e+0
 684 02e0 86EEA77A 		vdiv.f32	s14, s13, s15
ARM GAS  C:\Users\eric\AppData\Local\Temp\cclFSUCi.s 			page 13


 685              		.loc 1 191 0
 686 02e4 184B     		ldr	r3, .L57
 687 02e6 1961     		str	r1, [r3, #16]
 688              		.loc 1 192 0
 689 02e8 83ED057A 		vstr.32	s14, [r3, #20]
 690              		.loc 1 193 0
 691 02ec 7047     		bx	lr
 692              	.LVL61:
 693              	.L52:
 694              		.loc 1 195 0
 695 02ee 164B     		ldr	r3, .L57
 696 02f0 0131     		adds	r1, r1, #1
 697              	.LVL62:
 698 02f2 9961     		str	r1, [r3, #24]
 699              		.loc 1 196 0
 700 02f4 7047     		bx	lr
 701              	.LVL63:
 702              	.L53:
 703              		.loc 1 198 0
 704 02f6 DFED156A 		vldr.32	s13, .L57+4
 705 02fa 134B     		ldr	r3, .L57
 706 02fc 87EEA67A 		vdiv.f32	s14, s15, s13
 707 0300 83ED077A 		vstr.32	s14, [r3, #28]
 708              		.loc 1 199 0
 709 0304 7047     		bx	lr
 710              	.L54:
 711              		.loc 1 201 0
 712 0306 104B     		ldr	r3, .L57
 713 0308 83F82410 		strb	r1, [r3, #36]
 714              		.loc 1 202 0
 715 030c 7047     		bx	lr
 716              	.L55:
 717              		.loc 1 204 0
 718 030e DFED0F6A 		vldr.32	s13, .L57+4
 719 0312 0D4B     		ldr	r3, .L57
 720 0314 87EEA67A 		vdiv.f32	s14, s15, s13
 721              		.loc 1 205 0
 722 0318 F7EE007A 		vmov.f32	s15, #1.0e+0
 723              	.LVL64:
 724 031c D3ED0C6A 		vldr.32	s13, [r3, #48]
 725              		.loc 1 204 0
 726 0320 83ED0A7A 		vstr.32	s14, [r3, #40]
 727              		.loc 1 205 0
 728 0324 37EEC76A 		vsub.f32	s12, s15, s14
 729 0328 A6EE267A 		vfma.f32	s14, s12, s13
 730 032c C7EE876A 		vdiv.f32	s13, s15, s14
 731 0330 C3ED0B6A 		vstr.32	s13, [r3, #44]
 732              		.loc 1 206 0
 733 0334 7047     		bx	lr
 734              	.LVL65:
 735              	.L56:
 736              		.loc 1 208 0
 737 0336 9FED067A 		vldr.32	s14, .L57+8
 738 033a 034B     		ldr	r3, .L57
 739 033c 67EE877A 		vmul.f32	s15, s15, s14
 740              	.LVL66:
 741 0340 C3ED087A 		vstr.32	s15, [r3, #32]
ARM GAS  C:\Users\eric\AppData\Local\Temp\cclFSUCi.s 			page 14


 742              	.L48:
 743 0344 7047     		bx	lr
 744              	.L58:
 745 0346 00BF     		.align	2
 746              	.L57:
 747 0348 00000000 		.word	.LANCHOR0
 748 034c 0000C842 		.word	1120403456
 749 0350 0820803A 		.word	981475336
 750              		.cfi_endproc
 751              	.LFE246:
 752              		.size	_hook_param, .-_hook_param
 753              		.global	instances
 754              		.global	maxVoice
 755              		.data
 756              		.align	2
 757              		.type	maxVoice, %object
 758              		.size	maxVoice, 4
 759              	maxVoice:
 760 0000 0C000000 		.word	12
 761              		.bss
 762              		.align	2
 763              		.set	.LANCHOR0,. + 0
 764              		.type	_ZL7s_state, %object
 765              		.size	_ZL7s_state, 52
 766              	_ZL7s_state:
 767 0000 00000000 		.space	52
 767      00000000 
 767      00000000 
 767      00000000 
 767      00000000 
 768              		.type	instances, %object
 769              		.size	instances, 96
 770              	instances:
 771 0034 00000000 		.space	96
 771      00000000 
 771      00000000 
 771      00000000 
 771      00000000 
 772              		.text
 773              	.Letext0:
 774              		.file 4 "c:\\users\\eric\\logue-sdk\\tools\\gcc\\gcc-arm-none-eabi-5_4-2016q3\\arm-none-eabi\\incl
 775              		.file 5 "c:\\users\\eric\\logue-sdk\\tools\\gcc\\gcc-arm-none-eabi-5_4-2016q3\\arm-none-eabi\\incl
 776              		.file 6 "../../ext/CMSIS/CMSIS/Include/arm_math.h"
 777              		.file 7 "../inc/userosc.h"
 778              		.file 8 "../inc/userprg.h"
 779              		.file 9 "../inc/utils/int_math.h"